
Critical_Section.elf:     file format elf32-littlearm

SYMBOL TABLE:
00000000 l    d  startup	00000000 startup
00000124 l    d  .text	00000000 .text
40000200 l    d  .data	00000000 .data
4000038c l    d  .bss	00000000 .bss
00000000 l    d  .ARM.attributes	00000000 .ARM.attributes
00000000 l    d  .comment	00000000 .comment
00000000 l    d  .debug_line	00000000 .debug_line
00000000 l    d  .debug_info	00000000 .debug_info
00000000 l    d  .debug_abbrev	00000000 .debug_abbrev
00000000 l    d  .debug_aranges	00000000 .debug_aranges
00000000 l    d  .debug_ranges	00000000 .debug_ranges
00000000 l    d  .debug_loc	00000000 .debug_loc
00000000 l    d  .debug_str	00000000 .debug_str
00000000 l    d  .debug_frame	00000000 .debug_frame
00000000 l    df *ABS*	00000000 src/crt.o
00000010 l       *ABS*	00000000 ARM_MODE_USER
00000011 l       *ABS*	00000000 ARM_MODE_FIQ
00000012 l       *ABS*	00000000 ARM_MODE_IRQ
00000013 l       *ABS*	00000000 ARM_MODE_SVC
00000017 l       *ABS*	00000000 ARM_MODE_ABORT
0000001b l       *ABS*	00000000 ARM_MODE_UNDEF
0000001f l       *ABS*	00000000 ARM_MODE_SYS
0000001f l       *ABS*	00000000 ARM_MODE_MASK
00000080 l       *ABS*	00000000 I_BIT
00000040 l       *ABS*	00000000 F_BIT
00000000 l       startup	00000000 _vectors
00000020 l       startup	00000000 ResetAddr
00000024 l       startup	00000000 UndefAddr
00000028 l       startup	00000000 SWIAddr
0000002c l       startup	00000000 PAbortAddr
00000030 l       startup	00000000 DAbortAddr
00000034 l       startup	00000000 ReservedAddr
00000044 l       startup	00000000 SwitchingIrqAddr
0000003c l       startup	00000000 FIQAddr
00000048 l       startup	00000000 ResetHandler
000000e4 l       startup	00000000 SWIHandler
00000038 l       startup	00000000 IRQAddr
00000040 l       startup	00000000 SimpleIrqAddr
0000009c l       startup	00000000 copyloop
000000b8 l       startup	00000000 bss_clear_loop
00000000 l    df *ABS*	00000000 src/switch.o
000000c0 l       *ABS*	00000000 INT_DISABLED
00000012 l       *ABS*	00000000 MODE_IRQ
00000013 l       *ABS*	00000000 MODE_SVC
00000000 l    df *ABS*	00000000 main.c
00000000 l    df *ABS*	00000000 init.c
0000073c l     F .text	00000090 initMAM
0000059c l     F .text	000001a0 initPLL
00000988 l     F .text	00000020 initPCLK
00000adc l     F .text	00000088 initGPIO
00000cf4 l     F .text	000002b0 VIC_Init
00000fa8 l     F .text	00000020 VIC_DummyWDT
00000fc8 l     F .text	00000020 VIC_DummySW
00000fe8 l     F .text	00000020 VIC_DummyDEBUGRX
00001008 l     F .text	00000020 VIC_DummyDEBUGTX
00001028 l     F .text	00000020 VIC_DummyTIMER0
00001048 l     F .text	00000020 VIC_DummyTIMER1
00001068 l     F .text	00000020 VIC_DummyUART0
00001088 l     F .text	00000020 VIC_DummyUART1
000010a8 l     F .text	00000020 VIC_DummyPWM01
000010c8 l     F .text	00000020 VIC_DummyI2C0
000010e8 l     F .text	00000020 VIC_DummySPI
00001108 l     F .text	00000020 VIC_DummySSP1
00001128 l     F .text	00000020 VIC_DummyPLL
00001148 l     F .text	00000020 VIC_DummyRTC
00001168 l     F .text	00000020 VIC_DummyEINT0
00001188 l     F .text	00000020 VIC_DummyEINT1
000011a8 l     F .text	00000020 VIC_DummyEINT2
000011c8 l     F .text	00000020 VIC_DummyEINT3
000011e8 l     F .text	00000020 VIC_DummyAD0
00001208 l     F .text	00000020 VIC_DummyI2C1
00001228 l     F .text	00000020 VIC_DummyBOD
00001248 l     F .text	00000020 VIC_DummyETHERNET
00001268 l     F .text	00000020 VIC_DummyUSB
00001288 l     F .text	00000020 VIC_DummyCAN01
000012a8 l     F .text	00000020 VIC_DummyMMC
000012c8 l     F .text	00000020 VIC_DummyGP_DMA
000012e8 l     F .text	00000020 VIC_DummyTIMER2
00001308 l     F .text	00000020 VIC_DummyTIMER3
00001328 l     F .text	00000020 VIC_DummyUART2
00001348 l     F .text	00000020 VIC_DummyUART3
00001368 l     F .text	00000020 VIC_DummyI2C2
00001388 l     F .text	00000020 VIC_DummyI2S
00000fa4 l     F .text	00000004 VIC_Dummy
00000000 l    df *ABS*	00000000 print.c
00000000 l    df *ABS*	00000000 timer.c
00000000 l    df *ABS*	00000000 bsp.c
00000000 l    df *ABS*	00000000 tasks.c
00000000 l    df *ABS*	00000000 critical_section.c
00000000 l    df *ABS*	00000000 _udivsi3.o
00001be8 l       .text	00000000 .udivsi3_skip_div0_test
00000000 l    df *ABS*	00000000 _dvmd_tls.o
00000000 l    df *ABS*	00000000 
000009a8 g     F .text	00000134 pinConfigurator
00000100 g       *ABS*	00000000 FIQ_STACK_SIZE
000000f4  w      startup	00000000 FIQHandler
4000038c g     O .bss	00000400 stackOne
0000176c g     F .text	00000014 Tmr_TickISR_Handler
00001588 g     F .text	000000ec printString
40000200 g     O .data	0000018c mcuPins
40001400 g       .bss	00000000 __stack_svc_end
000004e0 g     F .text	000000bc initHardware
000000e8  w      startup	00000000 PAbortHandler
4000078c g     O .bss	00000004 cs
00001da0 g       .text	00000000 _etext
000000dc  w      startup	00000000 ExitFunction
000001ac g     F .text	000001d0 initialize_stack
00001780 g     F .text	00000118 BSP_CPU_ClkFreq
40000d00 g       .bss	00000000 __stack_fiq_end
00001be8 g     F .text	000000f4 .hidden __udivsi3
4000038c g       .data	00000000 edata
00000100 g       *ABS*	00000000 IRQ_STACK_SIZE
00001a2c g     F .text	00000014 BSP_IntDisAll
00000b64 g     F .text	00000190 initUART0
40000ba4 g       .bss	00000000 __bss_end
00001d9c g     O .text	00000004 RESOURCE
00000000 g       startup	00000000 _startup
40000790 g     O .bss	00000004 taskID
00001ba0 g     F .text	00000018 EnterCriticalSection
40001000 g       .bss	00000000 __stack_und_end
00000100 g       *ABS*	00000000 ABT_STACK_SIZE
40000794 g     O .bss	00000400 stackTwo
000000ec  w      startup	00000000 DAbortHandler
00001da0 g       .text	00000000 etext
0000037c g     F .text	000000a8 scheduler
40000b94 g     O .bss	00000004 currentSP
4000038c g       .data	00000000 __data_end
00001474 g     F .text	00000114 print_uint32
00001ae8 g     F .text	00000080 taskTwo
00001b68 g     F .text	00000020 CreateCriticalSection
000007cc g     F .text	00000054 initCCLK
00001d94 g     O .text	00000004 SUCCESS
00000138 g       .text	00000000 SimpleIRQHandler
00001cfc  w    F .text	00000004 .hidden __aeabi_ldiv0
4000038c g       .bss	00000000 __bss_start
00000424 g     F .text	000000bc main
00000124 g       .text	00000000 switch_to_current
00001be8 g     F .text	00000000 .hidden __aeabi_uidiv
40000b98 g     O .bss	00000004 stackTwoSP
00001674 g     F .text	000000f8 initialize_timer_tick
40000ba0 g     O .bss	00000004 VIC_SpuriousInt
40000b9c g     O .bss	00000004 stackOneSP
00001a40 g     F .text	00000028 hello_world
00001bb8 g     F .text	00000018 LeaveCriticalSection
000013a8 g     F .text	000000cc printHex
00001898 g     F .text	00000194 BSP_CPU_PclkFreq
00000820 g     F .text	00000168 getFcclk
00001d98 g     O .text	00000004 BUSY
00000400 g       *ABS*	00000000 SVC_STACK_SIZE
00001cdc g     F .text	00000020 .hidden __aeabi_uidivmod
4000038c g       .data	00000000 _edata
00000100 g       *ABS*	00000000 UND_STACK_SIZE
40001400 g       .bss	00000000 _end
00001bd0 g     F .text	00000018 QueryEnterCriticalSection
00001a68 g     F .text	00000080 taskOne
00001cfc  w    F .text	00000004 .hidden __aeabi_idiv0
000000f0  w      startup	00000000 IRQHandler
00000158 g       .text	00000000 SwitchingIRQHandler
000000e0  w      startup	00000000 UndefHandler
00001b88 g     F .text	00000018 DeleteCriticalSection
40000200 g       .data	00000000 __data_start
40000e00 g       .bss	00000000 __stack_irq_end
40000f00 g       .bss	00000000 __stack_abt_end


Contents of section startup:
 0000 18f09fe5 18f09fe5 18f09fe5 18f09fe5  ................
 0010 18f09fe5 18f09fe5 24f09fe5 18f09fe5  ........$.......
 0020 48000000 e0000000 e4000000 e8000000  H...............
 0030 ec000000 00000000 f0000000 f4000000  ................
 0040 38010000 58010000 0000a0e1 0000a0e1  8...X...........
 0050 0000a0e1 0000a0e1 0000a0e1 0000a0e1  ................
 0060 0000a0e1 0000a0e1 dbf021e3 84d09fe5  ..........!.....
 0070 d7f021e3 80d09fe5 d1f021e3 7cd09fe5  ..!.......!.|...
 0080 d2f021e3 78d09fe5 d3f021e3 74d09fe5  ..!.x.....!.t...
 0090 74109fe5 74209fe5 74309fe5 030052e1  t...t ..t0....R.
 00a0 04009134 04008234 fbffff3a 64109fe5  ...4...4...:d...
 00b0 64209fe5 0030a0e3 020051e1 04308114  d ...0....Q..0..
 00c0 fcffff1a 00000fe1 c000c0e3 00f029e1  ..............).
 00d0 48209fe5 0fe0a0e1 12ff2fe1 feffffea  H ......../.....
 00e0 feffffea feffffea feffffea feffffea  ................
 00f0 feffffea feffffea 00100040 000f0040  ...........@...@
 0100 000d0040 000e0040 00140040 a01d0000  ...@...@...@....
 0110 00020040 8c030040 8c030040 a40b0040  ...@...@...@...@
 0120 24040000                             $...            
Contents of section .text:
 0124 7c009fe5 00d090e5 0100bde8 00f06fe1  |.............o.
 0134 ffdffde8 04e04ee2 ff5f2de9 d3f021e3  ......N.._-...!.
 0144 00402de9 3c0600eb 0040bde8 d2f021e3  .@-.<....@....!.
 0154 ff9ffde8 04e04ee2 07002de9 00004fe1  ......N...-...O.
 0164 0e10a0e1 0d20a0e1 0cd08de2 d3f021e3  ..... ........!.
 0174 02002de9 00402de9 f81f2de9 3800b2e8  ..-..@-...-.8...
 0184 38002de9 01002de9 0d00a0e1 790000eb  8.-...-.....y...
 0194 0c009fe5 00d090e5 0100bde8 00f06fe1  ..............o.
 01a4 ffdffde8 940b0040 10d04de2 04008de5  .......@..M.....
 01b4 00108de5 04309de5 ff3f83e2 0c308de5  .....0...?...0..
 01c4 00209de5 0c309de5 002083e5 0c309de5  . ...0... ...0..
 01d4 043043e2 0c308de5 0c309de5 60219fe5  .0C..0...0..`!..
 01e4 002083e5 0c309de5 043043e2 0c308de5  . ...0...0C..0..
 01f4 0c309de5 4c219fe5 002083e5 0c309de5  .0..L!... ...0..
 0204 043043e2 0c308de5 0c309de5 38219fe5  .0C..0...0..8!..
 0214 002083e5 0c309de5 043043e2 0c308de5  . ...0...0C..0..
 0224 0c309de5 24219fe5 002083e5 0c309de5  .0..$!... ...0..
 0234 043043e2 0c308de5 0c309de5 10219fe5  .0C..0...0...!..
 0244 002083e5 0c309de5 043043e2 0c308de5  . ...0...0C..0..
 0254 0c309de5 fc209fe5 002083e5 0c309de5  .0... ... ...0..
 0264 043043e2 0c308de5 0c309de5 e8209fe5  .0C..0...0... ..
 0274 002083e5 0c309de5 043043e2 0c308de5  . ...0...0C..0..
 0284 0c309de5 d4209fe5 002083e5 0c309de5  .0... ... ...0..
 0294 043043e2 0c308de5 0c309de5 c0209fe5  .0C..0...0... ..
 02a4 002083e5 0c309de5 043043e2 0c308de5  . ...0...0C..0..
 02b4 0c309de5 ac209fe5 002083e5 0c309de5  .0... ... ...0..
 02c4 043043e2 0c308de5 0c309de5 98209fe5  .0C..0...0... ..
 02d4 002083e5 0c309de5 043043e2 0c308de5  . ...0...0C..0..
 02e4 0c309de5 84209fe5 002083e5 0c309de5  .0... ... ...0..
 02f4 043043e2 0c308de5 0c309de5 70209fe5  .0C..0...0..p ..
 0304 002083e5 0c309de5 043043e2 0c308de5  . ...0...0C..0..
 0314 0c309de5 0020a0e3 002083e5 0c309de5  .0... ... ...0..
 0324 043043e2 0c308de5 0c309de5 1320a0e3  .0C..0...0... ..
 0334 002083e5 0c309de5 0300a0e1 10d08de2  . ...0..........
 0344 1eff2fe1 0d0d0d0d 0c0c0c0c 0b0b0b0b  ../.............
 0354 0a0a0a0a 09090909 08080808 07070707  ................
 0364 06060606 05050505 04040404 03030303  ................
 0374 02020202 01010101 04e02de5 0cd04de2  ..........-...M.
 0384 04008de5 7c309fe5 ff20a0e3 002083e5  ....|0... ... ..
 0394 74009fe5 7a0400eb 70309fe5 003093e5  t...z...p0...0..
 03a4 010053e3 0a00001a 64309fe5 04209de5  ..S.....d0... ..
 03b4 002083e5 54309fe5 0220a0e3 002083e5  . ..T0... ... ..
 03c4 50309fe5 002093e5 4c309fe5 002083e5  P0... ..L0... ..
 03d4 090000ea 3c309fe5 04209de5 002083e5  ....<0... ... ..
 03e4 28309fe5 0120a0e3 002083e5 20309fe5  (0... ... .. 0..
 03f4 002093e5 20309fe5 002083e5 0cd08de2  . .. 0... ......
 0404 04e09de4 1eff2fe1 004000e0 001d0000  ....../..@......
 0414 90070040 9c0b0040 980b0040 940b0040  ...@...@...@...@
 0424 08402de9 2c0000eb 80009fe5 540400eb  .@-.,.......T...
 0434 7c309fe5 003093e5 0300a0e1 c80500eb  |0...0..........
 0444 70009fe5 70109fe5 56ffffeb 0020a0e1  p...p...V.... ..
 0454 68309fe5 002083e5 64009fe5 64109fe5  h0... ..d...d...
 0464 50ffffeb 0020a0e1 5c309fe5 002083e5  P.... ..\0... ..
 0474 58309fe5 0120a0e3 002083e5 3c309fe5  X0... ... ..<0..
 0484 002093e5 48309fe5 002083e5 770400eb  . ..H0... ..w...
 0494 22ffffeb 3c009fe5 390400eb 10309fe5  "...<...9....0..
 04a4 003093e5 0300a0e1 b50500eb feffffea  .0..............
 04b4 081d0000 8c070040 8c030040 681a0000  .......@...@h...
 04c4 9c0b0040 94070040 e81a0000 980b0040  ...@...@.......@
 04d4 90070040 940b0040 481d0000 04e02de5  ...@...@H.....-.
 04e4 1cd04de2 a4209fe5 04308de2 070092e8  ..M.. ...0......
 04f4 070083e8 04308de2 14308de5 14309de5  .....0...0...0..
 0504 042093e5 14309de5 0830d3e5 0200a0e1  . ...0...0......
 0514 0310a0e1 b20500eb 0030a0e1 10308de5  .........0...0..
 0524 10009de5 0010a0e3 0720a0e3 810000eb  ......... ......
 0534 14009de5 170000eb 14309de5 0920d3e5  .........0... ..
 0544 14309de5 0a30d3e5 10009de5 0210a0e1  .0...0..........
 0554 0320a0e1 770000eb 090100eb 5d0100eb  . ..w.......]...
 0564 960ca0e3 0310a0e3 0020a0e3 10309de5  ......... ...0..
 0574 7a0100eb 18309fe5 0120a0e3 4020c3e5  z....0... ..@ ..
 0584 da0100eb 1cd08de2 04e09de4 1eff2fe1  ............../.
 0594 5c1d0000 00c01fe0 10d04de2 04008de5  \.........M.....
 05a4 8c319fe5 883093e5 023403e2 000053e3  .1...0...4....S.
 05b4 0800000a 78319fe5 0120a0e3 8020c3e5  ....x1... ... ..
 05c4 6c319fe5 5520e0e3 8c20c3e5 60319fe5  l1..U ... ..`1..
 05d4 5520a0e3 8c20c3e5 54319fe5 0020a0e3  U ... ..T1... ..
 05e4 8020c3e5 48319fe5 5520e0e3 8c20c3e5  . ..H1..U ... ..
 05f4 3c319fe5 5520a0e3 8c20c3e5 30319fe5  <1..U ... ..01..
 0604 0020a0e3 0421c3e5 24319fe5 20219fe5  . ...!..$1.. !..
 0614 a02192e5 202082e3 a02183e5 10319fe5  .!..  ...!...1..
 0624 a03193e5 403003e2 000053e3 faffff0a  .1..@0....S.....
 0634 fc309fe5 0120a0e3 0c21c3e5 04309de5  .0... ...!...0..
 0644 0230d3e5 013043e2 0328a0e1 04309de5  .0...0C..(...0..
 0654 b030d3e1 013043e2 033082e0 0c308de5  .0...0C..0...0..
 0664 cc309fe5 0c209de5 842083e5 c0309fe5  .0... ... ...0..
 0674 5520e0e3 8c20c3e5 b4309fe5 5520a0e3  U ... ...0..U ..
 0684 8c20c3e5 a8309fe5 0120a0e3 8020c3e5  . ...0... ... ..
 0694 9c309fe5 5520e0e3 8c20c3e5 90309fe5  .0..U ... ...0..
 06a4 5520a0e3 8c20c3e5 84309fe5 04209de5  U ... ...0... ..
 06b4 0820d2e5 012042e2 ff2002e2 0421c3e5  . ... B.. ...!..
 06c4 6c309fe5 883093e5 013303e2 000053e3  l0...0...3....S.
 06d4 faffff0a 58309fe5 883093e5 ff34c3e3  ....X0...0...4..
 06e4 0239c3e3 0c209de5 020053e1 f8ffff1a  .9... ....S.....
 06f4 3c309fe5 0320a0e3 8020c3e5 30309fe5  <0... ... ..00..
 0704 5520e0e3 8c20c3e5 24309fe5 5520a0e3  U ... ..$0..U ..
 0714 8c20c3e5 18309fe5 883093e5 023403e2  . ...0...0...4..
 0724 000053e3 faffff0a 0000a0e1 10d08de2  ..S.............
 0734 1eff2fe1 00c01fe0 08d04de2 04008de5  ../.......M.....
 0744 0230a0e1 0120a0e1 0320cde5 0230cde5  .0... ... ...0..
 0754 64309fe5 0020a0e3 0020c3e5 0230dde5  d0... ... ...0..
 0764 000053e3 0600000a 0230dde5 070053e3  ..S......0....S.
 0774 0300008a 40309fe5 0220dde5 0420c3e5  ....@0... ... ..
 0784 080000ea 30209fe5 04109de5 2c309fe5  ....0 ......,0..
 0794 033081e0 28109fe5 910383e0 a33ba0e1  .0..(........;..
 07a4 ff3003e2 0430c2e5 0c309fe5 0320dde5  .0...0...0... ..
 07b4 0020c3e5 08d08de2 1eff2fe1 00c01fe0  . ......../.....
 07c4 ff2c3101 6bca5f6b 10402de9 08d04de2  .,1.k._k.@-...M.
 07d4 04008de5 3c409fe5 04309de5 042093e5  ....<@...0... ..
 07e4 04309de5 0830d3e5 0200a0e1 0310a0e1  .0...0..........
 07f4 fb0400eb 0030a0e1 ff3003e2 013043e2  .....0...0...0C.
 0804 ff3003e2 0431c4e5 0000a0e1 08d08de2  .0...1..........
 0814 1040bde8 1eff2fe1 00c01fe0 04e02de5  .@..../.......-.
 0824 24d04de2 4c319fe5 0c31d3e5 1730cde5  $.M.L1...1...0..
 0834 1730dde5 033003e2 000053e3 0200001a  .0...0....S.....
 0844 34319fe5 1c308de5 0f0000ea 1730dde5  41...0.......0..
 0854 033003e2 010053e3 0200001a 1c319fe5  .0....S......1..
 0864 1c308de5 080000ea 1730dde5 033003e2  .0.......0...0..
 0874 020053e3 0200001a 0239a0e3 1c308de5  ..S......9...0..
 0884 010000ea 0030e0e3 360000ea e4309fe5  .....0..6....0..
 0894 883093e5 10308de5 10309de5 0338a0e1  .0...0...0...8..
 08a4 2338a0e1 8338a0e1 a338a0e1 0338a0e1  #8...8...8...8..
 08b4 2338a0e1 013083e2 be30cde1 10309de5  #8...0...0...0..
 08c4 ff3803e2 2338a0e1 ff3003e2 013083e2  .8..#8...0...0..
 08d4 0d30cde5 10309de5 013403e2 233ca0e1  .0...0...4..#<..
 08e4 0c30cde5 10309de5 023403e2 a33ca0e1  .0...0...4...<..
 08f4 0b30cde5 0c30dde5 000053e3 0d00000a  .0...0....S.....
 0904 0b30dde5 000053e3 0a00000a be30dde1  .0....S......0..
 0914 1c209de5 920303e0 8320a0e1 0d30dde5  . ....... ...0..
 0924 0200a0e1 0310a0e1 ad0400eb 0030a0e1  .............0..
 0934 18308de5 010000ea 1c309de5 18308de5  .0.......0...0..
 0944 30309fe5 0431d3e5 ff3003e2 013083e2  00...1...0...0..
 0954 18009de5 0310a0e1 a10400eb 0030a0e1  .............0..
 0964 04308de5 04309de5 0300a0e1 24d08de2  .0...0......$...
 0974 04e09de4 1eff2fe1 00c01fe0 00093d00  ....../.......=.
 0984 001bb700 14309fe5 512fa0e3 a82183e5  .....0..Q/...!..
 0994 08309fe5 0528a0e3 ac2183e5 1eff2fe1  .0...(...!..../.
 09a4 00c01fe0 10d04de2 0030a0e3 0c308de5  ......M..0...0..
 09b4 370000ea 0030a0e3 04308de5 0030a0e3  7....0...0...0..
 09c4 08308de5 220000ea 00119fe5 0c209de5  .0.."........ ..
 09d4 0230a0e1 8331a0e1 023083e0 8330a0e1  .0...1...0...0..
 09e4 08209de5 022083e0 0530a0e3 8220a0e1  . ... ...0... ..
 09f4 022081e0 033082e0 0030d3e5 0310a0e1  . ...0...0......
 0a04 c8009fe5 0c209de5 0230a0e1 8331a0e1  ..... ...0...1..
 0a14 023083e0 8330a0e1 08209de5 022083e0  .0...0... ... ..
 0a24 0430a0e3 8220a0e1 022080e0 033082e0  .0... ... ...0..
 0a34 0030d3e5 8330a0e1 1133a0e1 04209de5  .0...0...3... ..
 0a44 033082e1 04308de5 08309de5 013083e2  .0...0...0...0..
 0a54 08308de5 08309de5 0f0053e3 d9ffff9a  .0...0....S.....
 0a64 68109fe5 0c209de5 0230a0e1 8331a0e1  h.... ...0...1..
 0a74 023083e0 0331a0e1 033081e0 003093e5  .0...1...0...0..
 0a84 04209de5 002083e5 0c309de5 013083e2  . ... ...0...0..
 0a94 0c308de5 34109fe5 0c209de5 0230a0e1  .0..4.... ...0..
 0aa4 8331a0e1 023083e0 0331a0e1 033081e0  .1...0...1...0..
 0ab4 003093e5 000053e3 bdffff1a 10309fe5  .0....S......0..
 0ac4 0020a0e3 002083e5 10d08de2 1eff2fe1  . ... ......../.
 0ad4 00020040 28c002e0 08402de9 b0ffffeb  ...@(....@-.....
 0ae4 64309fe5 60209fe5 a02192e5 012082e3  d0..` ...!... ..
 0af4 a02183e5 54209fe5 50309fe5 003093e5  .!..T ..P0...0..
 0b04 813983e3 023a83e3 003082e5 40309fe5  .9...:...0..@0..
 0b14 3c209fe5 002092e5 012382e3 002083e5  < ... ...#... ..
 0b24 30309fe5 0226a0e3 002083e5 28309fe5  00...&... ..(0..
 0b34 0129a0e3 002083e5 1c309fe5 022aa0e3  .)... ...0...*..
 0b44 002083e5 0840bde8 1eff2fe1 00c01fe0  . ...@..../.....
 0b54 00c0ff3f 20c0ff3f 1cc0ff3f 18c0ff3f  ...? ..?...?...?
 0b64 04e02de5 24d04de2 0c008de5 04308de5  ..-.$.M......0..
 0b74 0130a0e1 0b30cde5 0230a0e1 0a30cde5  .0...0...0...0..
 0b84 60319fe5 a83193e5 2333a0e1 ff3003e2  `1...1..#3...0..
 0b94 033003e2 1f30cde5 1f30dde5 000053e3  .0...0...0....S.
 0ba4 1000000a 1f30dde5 010053e3 0b00000a  .....0....S.....
 0bb4 1f30dde5 020053e3 0600000a 1f30dde5  .0....S......0..
 0bc4 030053e3 0100001a 0830a0e3 060000ea  ..S......0......
 0bd4 0030a0e3 040000ea 0230a0e3 020000ea  .0.......0......
 0be4 0130a0e3 000000ea 0430a0e3 1e30cde5  .0.......0...0..
 0bf4 1e30dde5 000053e3 0000001a 360000ea  .0....S.....6...
 0c04 1e30dde5 04009de5 0310a0e1 f40300eb  .0..............
 0c14 0030a0e1 0320a0e1 0c309de5 0332a0e1  .0... ...0...2..
 0c24 0200a0e1 0310a0e1 ed0300eb 0030a0e1  .............0..
 0c34 8330a0e1 18308de5 18309de5 013003e2  .0...0...0...0..
 0c44 000053e3 0030a003 0130a013 ff3003e2  ..S..0...0...0..
 0c54 1730cde5 18309de5 a330a0e1 18308de5  .0...0...0...0..
 0c64 84309fe5 0020a0e3 3020c3e5 78309fe5  .0... ..0 ..x0..
 0c74 7f20e0e3 0c20c3e5 6c309fe5 18209de5  . ... ..l0... ..
 0c84 ff1002e2 1720dde5 022081e0 ff2002e2  ..... ... ... ..
 0c94 0020c3e5 50309fe5 18209de5 2224a0e1  . ..P0... .."$..
 0ca4 ff2002e2 0420c3e5 3c309fe5 0b20dde5  . ... ..<0... ..
 0cb4 7f2002e2 ff2002e2 0c20c3e5 28309fe5  . ... ... ..(0..
 0cc4 0a20dde5 062082e3 ff2002e2 0820c3e5  . ... ... ... ..
 0cd4 14309fe5 7f20e0e3 3020c3e5 24d08de2  .0... ..0 ..$...
 0ce4 04e09de4 1eff2fe1 00c01fe0 00c000e0  ....../.........
 0cf4 a0319fe5 0020e0e3 002083e5 ff30e0e3  .1... ... ...0..
 0d04 0020a0e3 002083e5 8c319fe5 0020a0e3  . ... ...1... ..
 0d14 002083e5 84319fe5 84219fe5 002083e5  . ...1...!... ..
 0d24 80319fe5 80219fe5 002083e5 7c319fe5  .1...!... ..|1..
 0d34 7c219fe5 002083e5 78319fe5 78219fe5  |!... ..x1..x!..
 0d44 002083e5 74319fe5 74219fe5 002083e5  . ..t1..t!... ..
 0d54 70319fe5 70219fe5 002083e5 6c319fe5  p1..p!... ..l1..
 0d64 6c219fe5 002083e5 68319fe5 68219fe5  l!... ..h1..h!..
 0d74 002083e5 64319fe5 64219fe5 002083e5  . ..d1..d!... ..
 0d84 60319fe5 60219fe5 002083e5 5c319fe5  `1..`!... ..\1..
 0d94 5c219fe5 002083e5 58319fe5 58219fe5  \!... ..X1..X!..
 0da4 002083e5 54319fe5 54219fe5 002083e5  . ..T1..T!... ..
 0db4 50319fe5 50219fe5 002083e5 4c319fe5  P1..P!... ..L1..
 0dc4 4c219fe5 002083e5 48319fe5 48219fe5  L!... ..H1..H!..
 0dd4 002083e5 44319fe5 44219fe5 002083e5  . ..D1..D!... ..
 0de4 40319fe5 40219fe5 002083e5 3c319fe5  @1..@!... ..<1..
 0df4 3c219fe5 002083e5 38319fe5 38219fe5  <!... ..81..8!..
 0e04 002083e5 34319fe5 34219fe5 002083e5  . ..41..4!... ..
 0e14 30319fe5 30219fe5 002083e5 2c319fe5  01..0!... ..,1..
 0e24 2c219fe5 002083e5 28319fe5 28219fe5  ,!... ..(1..(!..
 0e34 002083e5 24319fe5 24219fe5 002083e5  . ..$1..$!... ..
 0e44 20319fe5 20219fe5 002083e5 1c319fe5   1.. !... ...1..
 0e54 1c219fe5 002083e5 18319fe5 18219fe5  .!... ...1...!..
 0e64 002083e5 14319fe5 14219fe5 002083e5  . ...1...!... ..
 0e74 10319fe5 10219fe5 002083e5 0c319fe5  .1...!... ...1..
 0e84 0c219fe5 002083e5 08319fe5 08219fe5  .!... ...1...!..
 0e94 002083e5 1eff2fe1 14f0ffff 20f0ffff  . ..../..... ...
 0ea4 00f1ffff a80f0000 04f1ffff c80f0000  ................
 0eb4 08f1ffff e80f0000 0cf1ffff 08100000  ................
 0ec4 10f1ffff 28100000 14f1ffff 48100000  ....(.......H...
 0ed4 18f1ffff 68100000 1cf1ffff 88100000  ....h...........
 0ee4 20f1ffff a8100000 24f1ffff c8100000   .......$.......
 0ef4 28f1ffff e8100000 2cf1ffff 08110000  (.......,.......
 0f04 30f1ffff 28110000 34f1ffff 48110000  0...(...4...H...
 0f14 38f1ffff 68110000 3cf1ffff 88110000  8...h...<.......
 0f24 40f1ffff a8110000 44f1ffff c8110000  @.......D.......
 0f34 48f1ffff e8110000 4cf1ffff 08120000  H.......L.......
 0f44 50f1ffff 28120000 54f1ffff 48120000  P...(...T...H...
 0f54 58f1ffff 68120000 5cf1ffff 88120000  X...h...\.......
 0f64 60f1ffff a8120000 64f1ffff c8120000  `.......d.......
 0f74 68f1ffff e8120000 6cf1ffff 08130000  h.......l.......
 0f84 70f1ffff 28130000 74f1ffff 48130000  p...(...t...H...
 0f94 78f1ffff 68130000 7cf1ffff 88130000  x...h...|.......
 0fa4 feffffea 08402de9 10309fe5 0020a0e3  .....@-..0... ..
 0fb4 002083e5 f9ffffeb 0840bde8 1eff2fe1  . .......@..../.
 0fc4 a00b0040 08402de9 10309fe5 0120a0e3  ...@.@-..0... ..
 0fd4 002083e5 f1ffffeb 0840bde8 1eff2fe1  . .......@..../.
 0fe4 a00b0040 08402de9 10309fe5 0220a0e3  ...@.@-..0... ..
 0ff4 002083e5 e9ffffeb 0840bde8 1eff2fe1  . .......@..../.
 1004 a00b0040 08402de9 10309fe5 0320a0e3  ...@.@-..0... ..
 1014 002083e5 e1ffffeb 0840bde8 1eff2fe1  . .......@..../.
 1024 a00b0040 08402de9 10309fe5 0420a0e3  ...@.@-..0... ..
 1034 002083e5 d9ffffeb 0840bde8 1eff2fe1  . .......@..../.
 1044 a00b0040 08402de9 10309fe5 0520a0e3  ...@.@-..0... ..
 1054 002083e5 d1ffffeb 0840bde8 1eff2fe1  . .......@..../.
 1064 a00b0040 08402de9 10309fe5 0620a0e3  ...@.@-..0... ..
 1074 002083e5 c9ffffeb 0840bde8 1eff2fe1  . .......@..../.
 1084 a00b0040 08402de9 10309fe5 0720a0e3  ...@.@-..0... ..
 1094 002083e5 c1ffffeb 0840bde8 1eff2fe1  . .......@..../.
 10a4 a00b0040 08402de9 10309fe5 0820a0e3  ...@.@-..0... ..
 10b4 002083e5 b9ffffeb 0840bde8 1eff2fe1  . .......@..../.
 10c4 a00b0040 08402de9 10309fe5 0920a0e3  ...@.@-..0... ..
 10d4 002083e5 b1ffffeb 0840bde8 1eff2fe1  . .......@..../.
 10e4 a00b0040 08402de9 10309fe5 0a20a0e3  ...@.@-..0... ..
 10f4 002083e5 a9ffffeb 0840bde8 1eff2fe1  . .......@..../.
 1104 a00b0040 08402de9 10309fe5 0b20a0e3  ...@.@-..0... ..
 1114 002083e5 a1ffffeb 0840bde8 1eff2fe1  . .......@..../.
 1124 a00b0040 08402de9 10309fe5 0c20a0e3  ...@.@-..0... ..
 1134 002083e5 99ffffeb 0840bde8 1eff2fe1  . .......@..../.
 1144 a00b0040 08402de9 10309fe5 0d20a0e3  ...@.@-..0... ..
 1154 002083e5 91ffffeb 0840bde8 1eff2fe1  . .......@..../.
 1164 a00b0040 08402de9 10309fe5 0e20a0e3  ...@.@-..0... ..
 1174 002083e5 89ffffeb 0840bde8 1eff2fe1  . .......@..../.
 1184 a00b0040 08402de9 10309fe5 0f20a0e3  ...@.@-..0... ..
 1194 002083e5 81ffffeb 0840bde8 1eff2fe1  . .......@..../.
 11a4 a00b0040 08402de9 10309fe5 1020a0e3  ...@.@-..0... ..
 11b4 002083e5 79ffffeb 0840bde8 1eff2fe1  . ..y....@..../.
 11c4 a00b0040 08402de9 10309fe5 1120a0e3  ...@.@-..0... ..
 11d4 002083e5 71ffffeb 0840bde8 1eff2fe1  . ..q....@..../.
 11e4 a00b0040 08402de9 10309fe5 1220a0e3  ...@.@-..0... ..
 11f4 002083e5 69ffffeb 0840bde8 1eff2fe1  . ..i....@..../.
 1204 a00b0040 08402de9 10309fe5 1320a0e3  ...@.@-..0... ..
 1214 002083e5 61ffffeb 0840bde8 1eff2fe1  . ..a....@..../.
 1224 a00b0040 08402de9 10309fe5 1420a0e3  ...@.@-..0... ..
 1234 002083e5 59ffffeb 0840bde8 1eff2fe1  . ..Y....@..../.
 1244 a00b0040 08402de9 10309fe5 1520a0e3  ...@.@-..0... ..
 1254 002083e5 51ffffeb 0840bde8 1eff2fe1  . ..Q....@..../.
 1264 a00b0040 08402de9 10309fe5 1620a0e3  ...@.@-..0... ..
 1274 002083e5 49ffffeb 0840bde8 1eff2fe1  . ..I....@..../.
 1284 a00b0040 08402de9 10309fe5 1720a0e3  ...@.@-..0... ..
 1294 002083e5 41ffffeb 0840bde8 1eff2fe1  . ..A....@..../.
 12a4 a00b0040 08402de9 10309fe5 1820a0e3  ...@.@-..0... ..
 12b4 002083e5 39ffffeb 0840bde8 1eff2fe1  . ..9....@..../.
 12c4 a00b0040 08402de9 10309fe5 1920a0e3  ...@.@-..0... ..
 12d4 002083e5 31ffffeb 0840bde8 1eff2fe1  . ..1....@..../.
 12e4 a00b0040 08402de9 10309fe5 1a20a0e3  ...@.@-..0... ..
 12f4 002083e5 29ffffeb 0840bde8 1eff2fe1  . ..)....@..../.
 1304 a00b0040 08402de9 10309fe5 1b20a0e3  ...@.@-..0... ..
 1314 002083e5 21ffffeb 0840bde8 1eff2fe1  . ..!....@..../.
 1324 a00b0040 08402de9 10309fe5 1c20a0e3  ...@.@-..0... ..
 1334 002083e5 19ffffeb 0840bde8 1eff2fe1  . .......@..../.
 1344 a00b0040 08402de9 10309fe5 1d20a0e3  ...@.@-..0... ..
 1354 002083e5 11ffffeb 0840bde8 1eff2fe1  . .......@..../.
 1364 a00b0040 08402de9 10309fe5 1e20a0e3  ...@.@-..0... ..
 1374 002083e5 09ffffeb 0840bde8 1eff2fe1  . .......@..../.
 1384 a00b0040 08402de9 10309fe5 1f20a0e3  ...@.@-..0... ..
 1394 002083e5 01ffffeb 0840bde8 1eff2fe1  . .......@..../.
 13a4 a00b0040 18d04de2 04008de5 0f32a0e3  ...@..M......2..
 13b4 14308de5 2030a0e3 1330cde5 1330dde5  .0.. 0...0...0..
 13c4 043043e2 1330cde5 04209de5 14309de5  .0C..0... ...0..
 13d4 032002e0 1330dde5 3233a0e1 0c308de5  . ...0..23...0..
 13e4 14309de5 2332a0e1 14308de5 0c309de5  .0..#2...0...0..
 13f4 090053e3 0b00009a 000000ea 0000a0e1  ..S.............
 1404 60309fe5 003093e5 203003e2 000053e3  `0...0.. 0....S.
 1414 f9ffff0a 50309fe5 0c209de5 372082e2  ....P0... ..7 ..
 1424 002083e5 0a0000ea 000000ea 0000a0e1  . ..............
 1434 30309fe5 003093e5 203003e2 000053e3  00...0.. 0....S.
 1444 f9ffff0a 20309fe5 0c209de5 302082e2  .... 0... ..0 ..
 1454 002083e5 1330dde5 000053e3 d6ffff1a  . ...0....S.....
 1464 18d08de2 1eff2fe1 14c000e0 00c000e0  ....../.........
 1474 f0482de9 14b08de2 18d04de2 28000be5  .H-.......M.(...
 1484 0d00a0e1 0070a0e1 1400a0e3 1c000be5  .....p..........
 1494 1c001be5 00c0a0e1 01c04ce2 20c00be5  ..........L. ...
 14a4 0050a0e1 0060a0e3 8621a0e1 a52e82e1  .P...`...!......
 14b4 8511a0e1 0010a0e1 0020a0e3 8241a0e1  ......... ...A..
 14c4 a14e84e1 8131a0e1 073080e2 a331a0e1  .N...1...0...1..
 14d4 8331a0e1 03d04de0 0d30a0e1 003083e2  .1....M..0...0..
 14e4 24300be5 1c301be5 013043e2 24201be5  $0...0...0C.$ ..
 14f4 033082e0 18300be5 18301be5 0020a0e3  .0...0...0... ..
 1504 0020c3e5 18301be5 013043e2 18300be5  . ...0...0C..0..
 1514 28101be5 64309fe5 912383e0 a321a0e1  (...d0...#...!..
 1524 0230a0e1 0331a0e1 023083e0 8330a0e1  .0...1...0...0..
 1534 012063e0 ff3002e2 303083e2 ff2003e2  . c..0..00... ..
 1544 18301be5 0020c3e5 28201be5 2c309fe5  .0... ..( ..,0..
 1554 921383e0 a331a0e1 28300be5 28301be5  .....1..(0..(0..
 1564 000053e3 e6ffff1a 18001be5 040000eb  ..S.............
 1574 07d0a0e1 14d04be2 f048bde8 1eff2fe1  ......K..H..../.
 1584 cdcccccc 08d04de2 04008de5 04309de5  ......M......0..
 1594 000053e3 0300000a 04309de5 0030d3e5  ..S......0...0..
 15a4 000053e3 0000001a 2c0000ea 04309de5  ..S.....,....0..
 15b4 0030d3e5 0a0053e3 1700001a 000000ea  .0....S.........
 15c4 0000a0e1 9c309fe5 003093e5 203003e2  .....0...0.. 0..
 15d4 000053e3 f9ffff0a 8c209fe5 04309de5  ..S...... ...0..
 15e4 011083e2 04108de5 0030d3e5 003082e5  .........0...0..
 15f4 000000ea 0000a0e1 68309fe5 003093e5  ........h0...0..
 1604 203003e2 000053e3 f9ffff0a 58309fe5   0....S.....X0..
 1614 0d20a0e3 002083e5 0c0000ea 000000ea  . ... ..........
 1624 0000a0e1 3c309fe5 003093e5 203003e2  ....<0...0.. 0..
 1634 000053e3 f9ffff0a 2c209fe5 04309de5  ..S....., ...0..
 1644 011083e2 04108de5 0030d3e5 003082e5  .........0...0..
 1654 04309de5 0030d3e5 000053e3 d2ffff1a  .0...0....S.....
 1664 08d08de2 1eff2fe1 14c000e0 00c000e0  ....../.........
 1674 04e02de5 0cd04de2 bc309fe5 b8209fe5  ..-...M..0... ..
 1684 002092e5 1020c2e3 002083e5 ac309fe5  . ... ... ...0..
 1694 ac209fe5 002083e5 a8309fe5 1020a0e3  . ... ...0... ..
 16a4 002083e5 0100a0e3 790000eb 0030a0e1  . ......y....0..
 16b4 04308de5 04309de5 8c209fe5 9312c2e0  .0...0... ......
 16c4 c220a0e1 c33fa0e1 023063e0 00308de5  . ...?...0c..0..
 16d4 78309fe5 0220a0e3 002083e5 6c309fe5  x0... ... ..l0..
 16e4 0020a0e3 002083e5 64309fe5 0020a0e3  . ... ..d0... ..
 16f4 002083e5 5c309fe5 00209de5 002083e5  . ..\0... ... ..
 1704 54309fe5 0320a0e3 002083e5 4c309fe5  T0... ... ..L0..
 1714 0020a0e3 002083e5 44309fe5 0020a0e3  . ... ..D0... ..
 1724 002083e5 24309fe5 0120a0e3 002083e5  . ..$0... ... ..
 1734 0cd08de2 04e09de4 1eff2fe1 0cf0ffff  ........../.....
 1744 10f1ffff 6c170000 10f0ffff 67666666  ....l.......gfff
 1754 044000e0 104000e0 184000e0 144000e0  .@...@...@...@..
 1764 284000e0 3c4000e0 08309fe5 ff20a0e3  (@..<@...0... ..
 1774 002083e5 1eff2fe1 004000e0 04e02de5  . ..../..@....-.
 1784 1cd04de2 fc309fe5 0c31d3e5 ff3003e2  ..M..0...1...0..
 1794 033003e2 010053e3 0600000a 020053e3  .0....S.......S.
 17a4 0700000a 000053e3 0800001a d8309fe5  ......S......0..
 17b4 14308de5 080000ea d0309fe5 14308de5  .0.......0...0..
 17c4 050000ea 0239a0e3 14308de5 020000ea  .....9...0......
 17d4 b4309fe5 14308de5 0000a0e1 a4309fe5  .0...0.......0..
 17e4 883093e5 023403e2 000053e3 1400000a  .0...4....S.....
 17f4 90309fe5 883093e5 0339a0e1 2339a0e1  .0...0...9..#9..
 1804 013083e2 0c308de5 78309fe5 883093e5  .0...0..x0...0..
 1814 2338a0e1 0f3003e2 013083e2 08308de5  #8...0...0...0..
 1824 14009de5 08109de5 ed0000eb 0030a0e1  .............0..
 1834 0c209de5 920303e0 8330a0e1 10308de5  . .......0...0..
 1844 010000ea 14309de5 10308de5 34309fe5  .....0...0..40..
 1854 0431d3e5 ff3003e2 013083e2 04308de5  .1...0...0...0..
 1864 10009de5 04109de5 dd0000eb 0030a0e1  .............0..
 1874 00308de5 00309de5 0300a0e1 1cd08de2  .0...0..........
 1884 04e09de4 1eff2fe1 00c01fe0 00093d00  ....../.......=.
 1894 001bb700 04e02de5 14d04de2 0030a0e1  ......-...M..0..
 18a4 0730cde5 b4ffffeb 0c008de5 0730dde5  .0...........0..
 18b4 1d0053e3 03f19f97 540000ea 38190000  ..S.....T...8...
 18c4 38190000 38190000 38190000 38190000  8...8...8...8...
 18d4 38190000 38190000 38190000 38190000  8...8...8...8...
 18e4 38190000 38190000 38190000 38190000  8...8...8...8...
 18f4 38190000 38190000 38190000 a4190000  8...8...8.......
 1904 a4190000 a4190000 a4190000 141a0000  ................
 1914 a4190000 a4190000 a4190000 a4190000  ................
 1924 a4190000 a4190000 a4190000 141a0000  ................
 1934 a4190000 e8309fe5 a82193e5 0730dde5  .....0...!...0..
 1944 8330a0e1 3233a0e1 033003e2 08308de5  .0..23...0...0..
 1954 08309de5 000053e3 0200001a 0c309de5  .0....S......0..
 1964 2331a0e1 2a0000ea 08309de5 010053e3  #1..*....0....S.
 1974 0100001a 0c309de5 250000ea 08309de5  .....0..%....0..
 1984 020053e3 0200001a 0c309de5 a330a0e1  ..S......0...0..
 1994 1f0000ea 0c309de5 a331a0e1 1c0000ea  .....0...1......
 19a4 7c309fe5 ac2193e5 0730dde5 103043e2  |0...!...0...0C.
 19b4 8330a0e1 3233a0e1 033003e2 08308de5  .0..23...0...0..
 19c4 08309de5 000053e3 0200001a 0c309de5  .0....S......0..
 19d4 2331a0e1 0e0000ea 08309de5 010053e3  #1.......0....S.
 19e4 0100001a 0c309de5 090000ea 08309de5  .....0.......0..
 19f4 020053e3 0200001a 0c309de5 a330a0e1  ..S......0...0..
 1a04 030000ea 0c309de5 a331a0e1 000000ea  .....0...1......
 1a14 0030a0e3 0300a0e1 14d08de2 04e09de4  .0..............
 1a24 1eff2fe1 00c01fe0 08309fe5 0020e0e3  ../......0... ..
 1a34 002083e5 1eff2fe1 14f0ffff 08402de9  . ..../......@-.
 1a44 14309fe5 ff20a0e3 002083e5 0c009fe5  .0... ... ......
 1a54 cbfeffeb 0840bde8 1eff2fe1 004000e0  .....@..../..@..
 1a64 681d0000 04e02de5 14d04de2 04008de5  h.....-...M.....
 1a74 0030a0e3 0c308de5 04009de5 460000eb  .0...0......F...
 1a84 50009fe5 befeffeb 0c309de5 012083e2  P........0... ..
 1a94 0c208de5 0300a0e1 74feffeb 38009fe5  . ......t...8...
 1aa4 b7feffeb 0030a0e3 08308de5 020000ea  .....0...0......
 1ab4 08309de5 013083e2 08308de5 08209de5  .0...0...0... ..
 1ac4 18309fe5 030052e1 f8ffffda 04009de5  .0....R.........
 1ad4 370000eb e7ffffea 781d0000 841d0000  7.......x.......
 1ae4 0f270000 04e02de5 14d04de2 04008de5  .'....-...M.....
 1af4 0030e0e3 0c308de5 04009de5 260000eb  .0...0......&...
 1b04 50009fe5 9efeffeb 0c309de5 012043e2  P........0... C.
 1b14 0c208de5 0300a0e1 54feffeb 38009fe5  . ......T...8...
 1b24 97feffeb 0030a0e3 08308de5 020000ea  .....0...0......
 1b34 08309de5 013083e2 08308de5 08209de5  .0...0...0... ..
 1b44 18309fe5 030052e1 f8ffffda 04009de5  .0....R.........
 1b54 170000eb e7ffffea 881d0000 841d0000  ................
 1b64 0f270000 10d04de2 04008de5 0030a0e3  .'....M......0..
 1b74 0c308de5 0030a0e3 0300a0e1 10d08de2  .0...0..........
 1b84 1eff2fe1 08d04de2 04008de5 0030a0e3  ../...M......0..
 1b94 0300a0e1 08d08de2 1eff2fe1 08d04de2  ........../...M.
 1ba4 04008de5 0030a0e3 0300a0e1 08d08de2  .....0..........
 1bb4 1eff2fe1 08d04de2 04008de5 0030a0e3  ../...M......0..
 1bc4 0300a0e1 08d08de2 1eff2fe1 08d04de2  ........../...M.
 1bd4 04008de5 0030a0e3 0300a0e1 08d08de2  .....0..........
 1be4 1eff2fe1 012051e2 1eff2f01 3600003a  ../.. Q.../.6..:
 1bf4 010050e1 2200009a 020011e1 2300000a  ..P.".......#...
 1c04 0e0211e3 8111a001 0830a003 0130a013  .........0...0..
 1c14 010251e3 00005131 0112a031 0332a031  ..Q...Q1...1.2.1
 1c24 faffff3a 020151e3 00005131 8110a031  ...:..Q...Q1...1
 1c34 8330a031 faffff3a 0020a0e3 010050e1  .0.1...:. ....P.
 1c44 01004020 03208221 a10050e1 a1004020  ..@ . .!..P...@ 
 1c54 a3208221 210150e1 21014020 23218221  . .!!.P.!.@ #!.!
 1c64 a10150e1 a1014020 a3218221 000050e3  ..P...@ .!.!..P.
 1c74 2332b011 2112a011 efffff1a 0200a0e1  #2..!...........
 1c84 1eff2fe1 0100a003 0000a013 1eff2fe1  ../.........../.
 1c94 010851e3 2118a021 1020a023 0020a033  ..Q.!..!. .#. .3
 1ca4 010c51e3 2114a021 08208222 100051e3  ..Q.!..!. ."..Q.
 1cb4 2112a021 04208222 040051e3 03208282  !..!. ."..Q.. ..
 1cc4 a1208290 3002a0e1 1eff2fe1 000050e3  . ..0...../...P.
 1cd4 0000e013 070000ea 000051e3 faffff0a  ..........Q.....
 1ce4 03402de9 beffffeb 0640bde8 920003e0  .@-......@......
 1cf4 031041e0 1eff2fe1 1eff2fe1 53776974  ..A.../.../.Swit
 1d04 63680a00 556e6976 65727369 7479206f  ch..University o
 1d14 66205761 7368696e 67746f6e 202d2043  f Washington - C
 1d24 6f6e7465 78745f53 77697463 68657220  ontext_Switcher 
 1d34 54657374 20417070 6c696361 74696f6e  Test Application
 1d44 200a0000 4d61696e 20636f6d 706c6574   ...Main complet
 1d54 65642e0a 00000000 0c000100 00882a11  ed............*.
 1d64 06010000 48656c6c 6f20776f 726c6421  ....Hello world!
 1d74 0a000000 7461736b 206f6e65 3a200000  ....task one: ..
 1d84 0a000000 7461736b 2074776f 3a200000  ....task two: ..
 1d94 00000000 01000000 02000000           ............    
Contents of section .data:
 40000200 00c002e0 00000100 02010301 04000500  ................
 40000210 06000700 08000900 0a000b00 0c000d00  ................
 40000220 0e000f00 04c002e0 00000100 02000300  ................
 40000230 04000500 06000700 08000900 0a000b00  ................
 40000240 0c000d00 0e000f00 08c002e0 00000100  ................
 40000250 02000300 04000500 06000700 08000900  ................
 40000260 0a000b00 0c000d00 0e000f00 0cc002e0  ................
 40000270 00000100 02000300 04000500 06000700  ................
 40000280 08000900 0a000b00 0c000d00 0e000f00  ................
 40000290 10c002e0 00000100 02000300 04000500  ................
 400002a0 06000700 08000900 0a000b00 0c000d00  ................
 400002b0 0e000f00 14c002e0 00000100 02000300  ................
 400002c0 04000500 06000700 08000900 0a000b00  ................
 400002d0 0c000d00 0e000f00 18c002e0 00000100  ................
 400002e0 02000300 04000500 06000700 08000900  ................
 400002f0 0a000b00 0c000d00 0e000f00 1cc002e0  ................
 40000300 00000100 02000300 04000500 06000700  ................
 40000310 08000900 0a000b00 0c000d00 0e000f00  ................
 40000320 20c002e0 00000100 02000300 04000500   ...............
 40000330 06000700 08000900 0a000b00 0c000d00  ................
 40000340 0e000f00 24c002e0 00000100 02000300  ....$...........
 40000350 04000500 06000700 08000900 0a000b00  ................
 40000360 0c000d00 0e000f00 00000000 00000000  ................
 40000370 00000000 00000000 00000000 00000000  ................
 40000380 00000000 00000000 00000000           ............    
Contents of section .ARM.attributes:
 0000 412b0000 00616561 62690001 21000000  A+...aeabi..!...
 0010 0541524d 3754444d 49000602 08010901  .ARM7TDMI.......
 0020 12041401 15011703 18011a01           ............    
Contents of section .comment:
 0000 4743433a 2028474e 5520546f 6f6c7320  GCC: (GNU Tools 
 0010 666f7220 41524d20 456d6265 64646564  for ARM Embedded
 0020 2050726f 63657373 6f727329 20342e38   Processors) 4.8
 0030 2e342032 30313430 37323520 2872656c  .4 20140725 (rel
 0040 65617365 29205b41 524d2f65 6d626564  ease) [ARM/embed
 0050 6465642d 345f382d 6272616e 63682072  ded-4_8-branch r
 0060 65766973 696f6e20 32313331 34375d00  evision 213147].
Contents of section .debug_line:
 0000 8a000000 02002000 00000201 fb0e0d00  ...... .........
 0010 01010101 00000001 00000173 72630000  ...........src..
 0020 6372742e 73000100 00000005 02000000  crt.s...........
 0030 0003ca00 012f2f2f 2f2f2f2f 02160001  .....///////....
 0040 01000502 48000000 03ee0001 2f2f2f2f  ....H.......////
 0050 2f2f2f33 2f302f30 2f302f30 2f332f2f  ///3/0/0/0/0/3//
 0060 302f2f2f 332f2f30 2f2f332f 30302f2f  0///3//0//3/00//
 0070 31363131 31313103 b77f2e31 31313133  1611111....11113
 0080 2f2f030a 2e2f030f 2e020200 01016000  //.../........`.
 0090 00000200 23000000 0201fb0e 0d000101  ....#...........
 00a0 01010000 00010000 01737263 00007377  .........src..sw
 00b0 69746368 2e730001 00000000 05022401  itch.s........$.
 00c0 00000319 012f3230 31030f2e 2f32312f  ...../201.../21/
 00d0 2f323003 0e2e3032 30303031 32303036  /20...0200012006
 00e0 3030302f 312f312f 3203977f 2e020200  000/1/1/2.......
 00f0 01018700 00000200 3d000000 0201fb0e  ........=.......
 0100 0d000101 01010000 00010000 01737263  .............src
 0110 002e2f69 6e630000 6d61696e 2e630001  ../inc..main.c..
 0120 00006372 69746963 616c5f73 65637469  ..critical_secti
 0130 6f6e2e68 00020000 00000502 ac010000  on.h............
 0140 033b0168 6867bbbb bbbbbbbb bbbbbbbb  .;.hhg..........
 0150 bbbbbbbb bc2f030b 08e46767 4c846767  ...../....ggL.gg
 0160 a2676784 030d0820 2f304c85 bbbd6784  .gg.... /0L...g.
 0170 31314c00 02040184 02180001 011b0200  11L.............
 0180 00020053 00000002 01fb0e0d 00010101  ...S............
 0190 01000000 01000001 73726300 2e2f696e  ........src../in
 01a0 63000069 6e69742e 63000100 006c7063  c..init.c....lpc
 01b0 32333738 2e680002 00007069 6e732e68  2378.h....pins.h
 01c0 00020000 75617274 732e6800 02000069  ....uarts.h....i
 01d0 6e69742e 68000200 00000005 02e00400  nit.h...........
 01e0 0003d800 014c0309 824c0825 844bf330  .....L...L.%.K.0
 01f0 3103099e 682f0335 9e4ea068 676a6767  1...h/.5.N.hgjgg
 0200 6c690002 0401a1a1 030e6608 21676769  li........f.!ggi
 0210 67676c00 020401be 00020401 9fd96767  ggl...........gg
 0220 00020401 69a02f03 1266bc69 00020401  ....i./..f.i....
 0230 06660668 86082367 031a9e69 08922f86  .f.h..#g...i../.
 0240 030c4a67 84688468 846a4e67 0821bb83  ..Jg.h.h.jNg.!..
 0250 84000204 01066606 68085c4e 08222f03  ......f.h.\N."/.
 0260 1bd61303 13660310 66031e4a 334c304c  .....f..f..J3L0L
 0270 00020402 68000204 02024010 00020401  ....h.....@.....
 0280 0666066b 083d0002 04010376 66031308  .f.k.=.....vf...
 0290 3c68031e 822f0311 2ea1bda1 68686803  <h.../......hhh.
 02a0 1fd6f9bb 00020401 06660002 04036600  .........f....f.
 02b0 02040566 00020407 66000204 084a0002  ...f....f....J..
 02c0 04064a00 0204044a 00020402 4a000204  ..J....J....J...
 02d0 092e0002 04090633 683608ad d7696867  .......3h6...ihg
 02e0 d79fa1a1 6703109e 13676768 67676767  ....g....gghgggg
 02f0 67676767 67676767 67676767 67676767  gggggggggggggggg
 0300 67676767 67676767 67676767 030c0286  gggggggggggg....
 0310 01010002 04011532 2f672f69 2f672f69  .......2/g/i/g/i
 0320 2f672f69 2f672f69 2f672f69 2f672f69  /g/i/g/i/g/i/g/i
 0330 2f672f69 2f672f69 2f672f69 2f672f69  /g/i/g/i/g/i/g/i
 0340 2f672f69 2f672f69 2f672f69 2f672f69  /g/i/g/i/g/i/g/i
 0350 2f672f69 2f672f69 2f672f69 2f672f69  /g/i/g/i/g/i/g/i
 0360 2f672f69 2f672f69 2f672f69 2f672f69  /g/i/g/i/g/i/g/i
 0370 2f672f69 2f672f69 2f672f69 2f672f69  /g/i/g/i/g/i/g/i
 0380 2f672f69 2f672f69 2f672f69 2f672f69  /g/i/g/i/g/i/g/i
 0390 2f672f69 2f672f02 06000101 e1000000  /g/i/g/.........
 03a0 02003500 00000201 fb0e0d00 01010101  ..5.............
 03b0 00000001 00000173 7263002e 2f696e63  .......src../inc
 03c0 00007072 696e742e 63000100 006c7063  ..print.c....lpc
 03d0 32333738 2e680002 00000000 0502a813  2378.h..........
 03e0 0000032f 014b4b4e 67bb6768 00020402  .../.KKNg.gh....
 03f0 062e0002 04012e00 0204039e 06a20002  ................
 0400 0402062e 00020401 2e000204 039e0684  ................
 0410 6785bb4b 022a13a0 00020401 68000204  g..K.*......h...
 0420 01670002 040108ad 00020401 9f686703  .g...........hg.
 0430 1b824b00 02040206 66000204 01820632  ..K.....f......2
 0440 84000204 02062e00 0204012e 00020403  ................
 0450 9e000204 0306bb00 02040206 2e000204  ................
 0460 012e0002 04039e06 86000204 02062e00  ................
 0470 0204012e 00020403 9e06bd83 02080001  ................
 0480 01490000 00020022 00000002 01fb0e0d  .I....."........
 0490 00010101 01000000 01000001 73726300  ............src.
 04a0 0074696d 65722e63 00010000 00000502  .timer.c........
 04b0 74160000 030c014e a0676883 d8676768  t......N.gh..ggh
 04c0 67686767 6708af13 68020400 01018000  ghggg...h.......
 04d0 00000200 33000000 0201fb0e 0d000101  ....3...........
 04e0 01010000 00010000 01737263 002e2f69  .........src../i
 04f0 6e630000 6273702e 63000100 006c7063  nc..bsp.c....lpc
 0500 32333738 2e680002 00000000 05028017  2378.h..........
 0510 00000311 0103094a 083e4b31 4b314b31  .......J.>K1K1K1
 0520 4b319fbb bb08224d 9fa02f03 10d6874c  K1...."M../....L
 0530 03110244 01d76767 674b6768 030f66f3  ...D..gggKgh..f.
 0540 6767674b 67686a30 03109e13 67020400  gggKghj0....g...
 0550 01017e00 00000200 3e000000 0201fb0e  ..~.....>.......
 0560 0d000101 01010000 00010000 01737263  .............src
 0570 002e2f69 6e630000 7461736b 732e6300  ../inc..tasks.c.
 0580 01000063 72697469 63616c5f 73656374  ...critical_sect
 0590 696f6e2e 68000200 00000005 02401a00  ion.h........@..
 05a0 001a2f67 4b89674d 4b4b9f4c 00020402  ../gK.gMKK.L....
 05b0 06660002 04016606 834b8a67 4d4b4b9f  .f....f..K.gMKK.
 05c0 4c000204 02066600 02040166 06834b02  L.....f....f..K.
 05d0 08000101 6b000000 02004900 00000201  ....k.....I.....
 05e0 fb0e0d00 01010101 00000001 00000173  ...............s
 05f0 7263002e 2f696e63 00006372 69746963  rc../inc..critic
 0600 616c5f73 65637469 6f6e2e63 00010000  al_section.c....
 0610 63726974 6963616c 5f736563 74696f6e  critical_section
 0620 2e680002 00000000 0502681b 0000194b  .h........h....K
 0630 4b2f694b 2f694b2f 694b2f69 4b2f0206  K/iK/iK/iK/iK/..
 0640 000101                               ...             
Contents of section .debug_info:
 0000 4e000000 02000000 00000401 00000000  N...............
 0010 00000000 7372632f 6372742e 73002f68  ....src/crt.s./h
 0020 6f6d652f 6a756e2f 70726f6a 65637473  ome/jun/projects
 0030 2f637269 74696361 6c5f7365 6374696f  /critical_sectio
 0040 6e00474e 55204153 20322e32 332e3200  n.GNU AS 2.23.2.
 0050 01805500 00000200 12000000 04018e00  ..U.............
 0060 00002401 0000ac01 00007372 632f7377  ..$.......src/sw
 0070 69746368 2e73002f 686f6d65 2f6a756e  itch.s./home/jun
 0080 2f70726f 6a656374 732f6372 69746963  /projects/critic
 0090 616c5f73 65637469 6f6e0047 4e552041  al_section.GNU A
 00a0 5320322e 32332e32 00018070 01000002  S 2.23.2...p....
 00b0 00260000 0004018f 00000001 53000000  .&..........S...
 00c0 12000000 ac010000 e0040000 f2000000  ................
 00d0 02040741 00000003 0405696e 74000201  ...A......int...
 00e0 08810000 00020207 22010000 045e0000  ........"....^..
 00f0 00020a2c 00000005 013e0100 00013b01  ...,.....>....;.
 0100 2c000000 ac010000 7c030000 00000000  ,.......|.......
 0110 01950000 00064901 0000013b 95000000  ......I....;....
 0120 02917406 15010000 013b9b00 00000291  ..t......;......
 0130 70070b00 0000013e 95000000 02917c00  p......>......|.
 0140 08042c00 00000904 0a017700 0000015c  ..,.......w....\
 0150 017c0300 00240400 00200000 0001c500  .|...$... ......
 0160 00000b73 7000015c 2c000000 02917400  ...sp..\,.....t.
 0170 0c011001 00000179 012c0000 00240400  .......y.,...$..
 0180 00e00400 004c0000 00010d2c 000000ef  .....L.....,....
 0190 0000000e ef000000 ff000204 07620100  .............b..
 01a0 000f4f01 00000111 df000000 0105038c  ..O.............
 01b0 0300400f 35010000 0112df00 00000105  ..@.5...........
 01c0 03940700 40106373 00011f41 00000001  ....@.cs...A....
 01d0 05038c07 00400f36 00000001 212c0000  .....@.6....!,..
 01e0 00010503 9c0b0040 0f000000 0001222c  .......@......",
 01f0 00000001 0503980b 00400f58 01000001  .........@.X....
 0200 242c0000 00010503 940b0040 0f700000  $,.........@.p..
 0210 0001252c 00000001 05039007 004000c9  ..%,.........@..
 0220 21000002 001e0100 0004018f 00000001  !...............
 0230 bc060000 12000000 e0040000 a8130000  ................
 0240 7d010000 02040741 00000003 0405696e  }......A......in
 0250 740004da 09000002 01023f00 00000201  t.........?.....
 0260 08810000 0004b80d 00000202 02520000  .............R..
 0270 00020207 22010000 04a90400 00020302  ...."...........
 0280 25000000 05cb0100 00b00102 05022419  %.............$.
 0290 00000614 0e000002 07023300 00000223  ..........3....#
 02a0 00063b04 00000208 02330000 00022301  ..;......3....#.
 02b0 06450400 00020902 33000000 02230206  .E......3....#..
 02c0 4f040000 020a0233 00000002 230306e3  O......3....#...
 02d0 02000002 0b023300 00000223 04066304  ......3....#..c.
 02e0 0000020c 02330000 00022305 066d0400  .....3....#..m..
 02f0 00020d02 33000000 02230606 77040000  ....3....#..w...
 0300 020e0233 00000002 23070681 04000002  ...3....#.......
 0310 0f023300 00000223 08068b04 00000210  ..3....#........
 0320 02330000 00022309 06c60400 00021102  .3....#.........
 0330 33000000 02230a06 d0040000 02120233  3....#.........3
 0340 00000002 230b06da 04000002 13023300  ....#.........3.
 0350 00000223 0c06e404 00000214 02330000  ...#.........3..
 0360 0002230d 06ee0400 00021502 33000000  ..#.........3...
 0370 02230e06 f8040000 02160233 00000002  .#.........3....
 0380 230f0655 05000002 17023300 00000223  #..U......3....#
 0390 10065f05 00000218 02330000 00022311  .._......3....#.
 03a0 06690500 00021902 33000000 02231206  .i......3....#..
 03b0 73050000 021a0233 00000002 2313067d  s......3....#..}
 03c0 05000002 1b023300 00000223 14068705  ......3....#....
 03d0 0000021c 02330000 00022315 06910500  .....3....#.....
 03e0 00021d02 33000000 02231606 9b050000  ....3....#......
 03f0 021e0233 00000002 231706a5 05000002  ...3....#.......
 0400 1f023300 00000223 1806af05 00000220  ..3....#....... 
 0410 02330000 00022319 06d30500 00022102  .3....#.......!.
 0420 33000000 02231a06 dd050000 02220233  3....#.......".3
 0430 00000002 231b06e7 05000002 23023300  ....#.......#.3.
 0440 00000223 1c06f105 00000224 02330000  ...#.......$.3..
 0450 0002231d 06fb0500 00022502 33000000  ..#.......%.3...
 0460 02231e06 05060000 02260233 00000002  .#.......&.3....
 0470 231f06e4 06000002 27023300 00000223  #.......'.3....#
 0480 2006ee06 00000228 02330000 00022321   ......(.3....#!
 0490 06f80600 00022902 33000000 02232206  ......).3....#".
 04a0 02070000 022a0233 00000002 2323060c  .....*.3....##..
 04b0 07000002 2b023300 00000223 24061607  ....+.3....#$...
 04c0 0000022c 02330000 00022325 06200700  ...,.3....#%. ..
 04d0 00022d02 33000000 02232606 2a070000  ..-.3....#&.*...
 04e0 022e0233 00000002 23270634 07000002  ...3....#'.4....
 04f0 2f023300 00000223 28063e07 00000230  /.3....#(.>....0
 0500 02330000 00022329 065b0700 00023102  .3....#).[....1.
 0510 33000000 02232a06 65070000 02320233  3....#*.e....2.3
 0520 00000002 232b066f 07000002 33023300  ....#+.o....3.3.
 0530 00000223 2c067907 00000234 02330000  ...#,.y....4.3..
 0540 0002232d 06830700 00023502 33000000  ..#-......5.3...
 0550 02232e06 8d070000 02360233 00000002  .#.......6.3....
 0560 232f063c 08000002 37023300 00000223  #/.<....7.3....#
 0570 30064608 00000238 02330000 00022331  0.F....8.3....#1
 0580 06500800 00023902 33000000 02233206  .P....9.3....#2.
 0590 5a080000 023a0233 00000002 23330664  Z....:.3....#3.d
 05a0 08000002 3b023300 00000223 34066e08  ....;.3....#4.n.
 05b0 0000023c 02330000 00022335 06780800  ...<.3....#5.x..
 05c0 00023d02 33000000 02233606 82080000  ..=.3....#6.....
 05d0 023e0233 00000002 2337068c 08000002  .>.3....#7......
 05e0 3f023300 00000223 38069608 00000240  ?.3....#8......@
 05f0 02330000 00022339 06cf0800 00024102  .3....#9......A.
 0600 33000000 02233a06 d9080000 02420233  3....#:......B.3
 0610 00000002 233b06e3 08000002 43023300  ....#;......C.3.
 0620 00000223 3c06ed08 00000244 02330000  ...#<......D.3..
 0630 0002233d 06f70800 00024502 33000000  ..#=......E.3...
 0640 02233e06 01090000 02460233 00000002  .#>......F.3....
 0650 233f06aa 08000002 47023300 00000223  #?......G.3....#
 0660 40069409 00000248 02330000 00022341  @......H.3....#A
 0670 069e0900 00024902 33000000 02234206  ......I.3....#B.
 0680 a8090000 024a0233 00000002 234306b2  .....J.3....#C..
 0690 09000002 4b023300 00000223 4406bc09  ....K.3....#D...
 06a0 0000024c 02330000 00022345 06c60900  ...L.3....#E....
 06b0 00024d02 33000000 02234606 d0090000  ..M.3....#F.....
 06c0 024e0233 00000002 2347068d 0b000002  .N.3....#G......
 06d0 4f023300 00000223 4806e209 00000250  O.3....#H......P
 06e0 02330000 00022349 061c0a00 00025102  .3....#I......Q.
 06f0 33000000 02234a06 260a0000 02520233  3....#J.&....R.3
 0700 00000002 234b0630 0a000002 53023300  ....#K.0....S.3.
 0710 00000223 4c063a0a 00000254 02330000  ...#L.:....T.3..
 0720 0002234d 06440a00 00025502 33000000  ..#M.D....U.3...
 0730 02234e06 4e0a0000 02560233 00000002  .#N.N....V.3....
 0740 234f0615 0b000002 57023300 00000223  #O......W.3....#
 0750 50061f0b 00000258 02330000 00022351  P......X.3....#Q
 0760 06290b00 00025902 33000000 02235206  .)....Y.3....#R.
 0770 330b0000 025a0233 00000002 2353063d  3....Z.3....#S.=
 0780 0b000002 5b023300 00000223 5406470b  ....[.3....#T.G.
 0790 0000025c 02330000 00022355 06510b00  ...\.3....#U.Q..
 07a0 00025d02 33000000 02235606 5b0b0000  ..].3....#V.[...
 07b0 025e0233 00000002 23570665 0b000002  .^.3....#W.e....
 07c0 5f023300 00000223 58066f0b 00000260  _.3....#X.o....`
 07d0 02330000 00022359 06a90b00 00026102  .3....#Y......a.
 07e0 33000000 02235a06 b30b0000 02620233  3....#Z......b.3
 07f0 00000002 235b06bd 0b000002 63023300  ....#[......c.3.
 0800 00000223 5c06c70b 00000264 02330000  ...#\......d.3..
 0810 0002235d 06d10b00 00026502 33000000  ..#]......e.3...
 0820 02235e06 db0b0000 02660233 00000002  .#^......f.3....
 0830 235f0678 0c000002 67023300 00000223  #_.x....g.3....#
 0840 6006820c 00000268 02330000 00022361  `......h.3....#a
 0850 068c0c00 00026902 33000000 02236206  ......i.3....#b.
 0860 960c0000 026a0233 00000002 236306a0  .....j.3....#c..
 0870 0c000002 6b023300 00000223 6406aa0c  ....k.3....#d...
 0880 0000026c 02330000 00022365 06b40c00  ...l.3....#e....
 0890 00026d02 33000000 02236606 be0c0000  ..m.3....#f.....
 08a0 026e0233 00000002 236706c8 0c000002  .n.3....#g......
 08b0 6f023300 00000223 6806d20c 00000270  o.3....#h......p
 08c0 02330000 00022369 06040d00 00027102  .3....#i......q.
 08d0 33000000 02236a06 0e0d0000 02720233  3....#j......r.3
 08e0 00000002 236b0618 0d000002 73023300  ....#k......s.3.
 08f0 00000223 6c06220d 00000274 02330000  ...#l."....t.3..
 0900 0002236d 062c0d00 00027502 33000000  ..#m.,....u.3...
 0910 02236e06 360d0000 02760233 00000002  .#n.6....v.3....
 0920 236f0623 0e000002 77023300 00000223  #o.#....w.3....#
 0930 70062d0e 00000278 02330000 00022371  p.-....x.3....#q
 0940 06370e00 00027902 33000000 02237206  .7....y.3....#r.
 0950 410e0000 027a0233 00000002 2373064b  A....z.3....#s.K
 0960 0e000002 7b023300 00000223 7406550e  ....{.3....#t.U.
 0970 0000027c 02330000 00022375 065f0e00  ...|.3....#u._..
 0980 00027d02 33000000 02237606 690e0000  ..}.3....#v.i...
 0990 027e0233 00000002 23770673 0e000002  .~.3....#w.s....
 09a0 7f023300 00000223 78067d0e 00000280  ..3....#x.}.....
 09b0 02330000 00022379 06a50e00 00028102  .3....#y........
 09c0 33000000 02237a06 af0e0000 02820233  3....#z........3
 09d0 00000002 237b06b9 0e000002 83023300  ....#{........3.
 09e0 00000223 7c06c30e 00000284 02330000  ...#|........3..
 09f0 0002237d 06cd0e00 00028502 33000000  ..#}........3...
 0a00 02237e06 d70e0000 02860233 00000002  .#~........3....
 0a10 237f066d 03000002 87023300 00000323  #..m......3....#
 0a20 80010645 0f000002 88023300 00000323  ...E......3....#
 0a30 8101064f 0f000002 89023300 00000323  ...O......3....#
 0a40 82010659 0f000002 8a023300 00000323  ...Y......3....#
 0a50 830106e5 0b000002 8b025900 00000323  ..........Y....#
 0a60 84010690 03000002 8c025900 00000323  ..........Y....#
 0a70 880106b0 13000002 8d023300 00000323  ..........3....#
 0a80 8c0106c7 0f000002 8e023300 00000323  ..........3....#
 0a90 8d0106d1 0f000002 8f023300 00000323  ..........3....#
 0aa0 8e0106db 0f000002 90023300 00000323  ..........3....#
 0ab0 8f01063a 10000002 91023300 00000323  ...:......3....#
 0ac0 90010644 10000002 92023300 00000323  ...D......3....#
 0ad0 9101064e 10000002 93023300 00000323  ...N......3....#
 0ae0 92010658 10000002 94023300 00000323  ...X......3....#
 0af0 93010662 10000002 95023300 00000323  ...b......3....#
 0b00 9401066c 10000002 96023300 00000323  ...l......3....#
 0b10 95010676 10000002 97023300 00000323  ...v......3....#
 0b20 96010680 10000002 98023300 00000323  ..........3....#
 0b30 9701068a 10000002 99023300 00000323  ..........3....#
 0b40 98010694 10000002 9a023300 00000323  ..........3....#
 0b50 990106d0 10000002 9b023300 00000323  ..........3....#
 0b60 9a0106da 10000002 9c023300 00000323  ..........3....#
 0b70 9b0106e4 10000002 9d023300 00000323  ..........3....#
 0b80 9c0106ee 10000002 9e023300 00000323  ..........3....#
 0b90 9d0106f8 10000002 9f023300 00000323  ..........3....#
 0ba0 9e010602 11000002 a0023300 00000323  ..........3....#
 0bb0 9f010658 06000002 a1023300 00000323  ...X......3....#
 0bc0 a0010662 06000002 a2023300 00000323  ...b......3....#
 0bd0 a101066c 06000002 a3023300 00000323  ...l......3....#
 0be0 a2010676 06000002 a4023300 00000323  ...v......3....#
 0bf0 a3010680 06000002 a5023300 00000323  ..........3....#
 0c00 a401068a 06000002 a6023300 00000323  ..........3....#
 0c10 a5010694 06000002 a7023300 00000323  ..........3....#
 0c20 a601069e 06000002 a8023300 00000323  ..........3....#
 0c30 a70106a8 06000002 a9023300 00000323  ..........3....#
 0c40 a80106b2 06000002 aa023300 00000323  ..........3....#
 0c50 a9010627 04000002 ab023300 00000323  ...'......3....#
 0c60 aa010645 03000002 ac023300 00000323  ...E......3....#
 0c70 ab01064f 03000002 ad023300 00000323  ...O......3....#
 0c80 ac010659 03000002 ae023300 00000323  ...Y......3....#
 0c90 ad01069f 04000002 af023300 00000323  ..........3....#
 0ca0 ae0106b9 05000002 b0023300 00000323  ..........3....#
 0cb0 af0106ce 07000002 b1023300 00000323  ..........3....#
 0cc0 b00106d8 07000002 b2023300 00000323  ..........3....#
 0cd0 b10106e2 07000002 b3023300 00000323  ..........3....#
 0ce0 b20106ec 07000002 b4023300 00000323  ..........3....#
 0cf0 b30106f6 07000002 b5023300 00000323  ..........3....#
 0d00 b4010600 08000002 b6023300 00000323  ..........3....#
 0d10 b501060a 08000002 b7023300 00000323  ..........3....#
 0d20 b6010614 08000002 b8023300 00000323  ..........3....#
 0d30 b701061e 08000002 b9023300 00000323  ..........3....#
 0d40 b8010628 08000002 ba023300 00000323  ...(......3....#
 0d50 b90106a0 08000002 bb023300 00000323  ..........3....#
 0d60 ba0106b1 08000002 bc023300 00000323  ..........3....#
 0d70 bb0106bb 08000002 bd023300 00000323  ..........3....#
 0d80 bc0106c5 08000002 be023300 00000323  ..........3....#
 0d90 bd010615 09000002 bf023300 00000323  ..........3....#
 0da0 be01060b 09000002 c0023300 00000323  ..........3....#
 0db0 bf0106ec 0b000002 c1023300 00000323  ..........3....#
 0dc0 c001064e 09000002 c2023300 00000323  ...N......3....#
 0dd0 c1010658 09000002 c3023300 00000323  ...X......3....#
 0de0 c2010662 09000002 c4023300 00000323  ...b......3....#
 0df0 c30106c3 05000002 c5025900 00000323  ..........Y....#
 0e00 c401066c 09000002 c6023300 00000323  ...l......3....#
 0e10 c8010676 09000002 c7023300 00000323  ...v......3....#
 0e20 c901066d 0f000002 c8023300 00000323  ...m......3....#
 0e30 ca01069f 0f000002 c9023300 00000323  ..........3....#
 0e40 cb01069b 0e000002 ca023300 00000323  ..........3....#
 0e50 cc0106e6 0c000002 cb023300 00000323  ..........3....#
 0e60 cd010679 0b000002 cc023300 00000323  ...y......3....#
 0e70 ce010683 0b000002 cd023300 00000323  ..........3....#
 0e80 cf0106b1 0a000002 ce023300 00000323  ..........3....#
 0e90 d00106bb 0a000002 cf023300 00000323  ..........3....#
 0ea0 d10106c5 0a000002 d0023300 00000323  ..........3....#
 0eb0 d20106cf 0a000002 d1023300 00000323  ..........3....#
 0ec0 d30106d9 0a000002 d2023300 00000323  ..........3....#
 0ed0 d40106e3 0a000002 d3023300 00000323  ..........3....#
 0ee0 d50106ed 0a000002 d4023300 00000323  ..........3....#
 0ef0 d60106f7 0a000002 d5023300 00000323  ..........3....#
 0f00 d7010601 0b000002 d6023300 00000323  ..........3....#
 0f10 d801060b 0b000002 d7023300 00000323  ..........3....#
 0f20 d90106ec 12000002 d8023300 00000323  ..........3....#
 0f30 da010614 13000002 d9023300 00000323  ..........3....#
 0f40 db010645 02000002 da023300 00000323  ...E......3....#
 0f50 dc0106b2 10000002 db023300 00000323  ..........3....#
 0f60 dd010687 0e000002 dc023300 00000323  ..........3....#
 0f70 de010682 13000002 dd023300 00000323  ..........3....#
 0f80 df010600 0c000002 de023300 00000323  ..........3....#
 0f90 e001060a 0c000002 df023300 00000323  ..........3....#
 0fa0 e1010614 0c000002 e0023300 00000323  ..........3....#
 0fb0 e201061e 0c000002 e1023300 00000323  ..........3....#
 0fc0 e3010628 0c000002 e2023300 00000323  ...(......3....#
 0fd0 e4010632 0c000002 e3023300 00000323  ...2......3....#
 0fe0 e501063c 0c000002 e4023300 00000323  ...<......3....#
 0ff0 e6010646 0c000002 e5023300 00000323  ...F......3....#
 1000 e7010650 0c000002 e6023300 00000323  ...P......3....#
 1010 e801065a 0c000002 e7023300 00000323  ...Z......3....#
 1020 e90106f6 13000002 e8023300 00000323  ..........3....#
 1030 ea010614 14000002 e9023300 00000323  ..........3....#
 1040 eb010632 14000002 ea023300 00000323  ...2......3....#
 1050 ec010650 14000002 eb023300 00000323  ...P......3....#
 1060 ed01069e 10000002 ec023300 00000323  ..........3....#
 1070 ee01066d 14000002 ed023300 00000323  ...m......3....#
 1080 ef0106a4 0d000002 ee023300 00000323  ..........3....#
 1090 f00106ae 0d000002 ef023300 00000323  ..........3....#
 10a0 f101064d 12000002 f0023300 00000323  ...M......3....#
 10b0 f20106c1 0d000002 f1023300 00000323  ..........3....#
 10c0 f30106cb 0d000002 f2023300 00000323  ..........3....#
 10d0 f40106d5 0d000002 f3023300 00000323  ..........3....#
 10e0 f50106df 0d000002 f4023300 00000323  ..........3....#
 10f0 f60106e9 0d000002 f5023300 00000323  ..........3....#
 1100 f70106f3 0d000002 f6023300 00000323  ..........3....#
 1110 f80106fd 0d000002 f7023300 00000323  ..........3....#
 1120 f90106d8 12000002 f8023300 00000323  ..........3....#
 1130 fa0106da 03000002 f9023300 00000323  ..........3....#
 1140 fb010600 13000002 fa023300 00000323  ..........3....#
 1150 fc010613 04000002 fb023300 00000323  ..........3....#
 1160 fd010628 13000002 fc023300 00000323  ...(......3....#
 1170 fe0106bd 0f000002 fd023300 00000323  ..........3....#
 1180 ff010681 14000002 fe023300 00000323  ..........3....#
 1190 8002069f 14000002 ff023300 00000323  ..........3....#
 11a0 810206c6 10000002 00033300 00000323  ..........3....#
 11b0 8202066b 01000002 01033300 00000323  ...k......3....#
 11c0 830206c5 11000002 02033300 00000323  ..........3....#
 11d0 84020689 01000002 03033300 00000323  ..........3....#
 11e0 85020616 11000002 04033300 00000323  ..........3....#
 11f0 860206dc 0c000002 05033300 00000323  ..........3....#
 1200 870206b8 01000002 06033300 00000323  ..........3....#
 1210 8802062a 11000002 07033300 00000323  ...*......3....#
 1220 89020654 11000002 08033300 00000323  ...T......3....#
 1230 8a02065e 11000002 09033300 00000323  ...^......3....#
 1240 8b020664 0c000002 0a033300 00000323  ...d......3....#
 1250 8c020640 0d000002 0b033300 00000323  ...@......3....#
 1260 8d02064a 0d000002 0c033300 00000323  ...J......3....#
 1270 8e020654 0d000002 0d033300 00000323  ...T......3....#
 1280 8f020604 0a000002 0e033300 00000323  ..........3....#
 1290 9002063c 13000002 0f033300 00000323  ...<......3....#
 12a0 91020646 13000002 10033300 00000323  ...F......3....#
 12b0 92020650 13000002 11033300 00000323  ...P......3....#
 12c0 9302065a 13000002 12033300 00000323  ...Z......3....#
 12d0 9402066e 13000002 13033300 00000323  ...n......3....#
 12e0 95020602 05000002 14033300 00000323  ..........3....#
 12f0 96020696 13000002 15033300 00000323  ..........3....#
 1300 97020691 0e000002 16033300 00000323  ..........3....#
 1310 980206a0 13000002 17033300 00000323  ..........3....#
 1320 990206c1 13000002 18033300 00000323  ..........3....#
 1330 9a0206cb 13000002 19033300 00000323  ..........3....#
 1340 9b0206d5 13000002 1a033300 00000323  ..........3....#
 1350 9c0206e1 0e000002 1b033300 00000323  ..........3....#
 1360 9d0206eb 0e000002 1c033300 00000323  ..........3....#
 1370 9e0206f5 0e000002 1d033300 00000323  ..........3....#
 1380 9f020632 02000002 1e033300 00000323  ...2......3....#
 1390 a0020663 0f000002 1f033300 00000323  ...c......3....#
 13a0 a102064f 02000002 20033300 00000323  ...O.... .3....#
 13b0 a2020677 0f000002 21033300 00000323  ...w....!.3....#
 13c0 a3020681 0f000002 22033300 00000323  ........".3....#
 13d0 a402068b 0f000002 23033300 00000323  ........#.3....#
 13e0 a5020695 0f000002 24033300 00000323  ........$.3....#
 13f0 a6020695 02000002 25033300 00000323  ........%.3....#
 1400 a70206a9 0f000002 26033300 00000323  ........&.3....#
 1410 a80206b3 0f000002 27033300 00000323  ........'.3....#
 1420 a90206cf 02000002 28033300 00000323  ........(.3....#
 1430 aa0206d9 02000002 29033300 00000323  ........).3....#
 1440 ab020680 09000002 2a033300 00000323  ........*.3....#
 1450 ac0206e5 0f000002 2b033300 00000323  ........+.3....#
 1460 ad0206ef 0f000002 2c033300 00000323  ........,.3....#
 1470 ae0206f9 0f000002 2d033300 00000323  ........-.3....#
 1480 af02065a 14000002 2e033300 00000323  ...Z......3....#
 1490 b002061d 04000002 2f033300 00000323  ......../.3....#
 14a0 b1020631 04000002 30033300 00000323  ...1....0.3....#
 14b0 b20206fa 0c000002 31033300 00000323  ........1.3....#
 14c0 b3020659 04000002 32033300 00000323  ...Y....2.3....#
 14d0 b402067f 01000002 33033300 00000323  ........3.3....#
 14e0 b50206a4 01000002 34033300 00000323  ........4.3....#
 14f0 b6020695 04000002 35033300 00000323  ........5.3....#
 1500 b70206a8 10000002 36033300 00000323  ........6.3....#
 1510 b80206b2 04000002 37033300 00000323  ........7.3....#
 1520 b9020611 05000002 38033300 00000323  ........8.3....#
 1530 ba02061b 05000002 39033300 00000323  ........9.3....#
 1540 bb020625 05000002 3a033300 00000323  ...%....:.3....#
 1550 bc02060c 11000002 3b033300 00000323  ........;.3....#
 1560 bd02062f 05000002 3c033300 00000323  .../....<.3....#
 1570 be020620 11000002 3d033300 00000323  ... ....=.3....#
 1580 bf02060c 04000002 3e033300 00000323  ........>.3....#
 1590 c00206da 06000002 3f033300 00000323  ........?.3....#
 15a0 c10206cd 11000002 40033300 00000323  ........@.3....#
 15b0 c20206d7 11000002 41033300 00000323  ........A.3....#
 15c0 c30206ea 02000002 42034600 00000323  ........B.F....#
 15d0 c40206ea 11000002 43033300 00000323  ........C.3....#
 15e0 c60206f4 11000002 44033300 00000323  ........D.3....#
 15f0 c7020639 05000002 45033300 00000323  ...9....E.3....#
 1600 c80206fe 11000002 46033300 00000323  ........F.3....#
 1610 c9020612 12000002 47033300 00000323  ........G.3....#
 1620 ca02061c 12000002 48033300 00000323  ........H.3....#
 1630 cb02063c 0f000002 49033300 00000323  ...<....I.3....#
 1640 cc020626 12000002 4a033300 00000323  ...&....J.3....#
 1650 cd020630 12000002 4b033300 00000323  ...0....K.3....#
 1660 ce02063a 12000002 4c033300 00000323  ...:....L.3....#
 1670 cf0206e2 12000002 4d033300 00000323  ........M.3....#
 1680 d002068a 09000002 4e033300 00000323  ........N.3....#
 1690 d10206f6 12000002 4f033300 00000323  ........O.3....#
 16a0 d202066d 02000002 50033300 00000323  ...m....P.3....#
 16b0 d302060a 13000002 51033300 00000323  ........Q.3....#
 16c0 d4020677 14000002 52033300 00000323  ...w....R.3....#
 16d0 d502061e 13000002 53033300 00000323  ........S.3....#
 16e0 d60206ec 09000002 54033300 00000323  ........T.3....#
 16f0 d7020632 13000002 55033300 00000323  ...2....U.3....#
 1700 d8020675 01000002 56033300 00000323  ...u....V.3....#
 1710 d902065d 0a000002 57033300 00000323  ...]....W.3....#
 1720 da020664 13000002 58033300 00000323  ...d....X.3....#
 1730 db020667 0a000002 59033300 00000323  ...g....Y.3....#
 1740 dc020678 13000002 5a033300 00000323  ...x....Z.3....#
 1750 dd020681 0a000002 5b033300 00000323  ........[.3....#
 1760 de02068c 13000002 5c033300 00000323  ........\.3....#
 1770 df02066e 0c000002 5d033300 00000323  ...n....].3....#
 1780 e0020600 14000002 5e033300 00000323  ........^.3....#
 1790 e102060a 14000002 5f033300 00000323  ........_.3....#
 17a0 e202065e 0d000002 60033300 00000323  ...^....`.3....#
 17b0 e302061e 14000002 61033300 00000323  ........a.3....#
 17c0 e4020628 14000002 62033300 00000323  ...(....b.3....#
 17d0 e502067c 0d000002 63033300 00000323  ...|....c.3....#
 17e0 e602063c 14000002 64033300 00000323  ...<....d.3....#
 17f0 e7020646 14000002 65033300 00000323  ...F....e.3....#
 1800 e80206bc 04000002 66033300 00000323  ........f.3....#
 1810 e9020668 0d000002 67033300 00000323  ...h....g.3....#
 1820 ea020672 0d000002 68033300 00000323  ...r....h.3....#
 1830 eb02068b 14000002 69033300 00000323  ........i.3....#
 1840 ec020695 14000002 6a033300 00000323  ........j.3....#
 1850 ed020686 0d000002 6b033300 00000323  ........k.3....#
 1860 ee0206a9 14000002 6c033300 00000323  ........l.3....#
 1870 ef0206d8 01000002 6d033300 00000323  ........m.3....#
 1880 f00206e2 01000002 6e033300 00000323  ........n.3....#
 1890 f10206ec 01000002 6f033300 00000323  ........o.3....#
 18a0 f20206f6 01000002 70033300 00000323  ........p.3....#
 18b0 f3020600 02000002 71033300 00000323  ........q.3....#
 18c0 f402060a 02000002 72033300 00000323  ........r.3....#
 18d0 f5020614 02000002 73033300 00000323  ........s.3....#
 18e0 f602061e 02000002 74033300 00000323  ........t.3....#
 18f0 f7020628 02000002 75033300 00000323  ...(....u.3....#
 1900 f80206ac 02000002 76033300 00000323  ........v.3....#
 1910 f9020659 02000002 77033300 00000323  ...Y....w.3....#
 1920 fa020663 02000002 78033300 00000323  ...c....x.3....#
 1930 fb020612 10000002 79033300 00000323  ........y.3....#
 1940 fc020677 02000002 7a033300 00000323  ...w....z.3....#
 1950 fd020681 02000002 7b033300 00000323  ........{.3....#
 1960 fe02068b 02000002 7c033300 00000323  ........|.3....#
 1970 ff0206c4 07000002 7d033300 00000323  ........}.3....#
 1980 800306f2 02000002 7e033300 00000323  ........~.3....#
 1990 810306fc 02000002 7f033300 00000323  ..........3....#
 19a0 82030606 03000002 80033300 00000323  ..........3....#
 19b0 83030658 0a000002 81035900 00000323  ...X......Y....#
 19c0 840306a4 07000002 82035900 00000323  ..........Y....#
 19d0 880306ac 07000002 83035900 00000323  ..........Y....#
 19e0 8c0306bc 03000002 84033300 00000323  ..........3....#
 19f0 900306c6 03000002 85033300 00000323  ..........3....#
 1a00 910306d0 03000002 86033300 00000323  ..........3....#
 1a10 920306ec 13000002 87033300 00000323  ..........3....#
 1a20 930306e4 03000002 88033300 00000323  ..........3....#
 1a30 940306ee 03000002 89033300 00000323  ..........3....#
 1a40 950306f8 03000002 8a033300 00000323  ..........3....#
 1a50 96030602 04000002 8b033300 00000323  ..........3....#
 1a60 970306bc 10000002 8c033300 00000323  ..........3....#
 1a70 980306ae 01000002 8d033300 00000323  ..........3....#
 1a80 99030640 11000002 8e033300 00000323  ...@......3....#
 1a90 9a03064a 11000002 8f033300 00000323  ...J......3....#
 1aa0 9b0306c9 05000002 90033300 00000323  ..........3....#
 1ab0 9c030668 11000002 91033300 00000323  ...h......3....#
 1ac0 9d030679 11000002 92033300 00000323  ...y......3....#
 1ad0 9e03068c 11000002 93033300 00000323  ..........3....#
 1ae0 9f030753 43530002 94035900 00000323  ...SCS....Y....#
 1af0 a003062c 10000002 95034600 00000323  ...,......F....#
 1b00 a4030628 0f000002 96033300 00000323  ...(......3....#
 1b10 a6030632 0f000002 97033300 00000323  ...2......3....#
 1b20 a703063c 02000002 98035900 00000323  ...<......Y....#
 1b30 a8030644 12000002 99035900 00000323  ...D......Y....#
 1b40 ac030004 cc010000 029a0330 19000008  ...........0....
 1b50 65000000 0902032f 5a190000 0a641400  e....../Z....d..
 1b60 00033133 00000002 23000a48 07000003  ..13....#..H....
 1b70 32330000 00022301 000b7211 00000333  23....#...r....3
 1b80 35190000 09240335 8a190000 0a081200  5....$.5........
 1b90 00033759 00000002 23000c70 696e0003  ..7Y....#..pin..
 1ba0 388a1900 00022304 000d5a19 00009a19  8.....#...Z.....
 1bb0 00000e9a 1900000f 00020407 62010000  ............b...
 1bc0 0bc70600 00033965 1900000f 01041cd6  ......9e........
 1bd0 19000010 52425200 041d3300 00001054  ....RBR...3....T
 1be0 48520004 1e330000 0010444c 4c00041f  HR...3....DLL...
 1bf0 33000000 00090404 23fb1900 000c444c  3.......#.....DL
 1c00 4d000424 33000000 0223000a 68030000  M..$3....#..h...
 1c10 0425fb19 00000223 01000d33 0000000b  .%.....#...3....
 1c20 1a00000e 9a190000 02000f04 0422241a  ............."$.
 1c30 000011d6 19000010 49455200 04275900  ........IER..'Y.
 1c40 00000009 04042b49 1a00000c 46435200  ......+I....FCR.
 1c50 042c3300 00000223 000a9f02 0000042d  .,3....#.......-
 1c60 fb190000 02230100 0f040429 621a0000  .....#.....)b...
 1c70 10494952 00042a59 00000011 241a0000  .IIR..*Y....$...
 1c80 00124009 00003404 1b831b00 0013ac19  ..@...4.........
 1c90 00000223 000a6303 00000421 fb190000  ...#..c....!....
 1ca0 02230113 0b1a0000 02230413 491a0000  .#.......#..I...
 1cb0 0223080c 4c435200 04303300 00000223  .#..LCR..03....#
 1cc0 0c0a7403 00000431 fb190000 02230d0a  ..t....1.....#..
 1cd0 79030000 0432831b 00000223 100c4c53  y....2.....#..LS
 1ce0 52000433 33000000 0223140a 0c050000  R..33....#......
 1cf0 0434fb19 00000223 150c4d53 52000435  .4.....#..MSR..5
 1d00 33000000 0223180a 0f060000 0436fb19  3....#.......6..
 1d10 00000223 190c5343 52000437 33000000  ...#..SCR..73...
 1d20 02231c0a 14060000 0438fb19 00000223  .#.......8.....#
 1d30 1d0c4143 52000439 59000000 0223200c  ..ACR..9Y....# .
 1d40 49435200 043a3300 00000223 240a1906  ICR..:3....#$...
 1d50 0000043b fb190000 0223250c 46445200  ...;.....#%.FDR.
 1d60 043c3300 00000223 280aa403 0000043d  .<3....#(......=
 1d70 fb190000 0223290a 34110000 043e5900  .....#).4....>Y.
 1d80 00000223 2c0c5445 5200043f 33000000  ...#,.TER..?3...
 1d90 0223300a 3a110000 0440fb19 00000223  .#0.:....@.....#
 1da0 31000d33 00000093 1b00000e 9a190000  1..3............
 1db0 03000b41 09000004 419e1b00 0008621a  ...A....A.....b.
 1dc0 000012a9 0300000c 0504041c 00000a32  ...............2
 1dd0 08000005 05520000 00022300 0a290900  .....R....#..)..
 1de0 0005063f 00000002 23020ac2 01000005  ...?....#.......
 1df0 07250000 00022304 0a641200 0005083f  .%....#..d.....?
 1e00 00000002 23080aa4 02000005 093f0000  ....#........?..
 1e10 00022309 0a4e0500 00050a3f 00000002  ..#..N.....?....
 1e20 230a000b 1f090000 050ba31b 00001401  #...............
 1e30 3c060000 015801e0 0400009c 0500006c  <....X.........l
 1e40 00000001 541c0000 159f0a00 00015b04  ....T.........[.
 1e50 1c000002 9164159e 0a000001 64541c00  .....d......dT..
 1e60 00029174 15bc1300 00016625 00000002  ...t......f%....
 1e70 91700016 04041c00 00172410 000001b4  .p........$.....
 1e80 019c0500 003c0700 00980000 0001901c  .....<..........
 1e90 0000189e 0a000001 b4541c00 00029174  .........T.....t
 1ea0 15210f00 0001b625 00000002 917c0019  .!.....%.....|..
 1eb0 96110000 01100101 3c070000 cc070000  ........<.......
 1ec0 b8000000 01d81c00 001abc13 00000110  ................
 1ed0 01250000 0002917c 1a341000 00011001  .%.....|.4......
 1ee0 3f000000 02917b1a c8120000 0110013f  ?.....{........?
 1ef0 00000002 917a001b 01520700 00013901  .....z...R....9.
 1f00 01cc0700 00200800 00d80000 0001031d  ..... ..........
 1f10 00001a9e 0a000001 3901541c 00000291  ........9.T.....
 1f20 74001c01 b8130000 01430101 25000000  t........C..%...
 1f30 20080000 88090000 04010000 01aa1d00   ...............
 1f40 001d9f0d 00000145 01250000 00029174  .......E.%.....t
 1f50 1d1c1000 00014601 25000000 0291701d  ......F.%.....p.
 1f60 bb130000 01470125 00000002 915c1dff  .....G.%.....\..
 1f70 0e000001 48013f00 00000291 6f1da90a  ....H.?.....o...
 1f80 00000149 01250000 00029168 1daa1300  ...I.%.....h....
 1f90 00014a01 52000000 0291661d f10b0000  ..J.R.....f.....
 1fa0 014b013f 00000002 91651d7e 03000001  .K.?.....e.~....
 1fb0 4c013f00 00000291 641db703 0000014d  L.?.....d......M
 1fc0 013f0000 00029163 001e8311 00000190  .?.....c........
 1fd0 01018809 0000a809 0000027d 00011f01  ...........}....
 1fe0 110f0000 01d20101 a8090000 dc0a0000  ................
 1ff0 30010000 01041e00 00206e00 01d40125  0........ n....%
 2000 00000002 917c2069 0001d501 25000000  .....| i....%...
 2010 0291781d 9e110000 01d60125 00000002  ..x........%....
 2020 91740021 e1110000 010c0201 dc0a0000  .t.!............
 2030 640b0000 50010000 011b0173 12000001  d...P......s....
 2040 4c020164 0b0000f4 0c000070 01000001  L..d.......p....
 2050 ae1e0000 1ac90700 00014c02 25000000  ..........L.%...
 2060 0291641a 6e120000 014c023f 00000002  ..d.n....L.?....
 2070 91631a6d 12000001 4c023f00 00000291  .c.m....L.?.....
 2080 621abc13 0000014c 02250000 0002915c  b......L.%.....\
 2090 1dc60200 00014e02 3f000000 0291761d  ......N.?.....v.
 20a0 f70b0000 014f023f 00000002 91771d8b  .....O.?.....w..
 20b0 0a000001 50022500 00000291 701d8303  ....P.%.....p...
 20c0 00000151 023f0000 0002916f 001e1a0e  ...Q.?.....o....
 20d0 00000184 0201f40c 0000a40f 0000027d  ...............}
 20e0 00011ef0 0c000001 b50201a4 0f0000a8  ................
 20f0 0f000002 7d000121 57120000 01bc0201  ....}..!W.......
 2100 a80f0000 c80f0000 9c010000 01219803  .............!..
 2110 000001c2 0201c80f 0000e80f 0000bc01  ................
 2120 00000121 93010000 01c80201 e80f0000  ...!............
 2130 08100000 dc010000 0121b411 000001ce  .........!......
 2140 02010810 00002810 0000fc01 00000121  ......(........!
 2150 b6020000 01d40201 28100000 48100000  ........(...H...
 2160 1c020000 0121b314 000001da 02014810  .....!........H.
 2170 00006810 00003c02 00000121 1e060000  ..h...<....!....
 2180 01e00201 68100000 88100000 5c020000  ....h.......\...
 2190 01212d06 000001e6 02018810 0000a810  .!-.............
 21a0 00007c02 00000121 03100000 01ec0201  ..|....!........
 21b0 a8100000 c8100000 9c020000 0121f609  .............!..
 21c0 000001f2 0201c810 0000e810 0000bc02  ................
 21d0 00000121 38030000 01f80201 e8100000  ...!8...........
 21e0 08110000 dc020000 01211d03 000001fe  .........!......
 21f0 02010811 00002811 0000fc02 00000121  ......(........!
 2200 41050000 01040301 28110000 48110000  A.......(...H...
 2210 1c030000 01212b03 0000010a 03014811  .....!+.......H.
 2220 00006811 00003c03 00000121 8c120000  ..h...<....!....
 2230 01100301 68110000 88110000 5c030000  ....h.......\...
 2240 01219b12 00000116 03018811 0000a811  .!..............
 2250 00007c03 00000121 aa120000 011c0301  ..|....!........
 2260 a8110000 c8110000 9c030000 0121b912  .............!..
 2270 00000122 0301c811 0000e811 0000bc03  ..."............
 2280 00000121 df130000 01280301 e8110000  ...!.....(......
 2290 08120000 dc030000 0121a611 0000012e  .........!......
 22a0 03010812 00002812 0000fc03 00000121  ......(........!
 22b0 10030000 01340301 28120000 48120000  .....4..(...H...
 22c0 1c040000 0121970b 0000013a 03014812  .....!.....:..H.
 22d0 00006812 00003c04 00000121 070e0000  ..h...<....!....
 22e0 01400301 68120000 88120000 5c040000  .@..h.......\...
 22f0 0121900d 00000146 03018812 0000a812  .!.....F........
 2300 00007c04 00000121 97070000 014c0301  ..|....!.....L..
 2310 a8120000 c8120000 9c040000 0121b407  .............!..
 2320 00000152 0301c812 0000e812 0000bc04  ...R............
 2330 00000121 c3140000 01580301 e8120000  ...!.....X......
 2340 08130000 dc040000 0121d314 0000015e  .........!.....^
 2350 03010813 00002813 0000fc04 00000121  ......(........!
 2360 7d120000 01640301 28130000 48130000  }....d..(...H...
 2370 1c050000 01214906 0000016a 03014813  .....!I....j..H.
 2380 00006813 00003c05 00000121 0e0a0000  ..h...<....!....
 2390 01700301 68130000 88130000 5c050000  .p..h.......\...
 23a0 01213309 00000176 03018813 0000a813  .!3....v........
 23b0 00007c05 0000010d a1190000 a8210000  ..|..........!..
 23c0 0e9a1900 000a0022 090f0000 033f9821  .......".....?.!
 23d0 00000105 03000200 4022710a 0000012e  ........@"q.....
 23e0 25000000 010503a0 0b004000 45010000  %.........@.E...
 23f0 02003703 00000401 8f000000 01f01400  ..7.............
 2400 00120000 00a81300 00741600 009c0300  .........t......
 2410 00020407 41000000 03040569 6e740004  ....A......int..
 2420 da090000 0201023f 00000002 01088100  .......?........
 2430 00000202 07220100 0004a904 00000203  ....."..........
 2440 02250000 00020407 62010000 0501fc14  .%......b.......
 2450 0000012f 01a81300 00741400 009c0500  .../.....t......
 2460 0001b300 00000675 33320001 2f4d0000  .......u32../M..
 2470 0002916c 07281500 0001314d 00000002  ...l.(....1M....
 2480 917c071f 15000001 32330000 0002917b  .|......23.....{
 2490 07301500 0001334d 00000002 91740008  .0....3M.....t..
 24a0 01e31400 00014401 74140000 88150000  ......D.t.......
 24b0 bc050000 01030100 00067500 01444d00  ..........u..DM.
 24c0 00000291 54070515 00000146 4d000000  ....T......FM...
 24d0 02916007 38150000 01470301 00000391  ..`.8....G......
 24e0 58060970 0001481d 01000002 9164000a  X..p..H......d..
 24f0 16010000 16010000 0b590000 0003915c  .........Y.....\
 2500 06000201 088a0000 000c0416 0100000d  ................
 2510 01131500 00016c01 88150000 74160000  ......l.....t...
 2520 e8050000 01067074 7200016c 1d010000  ......ptr..l....
 2530 02917c00 008a0000 00020002 04000004  ..|.............
 2540 018f0000 00013f15 00001200 00007416  ......?.......t.
 2550 00008017 00008104 00000204 07410000  .............A..
 2560 00030405 696e7400 02010881 00000002  ....int.........
 2570 02072201 00000401 4b150000 010c0174  ..".....K......t
 2580 1600006c 17000008 06000001 78000000  ...l........x...
 2590 056a1500 00010e2c 00000002 91740561  .j.....,.....t.a
 25a0 15000001 0f2c0000 00029170 00060174  .....,.....p...t
 25b0 15000001 25016c17 00008017 0000027d  ....%.l........}
 25c0 00010003 1a000002 006d0400 0004018f  .........m......
 25d0 00000001 cb150000 12000000 80170000  ................
 25e0 401a0000 ce040000 02040741 00000003  @..........A....
 25f0 0405696e 740004da 09000002 01023f00  ..int.........?.
 2600 00000201 08810000 0004b80d 00000202  ................
 2610 02520000 00020207 22010000 04a90400  .R......".......
 2620 00020302 25000000 05cb0100 00b00102  ....%...........
 2630 05022419 00000614 0e000002 07023300  ..$...........3.
 2640 00000223 00063b04 00000208 02330000  ...#..;......3..
 2650 00022301 06450400 00020902 33000000  ..#..E......3...
 2660 02230206 4f040000 020a0233 00000002  .#..O......3....
 2670 230306e3 02000002 0b023300 00000223  #.........3....#
 2680 04066304 0000020c 02330000 00022305  ..c......3....#.
 2690 066d0400 00020d02 33000000 02230606  .m......3....#..
 26a0 77040000 020e0233 00000002 23070681  w......3....#...
 26b0 04000002 0f023300 00000223 08068b04  ......3....#....
 26c0 00000210 02330000 00022309 06c60400  .....3....#.....
 26d0 00021102 33000000 02230a06 d0040000  ....3....#......
 26e0 02120233 00000002 230b06da 04000002  ...3....#.......
 26f0 13023300 00000223 0c06e404 00000214  ..3....#........
 2700 02330000 0002230d 06ee0400 00021502  .3....#.........
 2710 33000000 02230e06 f8040000 02160233  3....#.........3
 2720 00000002 230f0655 05000002 17023300  ....#..U......3.
 2730 00000223 10065f05 00000218 02330000  ...#.._......3..
 2740 00022311 06690500 00021902 33000000  ..#..i......3...
 2750 02231206 73050000 021a0233 00000002  .#..s......3....
 2760 2313067d 05000002 1b023300 00000223  #..}......3....#
 2770 14068705 0000021c 02330000 00022315  .........3....#.
 2780 06910500 00021d02 33000000 02231606  ........3....#..
 2790 9b050000 021e0233 00000002 231706a5  .......3....#...
 27a0 05000002 1f023300 00000223 1806af05  ......3....#....
 27b0 00000220 02330000 00022319 06d30500  ... .3....#.....
 27c0 00022102 33000000 02231a06 dd050000  ..!.3....#......
 27d0 02220233 00000002 231b06e7 05000002  .".3....#.......
 27e0 23023300 00000223 1c06f105 00000224  #.3....#.......$
 27f0 02330000 0002231d 06fb0500 00022502  .3....#.......%.
 2800 33000000 02231e06 05060000 02260233  3....#.......&.3
 2810 00000002 231f06e4 06000002 27023300  ....#.......'.3.
 2820 00000223 2006ee06 00000228 02330000  ...# ......(.3..
 2830 00022321 06f80600 00022902 33000000  ..#!......).3...
 2840 02232206 02070000 022a0233 00000002  .#"......*.3....
 2850 2323060c 07000002 2b023300 00000223  ##......+.3....#
 2860 24061607 0000022c 02330000 00022325  $......,.3....#%
 2870 06200700 00022d02 33000000 02232606  . ....-.3....#&.
 2880 2a070000 022e0233 00000002 23270634  *......3....#'.4
 2890 07000002 2f023300 00000223 28063e07  ..../.3....#(.>.
 28a0 00000230 02330000 00022329 065b0700  ...0.3....#).[..
 28b0 00023102 33000000 02232a06 65070000  ..1.3....#*.e...
 28c0 02320233 00000002 232b066f 07000002  .2.3....#+.o....
 28d0 33023300 00000223 2c067907 00000234  3.3....#,.y....4
 28e0 02330000 0002232d 06830700 00023502  .3....#-......5.
 28f0 33000000 02232e06 8d070000 02360233  3....#.......6.3
 2900 00000002 232f063c 08000002 37023300  ....#/.<....7.3.
 2910 00000223 30064608 00000238 02330000  ...#0.F....8.3..
 2920 00022331 06500800 00023902 33000000  ..#1.P....9.3...
 2930 02233206 5a080000 023a0233 00000002  .#2.Z....:.3....
 2940 23330664 08000002 3b023300 00000223  #3.d....;.3....#
 2950 34066e08 0000023c 02330000 00022335  4.n....<.3....#5
 2960 06780800 00023d02 33000000 02233606  .x....=.3....#6.
 2970 82080000 023e0233 00000002 2337068c  .....>.3....#7..
 2980 08000002 3f023300 00000223 38069608  ....?.3....#8...
 2990 00000240 02330000 00022339 06cf0800  ...@.3....#9....
 29a0 00024102 33000000 02233a06 d9080000  ..A.3....#:.....
 29b0 02420233 00000002 233b06e3 08000002  .B.3....#;......
 29c0 43023300 00000223 3c06ed08 00000244  C.3....#<......D
 29d0 02330000 0002233d 06f70800 00024502  .3....#=......E.
 29e0 33000000 02233e06 01090000 02460233  3....#>......F.3
 29f0 00000002 233f06aa 08000002 47023300  ....#?......G.3.
 2a00 00000223 40069409 00000248 02330000  ...#@......H.3..
 2a10 00022341 069e0900 00024902 33000000  ..#A......I.3...
 2a20 02234206 a8090000 024a0233 00000002  .#B......J.3....
 2a30 234306b2 09000002 4b023300 00000223  #C......K.3....#
 2a40 4406bc09 0000024c 02330000 00022345  D......L.3....#E
 2a50 06c60900 00024d02 33000000 02234606  ......M.3....#F.
 2a60 d0090000 024e0233 00000002 2347068d  .....N.3....#G..
 2a70 0b000002 4f023300 00000223 4806e209  ....O.3....#H...
 2a80 00000250 02330000 00022349 061c0a00  ...P.3....#I....
 2a90 00025102 33000000 02234a06 260a0000  ..Q.3....#J.&...
 2aa0 02520233 00000002 234b0630 0a000002  .R.3....#K.0....
 2ab0 53023300 00000223 4c063a0a 00000254  S.3....#L.:....T
 2ac0 02330000 0002234d 06440a00 00025502  .3....#M.D....U.
 2ad0 33000000 02234e06 4e0a0000 02560233  3....#N.N....V.3
 2ae0 00000002 234f0615 0b000002 57023300  ....#O......W.3.
 2af0 00000223 50061f0b 00000258 02330000  ...#P......X.3..
 2b00 00022351 06290b00 00025902 33000000  ..#Q.)....Y.3...
 2b10 02235206 330b0000 025a0233 00000002  .#R.3....Z.3....
 2b20 2353063d 0b000002 5b023300 00000223  #S.=....[.3....#
 2b30 5406470b 0000025c 02330000 00022355  T.G....\.3....#U
 2b40 06510b00 00025d02 33000000 02235606  .Q....].3....#V.
 2b50 5b0b0000 025e0233 00000002 23570665  [....^.3....#W.e
 2b60 0b000002 5f023300 00000223 58066f0b  ...._.3....#X.o.
 2b70 00000260 02330000 00022359 06a90b00  ...`.3....#Y....
 2b80 00026102 33000000 02235a06 b30b0000  ..a.3....#Z.....
 2b90 02620233 00000002 235b06bd 0b000002  .b.3....#[......
 2ba0 63023300 00000223 5c06c70b 00000264  c.3....#\......d
 2bb0 02330000 0002235d 06d10b00 00026502  .3....#]......e.
 2bc0 33000000 02235e06 db0b0000 02660233  3....#^......f.3
 2bd0 00000002 235f0678 0c000002 67023300  ....#_.x....g.3.
 2be0 00000223 6006820c 00000268 02330000  ...#`......h.3..
 2bf0 00022361 068c0c00 00026902 33000000  ..#a......i.3...
 2c00 02236206 960c0000 026a0233 00000002  .#b......j.3....
 2c10 236306a0 0c000002 6b023300 00000223  #c......k.3....#
 2c20 6406aa0c 0000026c 02330000 00022365  d......l.3....#e
 2c30 06b40c00 00026d02 33000000 02236606  ......m.3....#f.
 2c40 be0c0000 026e0233 00000002 236706c8  .....n.3....#g..
 2c50 0c000002 6f023300 00000223 6806d20c  ....o.3....#h...
 2c60 00000270 02330000 00022369 06040d00  ...p.3....#i....
 2c70 00027102 33000000 02236a06 0e0d0000  ..q.3....#j.....
 2c80 02720233 00000002 236b0618 0d000002  .r.3....#k......
 2c90 73023300 00000223 6c06220d 00000274  s.3....#l."....t
 2ca0 02330000 0002236d 062c0d00 00027502  .3....#m.,....u.
 2cb0 33000000 02236e06 360d0000 02760233  3....#n.6....v.3
 2cc0 00000002 236f0623 0e000002 77023300  ....#o.#....w.3.
 2cd0 00000223 70062d0e 00000278 02330000  ...#p.-....x.3..
 2ce0 00022371 06370e00 00027902 33000000  ..#q.7....y.3...
 2cf0 02237206 410e0000 027a0233 00000002  .#r.A....z.3....
 2d00 2373064b 0e000002 7b023300 00000223  #s.K....{.3....#
 2d10 7406550e 0000027c 02330000 00022375  t.U....|.3....#u
 2d20 065f0e00 00027d02 33000000 02237606  ._....}.3....#v.
 2d30 690e0000 027e0233 00000002 23770673  i....~.3....#w.s
 2d40 0e000002 7f023300 00000223 78067d0e  ......3....#x.}.
 2d50 00000280 02330000 00022379 06a50e00  .....3....#y....
 2d60 00028102 33000000 02237a06 af0e0000  ....3....#z.....
 2d70 02820233 00000002 237b06b9 0e000002  ...3....#{......
 2d80 83023300 00000223 7c06c30e 00000284  ..3....#|.......
 2d90 02330000 0002237d 06cd0e00 00028502  .3....#}........
 2da0 33000000 02237e06 d70e0000 02860233  3....#~........3
 2db0 00000002 237f066d 03000002 87023300  ....#..m......3.
 2dc0 00000323 80010645 0f000002 88023300  ...#...E......3.
 2dd0 00000323 8101064f 0f000002 89023300  ...#...O......3.
 2de0 00000323 82010659 0f000002 8a023300  ...#...Y......3.
 2df0 00000323 830106e5 0b000002 8b025900  ...#..........Y.
 2e00 00000323 84010690 03000002 8c025900  ...#..........Y.
 2e10 00000323 880106b0 13000002 8d023300  ...#..........3.
 2e20 00000323 8c0106c7 0f000002 8e023300  ...#..........3.
 2e30 00000323 8d0106d1 0f000002 8f023300  ...#..........3.
 2e40 00000323 8e0106db 0f000002 90023300  ...#..........3.
 2e50 00000323 8f01063a 10000002 91023300  ...#...:......3.
 2e60 00000323 90010644 10000002 92023300  ...#...D......3.
 2e70 00000323 9101064e 10000002 93023300  ...#...N......3.
 2e80 00000323 92010658 10000002 94023300  ...#...X......3.
 2e90 00000323 93010662 10000002 95023300  ...#...b......3.
 2ea0 00000323 9401066c 10000002 96023300  ...#...l......3.
 2eb0 00000323 95010676 10000002 97023300  ...#...v......3.
 2ec0 00000323 96010680 10000002 98023300  ...#..........3.
 2ed0 00000323 9701068a 10000002 99023300  ...#..........3.
 2ee0 00000323 98010694 10000002 9a023300  ...#..........3.
 2ef0 00000323 990106d0 10000002 9b023300  ...#..........3.
 2f00 00000323 9a0106da 10000002 9c023300  ...#..........3.
 2f10 00000323 9b0106e4 10000002 9d023300  ...#..........3.
 2f20 00000323 9c0106ee 10000002 9e023300  ...#..........3.
 2f30 00000323 9d0106f8 10000002 9f023300  ...#..........3.
 2f40 00000323 9e010602 11000002 a0023300  ...#..........3.
 2f50 00000323 9f010658 06000002 a1023300  ...#...X......3.
 2f60 00000323 a0010662 06000002 a2023300  ...#...b......3.
 2f70 00000323 a101066c 06000002 a3023300  ...#...l......3.
 2f80 00000323 a2010676 06000002 a4023300  ...#...v......3.
 2f90 00000323 a3010680 06000002 a5023300  ...#..........3.
 2fa0 00000323 a401068a 06000002 a6023300  ...#..........3.
 2fb0 00000323 a5010694 06000002 a7023300  ...#..........3.
 2fc0 00000323 a601069e 06000002 a8023300  ...#..........3.
 2fd0 00000323 a70106a8 06000002 a9023300  ...#..........3.
 2fe0 00000323 a80106b2 06000002 aa023300  ...#..........3.
 2ff0 00000323 a9010627 04000002 ab023300  ...#...'......3.
 3000 00000323 aa010645 03000002 ac023300  ...#...E......3.
 3010 00000323 ab01064f 03000002 ad023300  ...#...O......3.
 3020 00000323 ac010659 03000002 ae023300  ...#...Y......3.
 3030 00000323 ad01069f 04000002 af023300  ...#..........3.
 3040 00000323 ae0106b9 05000002 b0023300  ...#..........3.
 3050 00000323 af0106ce 07000002 b1023300  ...#..........3.
 3060 00000323 b00106d8 07000002 b2023300  ...#..........3.
 3070 00000323 b10106e2 07000002 b3023300  ...#..........3.
 3080 00000323 b20106ec 07000002 b4023300  ...#..........3.
 3090 00000323 b30106f6 07000002 b5023300  ...#..........3.
 30a0 00000323 b4010600 08000002 b6023300  ...#..........3.
 30b0 00000323 b501060a 08000002 b7023300  ...#..........3.
 30c0 00000323 b6010614 08000002 b8023300  ...#..........3.
 30d0 00000323 b701061e 08000002 b9023300  ...#..........3.
 30e0 00000323 b8010628 08000002 ba023300  ...#...(......3.
 30f0 00000323 b90106a0 08000002 bb023300  ...#..........3.
 3100 00000323 ba0106b1 08000002 bc023300  ...#..........3.
 3110 00000323 bb0106bb 08000002 bd023300  ...#..........3.
 3120 00000323 bc0106c5 08000002 be023300  ...#..........3.
 3130 00000323 bd010615 09000002 bf023300  ...#..........3.
 3140 00000323 be01060b 09000002 c0023300  ...#..........3.
 3150 00000323 bf0106ec 0b000002 c1023300  ...#..........3.
 3160 00000323 c001064e 09000002 c2023300  ...#...N......3.
 3170 00000323 c1010658 09000002 c3023300  ...#...X......3.
 3180 00000323 c2010662 09000002 c4023300  ...#...b......3.
 3190 00000323 c30106c3 05000002 c5025900  ...#..........Y.
 31a0 00000323 c401066c 09000002 c6023300  ...#...l......3.
 31b0 00000323 c8010676 09000002 c7023300  ...#...v......3.
 31c0 00000323 c901066d 0f000002 c8023300  ...#...m......3.
 31d0 00000323 ca01069f 0f000002 c9023300  ...#..........3.
 31e0 00000323 cb01069b 0e000002 ca023300  ...#..........3.
 31f0 00000323 cc0106e6 0c000002 cb023300  ...#..........3.
 3200 00000323 cd010679 0b000002 cc023300  ...#...y......3.
 3210 00000323 ce010683 0b000002 cd023300  ...#..........3.
 3220 00000323 cf0106b1 0a000002 ce023300  ...#..........3.
 3230 00000323 d00106bb 0a000002 cf023300  ...#..........3.
 3240 00000323 d10106c5 0a000002 d0023300  ...#..........3.
 3250 00000323 d20106cf 0a000002 d1023300  ...#..........3.
 3260 00000323 d30106d9 0a000002 d2023300  ...#..........3.
 3270 00000323 d40106e3 0a000002 d3023300  ...#..........3.
 3280 00000323 d50106ed 0a000002 d4023300  ...#..........3.
 3290 00000323 d60106f7 0a000002 d5023300  ...#..........3.
 32a0 00000323 d7010601 0b000002 d6023300  ...#..........3.
 32b0 00000323 d801060b 0b000002 d7023300  ...#..........3.
 32c0 00000323 d90106ec 12000002 d8023300  ...#..........3.
 32d0 00000323 da010614 13000002 d9023300  ...#..........3.
 32e0 00000323 db010645 02000002 da023300  ...#...E......3.
 32f0 00000323 dc0106b2 10000002 db023300  ...#..........3.
 3300 00000323 dd010687 0e000002 dc023300  ...#..........3.
 3310 00000323 de010682 13000002 dd023300  ...#..........3.
 3320 00000323 df010600 0c000002 de023300  ...#..........3.
 3330 00000323 e001060a 0c000002 df023300  ...#..........3.
 3340 00000323 e1010614 0c000002 e0023300  ...#..........3.
 3350 00000323 e201061e 0c000002 e1023300  ...#..........3.
 3360 00000323 e3010628 0c000002 e2023300  ...#...(......3.
 3370 00000323 e4010632 0c000002 e3023300  ...#...2......3.
 3380 00000323 e501063c 0c000002 e4023300  ...#...<......3.
 3390 00000323 e6010646 0c000002 e5023300  ...#...F......3.
 33a0 00000323 e7010650 0c000002 e6023300  ...#...P......3.
 33b0 00000323 e801065a 0c000002 e7023300  ...#...Z......3.
 33c0 00000323 e90106f6 13000002 e8023300  ...#..........3.
 33d0 00000323 ea010614 14000002 e9023300  ...#..........3.
 33e0 00000323 eb010632 14000002 ea023300  ...#...2......3.
 33f0 00000323 ec010650 14000002 eb023300  ...#...P......3.
 3400 00000323 ed01069e 10000002 ec023300  ...#..........3.
 3410 00000323 ee01066d 14000002 ed023300  ...#...m......3.
 3420 00000323 ef0106a4 0d000002 ee023300  ...#..........3.
 3430 00000323 f00106ae 0d000002 ef023300  ...#..........3.
 3440 00000323 f101064d 12000002 f0023300  ...#...M......3.
 3450 00000323 f20106c1 0d000002 f1023300  ...#..........3.
 3460 00000323 f30106cb 0d000002 f2023300  ...#..........3.
 3470 00000323 f40106d5 0d000002 f3023300  ...#..........3.
 3480 00000323 f50106df 0d000002 f4023300  ...#..........3.
 3490 00000323 f60106e9 0d000002 f5023300  ...#..........3.
 34a0 00000323 f70106f3 0d000002 f6023300  ...#..........3.
 34b0 00000323 f80106fd 0d000002 f7023300  ...#..........3.
 34c0 00000323 f90106d8 12000002 f8023300  ...#..........3.
 34d0 00000323 fa0106da 03000002 f9023300  ...#..........3.
 34e0 00000323 fb010600 13000002 fa023300  ...#..........3.
 34f0 00000323 fc010613 04000002 fb023300  ...#..........3.
 3500 00000323 fd010628 13000002 fc023300  ...#...(......3.
 3510 00000323 fe0106bd 0f000002 fd023300  ...#..........3.
 3520 00000323 ff010681 14000002 fe023300  ...#..........3.
 3530 00000323 8002069f 14000002 ff023300  ...#..........3.
 3540 00000323 810206c6 10000002 00033300  ...#..........3.
 3550 00000323 8202066b 01000002 01033300  ...#...k......3.
 3560 00000323 830206c5 11000002 02033300  ...#..........3.
 3570 00000323 84020689 01000002 03033300  ...#..........3.
 3580 00000323 85020616 11000002 04033300  ...#..........3.
 3590 00000323 860206dc 0c000002 05033300  ...#..........3.
 35a0 00000323 870206b8 01000002 06033300  ...#..........3.
 35b0 00000323 8802062a 11000002 07033300  ...#...*......3.
 35c0 00000323 89020654 11000002 08033300  ...#...T......3.
 35d0 00000323 8a02065e 11000002 09033300  ...#...^......3.
 35e0 00000323 8b020664 0c000002 0a033300  ...#...d......3.
 35f0 00000323 8c020640 0d000002 0b033300  ...#...@......3.
 3600 00000323 8d02064a 0d000002 0c033300  ...#...J......3.
 3610 00000323 8e020654 0d000002 0d033300  ...#...T......3.
 3620 00000323 8f020604 0a000002 0e033300  ...#..........3.
 3630 00000323 9002063c 13000002 0f033300  ...#...<......3.
 3640 00000323 91020646 13000002 10033300  ...#...F......3.
 3650 00000323 92020650 13000002 11033300  ...#...P......3.
 3660 00000323 9302065a 13000002 12033300  ...#...Z......3.
 3670 00000323 9402066e 13000002 13033300  ...#...n......3.
 3680 00000323 95020602 05000002 14033300  ...#..........3.
 3690 00000323 96020696 13000002 15033300  ...#..........3.
 36a0 00000323 97020691 0e000002 16033300  ...#..........3.
 36b0 00000323 980206a0 13000002 17033300  ...#..........3.
 36c0 00000323 990206c1 13000002 18033300  ...#..........3.
 36d0 00000323 9a0206cb 13000002 19033300  ...#..........3.
 36e0 00000323 9b0206d5 13000002 1a033300  ...#..........3.
 36f0 00000323 9c0206e1 0e000002 1b033300  ...#..........3.
 3700 00000323 9d0206eb 0e000002 1c033300  ...#..........3.
 3710 00000323 9e0206f5 0e000002 1d033300  ...#..........3.
 3720 00000323 9f020632 02000002 1e033300  ...#...2......3.
 3730 00000323 a0020663 0f000002 1f033300  ...#...c......3.
 3740 00000323 a102064f 02000002 20033300  ...#...O.... .3.
 3750 00000323 a2020677 0f000002 21033300  ...#...w....!.3.
 3760 00000323 a3020681 0f000002 22033300  ...#........".3.
 3770 00000323 a402068b 0f000002 23033300  ...#........#.3.
 3780 00000323 a5020695 0f000002 24033300  ...#........$.3.
 3790 00000323 a6020695 02000002 25033300  ...#........%.3.
 37a0 00000323 a70206a9 0f000002 26033300  ...#........&.3.
 37b0 00000323 a80206b3 0f000002 27033300  ...#........'.3.
 37c0 00000323 a90206cf 02000002 28033300  ...#........(.3.
 37d0 00000323 aa0206d9 02000002 29033300  ...#........).3.
 37e0 00000323 ab020680 09000002 2a033300  ...#........*.3.
 37f0 00000323 ac0206e5 0f000002 2b033300  ...#........+.3.
 3800 00000323 ad0206ef 0f000002 2c033300  ...#........,.3.
 3810 00000323 ae0206f9 0f000002 2d033300  ...#........-.3.
 3820 00000323 af02065a 14000002 2e033300  ...#...Z......3.
 3830 00000323 b002061d 04000002 2f033300  ...#......../.3.
 3840 00000323 b1020631 04000002 30033300  ...#...1....0.3.
 3850 00000323 b20206fa 0c000002 31033300  ...#........1.3.
 3860 00000323 b3020659 04000002 32033300  ...#...Y....2.3.
 3870 00000323 b402067f 01000002 33033300  ...#........3.3.
 3880 00000323 b50206a4 01000002 34033300  ...#........4.3.
 3890 00000323 b6020695 04000002 35033300  ...#........5.3.
 38a0 00000323 b70206a8 10000002 36033300  ...#........6.3.
 38b0 00000323 b80206b2 04000002 37033300  ...#........7.3.
 38c0 00000323 b9020611 05000002 38033300  ...#........8.3.
 38d0 00000323 ba02061b 05000002 39033300  ...#........9.3.
 38e0 00000323 bb020625 05000002 3a033300  ...#...%....:.3.
 38f0 00000323 bc02060c 11000002 3b033300  ...#........;.3.
 3900 00000323 bd02062f 05000002 3c033300  ...#.../....<.3.
 3910 00000323 be020620 11000002 3d033300  ...#... ....=.3.
 3920 00000323 bf02060c 04000002 3e033300  ...#........>.3.
 3930 00000323 c00206da 06000002 3f033300  ...#........?.3.
 3940 00000323 c10206cd 11000002 40033300  ...#........@.3.
 3950 00000323 c20206d7 11000002 41033300  ...#........A.3.
 3960 00000323 c30206ea 02000002 42034600  ...#........B.F.
 3970 00000323 c40206ea 11000002 43033300  ...#........C.3.
 3980 00000323 c60206f4 11000002 44033300  ...#........D.3.
 3990 00000323 c7020639 05000002 45033300  ...#...9....E.3.
 39a0 00000323 c80206fe 11000002 46033300  ...#........F.3.
 39b0 00000323 c9020612 12000002 47033300  ...#........G.3.
 39c0 00000323 ca02061c 12000002 48033300  ...#........H.3.
 39d0 00000323 cb02063c 0f000002 49033300  ...#...<....I.3.
 39e0 00000323 cc020626 12000002 4a033300  ...#...&....J.3.
 39f0 00000323 cd020630 12000002 4b033300  ...#...0....K.3.
 3a00 00000323 ce02063a 12000002 4c033300  ...#...:....L.3.
 3a10 00000323 cf0206e2 12000002 4d033300  ...#........M.3.
 3a20 00000323 d002068a 09000002 4e033300  ...#........N.3.
 3a30 00000323 d10206f6 12000002 4f033300  ...#........O.3.
 3a40 00000323 d202066d 02000002 50033300  ...#...m....P.3.
 3a50 00000323 d302060a 13000002 51033300  ...#........Q.3.
 3a60 00000323 d4020677 14000002 52033300  ...#...w....R.3.
 3a70 00000323 d502061e 13000002 53033300  ...#........S.3.
 3a80 00000323 d60206ec 09000002 54033300  ...#........T.3.
 3a90 00000323 d7020632 13000002 55033300  ...#...2....U.3.
 3aa0 00000323 d8020675 01000002 56033300  ...#...u....V.3.
 3ab0 00000323 d902065d 0a000002 57033300  ...#...]....W.3.
 3ac0 00000323 da020664 13000002 58033300  ...#...d....X.3.
 3ad0 00000323 db020667 0a000002 59033300  ...#...g....Y.3.
 3ae0 00000323 dc020678 13000002 5a033300  ...#...x....Z.3.
 3af0 00000323 dd020681 0a000002 5b033300  ...#........[.3.
 3b00 00000323 de02068c 13000002 5c033300  ...#........\.3.
 3b10 00000323 df02066e 0c000002 5d033300  ...#...n....].3.
 3b20 00000323 e0020600 14000002 5e033300  ...#........^.3.
 3b30 00000323 e102060a 14000002 5f033300  ...#........_.3.
 3b40 00000323 e202065e 0d000002 60033300  ...#...^....`.3.
 3b50 00000323 e302061e 14000002 61033300  ...#........a.3.
 3b60 00000323 e4020628 14000002 62033300  ...#...(....b.3.
 3b70 00000323 e502067c 0d000002 63033300  ...#...|....c.3.
 3b80 00000323 e602063c 14000002 64033300  ...#...<....d.3.
 3b90 00000323 e7020646 14000002 65033300  ...#...F....e.3.
 3ba0 00000323 e80206bc 04000002 66033300  ...#........f.3.
 3bb0 00000323 e9020668 0d000002 67033300  ...#...h....g.3.
 3bc0 00000323 ea020672 0d000002 68033300  ...#...r....h.3.
 3bd0 00000323 eb02068b 14000002 69033300  ...#........i.3.
 3be0 00000323 ec020695 14000002 6a033300  ...#........j.3.
 3bf0 00000323 ed020686 0d000002 6b033300  ...#........k.3.
 3c00 00000323 ee0206a9 14000002 6c033300  ...#........l.3.
 3c10 00000323 ef0206d8 01000002 6d033300  ...#........m.3.
 3c20 00000323 f00206e2 01000002 6e033300  ...#........n.3.
 3c30 00000323 f10206ec 01000002 6f033300  ...#........o.3.
 3c40 00000323 f20206f6 01000002 70033300  ...#........p.3.
 3c50 00000323 f3020600 02000002 71033300  ...#........q.3.
 3c60 00000323 f402060a 02000002 72033300  ...#........r.3.
 3c70 00000323 f5020614 02000002 73033300  ...#........s.3.
 3c80 00000323 f602061e 02000002 74033300  ...#........t.3.
 3c90 00000323 f7020628 02000002 75033300  ...#...(....u.3.
 3ca0 00000323 f80206ac 02000002 76033300  ...#........v.3.
 3cb0 00000323 f9020659 02000002 77033300  ...#...Y....w.3.
 3cc0 00000323 fa020663 02000002 78033300  ...#...c....x.3.
 3cd0 00000323 fb020612 10000002 79033300  ...#........y.3.
 3ce0 00000323 fc020677 02000002 7a033300  ...#...w....z.3.
 3cf0 00000323 fd020681 02000002 7b033300  ...#........{.3.
 3d00 00000323 fe02068b 02000002 7c033300  ...#........|.3.
 3d10 00000323 ff0206c4 07000002 7d033300  ...#........}.3.
 3d20 00000323 800306f2 02000002 7e033300  ...#........~.3.
 3d30 00000323 810306fc 02000002 7f033300  ...#..........3.
 3d40 00000323 82030606 03000002 80033300  ...#..........3.
 3d50 00000323 83030658 0a000002 81035900  ...#...X......Y.
 3d60 00000323 840306a4 07000002 82035900  ...#..........Y.
 3d70 00000323 880306ac 07000002 83035900  ...#..........Y.
 3d80 00000323 8c0306bc 03000002 84033300  ...#..........3.
 3d90 00000323 900306c6 03000002 85033300  ...#..........3.
 3da0 00000323 910306d0 03000002 86033300  ...#..........3.
 3db0 00000323 920306ec 13000002 87033300  ...#..........3.
 3dc0 00000323 930306e4 03000002 88033300  ...#..........3.
 3dd0 00000323 940306ee 03000002 89033300  ...#..........3.
 3de0 00000323 950306f8 03000002 8a033300  ...#..........3.
 3df0 00000323 96030602 04000002 8b033300  ...#..........3.
 3e00 00000323 970306bc 10000002 8c033300  ...#..........3.
 3e10 00000323 980306ae 01000002 8d033300  ...#..........3.
 3e20 00000323 99030640 11000002 8e033300  ...#...@......3.
 3e30 00000323 9a03064a 11000002 8f033300  ...#...J......3.
 3e40 00000323 9b0306c9 05000002 90033300  ...#..........3.
 3e50 00000323 9c030668 11000002 91033300  ...#...h......3.
 3e60 00000323 9d030679 11000002 92033300  ...#...y......3.
 3e70 00000323 9e03068c 11000002 93033300  ...#..........3.
 3e80 00000323 9f030753 43530002 94035900  ...#...SCS....Y.
 3e90 00000323 a003062c 10000002 95034600  ...#...,......F.
 3ea0 00000323 a4030628 0f000002 96033300  ...#...(......3.
 3eb0 00000323 a6030632 0f000002 97033300  ...#...2......3.
 3ec0 00000323 a703063c 02000002 98035900  ...#...<......Y.
 3ed0 00000323 a8030644 12000002 99035900  ...#...D......Y.
 3ee0 00000323 ac030004 cc010000 029a0330  ...#...........0
 3ef0 19000008 65000000 09018d15 00000111  ....e...........
 3f00 01250000 00801700 00981800 00340600  .%...........4..
 3f10 0001a819 00000ac6 15000001 13250000  .............%..
 3f20 0002916c 0a881500 00011425 00000002  ...l.......%....
 3f30 91680b66 696e0001 15250000 00029174  .h.fin...%.....t
 3f40 0aba1500 00011625 00000002 91700ac7  .......%.....p..
 3f50 02000001 17250000 00029164 0a6b1500  .....%.....d.k..
 3f60 00011825 00000002 91600009 01d51500  ...%.....`......
 3f70 00014801 25000000 98180000 2c1a0000  ..H.%.......,...
 3f80 60060000 01f11900 000cab15 00000148  `..............H
 3f90 3f000000 02916f0a 6b150000 014a2500  ?.....o.k....J%.
 3fa0 00000291 740ab015 0000014b 25000000  ....t......K%...
 3fb0 02917000 0d019d15 00000195 012c1a00  ..p..........,..
 3fc0 00401a00 00027d00 0100f300 00000200  .@....}.........
 3fd0 39050000 04018f00 00000108 16000012  9...............
 3fe0 00000040 1a000068 1b000052 05000002  ...@...h...R....
 3ff0 04074100 00000304 05696e74 00020108  ..A......int....
 4000 81000000 02020722 01000004 5e000000  ......."....^...
 4010 020a2c00 00000501 e6150000 01080140  ..,............@
 4020 1a000068 1a00008c 06000001 0601fa15  ...h............
 4030 00000112 01681a00 00e81a00 00ac0600  .....h..........
 4040 0001ae00 00000763 73000112 41000000  .......cs...A...
 4050 02916c08 02160000 01142c00 00000291  ..l.......,.....
 4060 74097c1a 0000d81a 00000a69 00011b2c  t.|........i...,
 4070 00000002 91700000 0b01f215 00000125  .....p.........%
 4080 01e81a00 00681b00 00d80600 00010763  .....h.........c
 4090 73000125 41000000 02916c08 02160000  s..%A.....l.....
 40a0 01272c00 00000291 7409fc1a 0000581b  .',.....t.....X.
 40b0 00000a69 00012e2c 00000002 91700000  ...i...,.....p..
 40c0 004b0100 000200f0 05000004 018f0000  .K..............
 40d0 00013f16 00001200 0000681b 0000e81b  ..?.......h.....
 40e0 0000d405 0000025e 00000002 0a300000  .......^.....0..
 40f0 00030405 696e7400 04012916 00000107  ....int...).....
 4100 01300000 00681b00 00881b00 00040700  .0...h..........
 4110 00016300 00000563 73000107 25000000  ..c....cs...%...
 4120 02917400 04015616 0000010d 01300000  ..t...V......0..
 4130 00881b00 00a01b00 00240700 00018f00  .........$......
 4140 00000563 7300010d 25000000 02917c00  ...cs...%.....|.
 4150 04017f16 00000112 01300000 00a01b00  .........0......
 4160 00b81b00 00440700 0001bb00 00000563  .....D.........c
 4170 73000112 25000000 02917c00 04011416  s...%.....|.....
 4180 00000117 01300000 00b81b00 00d01b00  .....0..........
 4190 00640700 0001e700 00000563 73000117  .d.........cs...
 41a0 25000000 02917c00 04017a16 0000011c  %.....|...z.....
 41b0 01300000 00d01b00 00e81b00 00840700  .0..............
 41c0 00011301 00000563 7300011c 25000000  .......cs...%...
 41d0 02917c00 06941600 00010325 01000001  ..|........%....
 41e0 0503941d 00000730 00000006 6c160000  .......0....l...
 41f0 01042501 00000105 03981d00 00067116  ..%...........q.
 4200 00000105 25010000 0105039c 1d000000  ....%...........
Contents of section .debug_abbrev:
 0000 01110010 06550603 081b0825 08130500  .....U.....%....
 0010 00000111 00100611 01120103 081b0825  ...............%
 0020 08130500 00000111 01250e13 0b030e1b  .........%......
 0030 0e110112 01100600 00022400 0b0b3e0b  ..........$...>.
 0040 030e0000 0324000b 0b3e0b03 08000004  .....$...>......
 0050 1600030e 3a0b3b0b 49130000 052e013f  ....:.;.I......?
 0060 0c030e3a 0b3b0b27 0c491311 01120140  ...:.;.'.I.....@
 0070 0697420c 01130000 06050003 0e3a0b3b  ..B..........:.;
 0080 0b491302 0a000007 3400030e 3a0b3b0b  .I......4...:.;.
 0090 4913020a 0000080f 000b0b49 13000009  I..........I....
 00a0 0f000b0b 00000a2e 013f0c03 0e3a0b3b  .........?...:.;
 00b0 0b270c11 01120140 0696420c 01130000  .'.....@..B.....
 00c0 0b050003 083a0b3b 0b491302 0a00000c  .....:.;.I......
 00d0 2e003f0c 030e3a0b 3b0b270c 49131101  ..?...:.;.'.I...
 00e0 12014006 96420c00 000d0101 49130113  ..@..B......I...
 00f0 00000e21 0049132f 0b00000f 3400030e  ...!.I./....4...
 0100 3a0b3b0b 49133f0c 020a0000 10340003  :.;.I.?......4..
 0110 083a0b3b 0b49133f 0c020a00 00000111  .:.;.I.?........
 0120 01250e13 0b030e1b 0e110112 01100600  .%..............
 0130 00022400 0b0b3e0b 030e0000 0324000b  ..$...>......$..
 0140 0b3e0b03 08000004 1600030e 3a0b3b05  .>..........:.;.
 0150 49130000 05130103 0e0b053a 0b3b0501  I..........:.;..
 0160 13000006 0d00030e 3a0b3b05 4913380a  ........:.;.I.8.
 0170 0000070d 0003083a 0b3b0549 13380a00  .......:.;.I.8..
 0180 00083500 49130000 0913010b 0b3a0b3b  ..5.I........:.;
 0190 0b011300 000a0d00 030e3a0b 3b0b4913  ..........:.;.I.
 01a0 380a0000 0b160003 0e3a0b3b 0b491300  8........:.;.I..
 01b0 000c0d00 03083a0b 3b0b4913 380a0000  ......:.;.I.8...
 01c0 0d010149 13011300 000e2100 49132f0b  ...I......!.I./.
 01d0 00000f17 010b0b3a 0b3b0b01 13000010  .......:.;......
 01e0 0d000308 3a0b3b0b 49130000 110d0049  ....:.;.I......I
 01f0 13000012 1301030e 0b0b3a0b 3b0b0113  ..........:.;...
 0200 0000130d 00491338 0a000014 2e013f0c  .....I.8......?.
 0210 030e3a0b 3b0b270c 11011201 40069642  ..:.;.'.....@..B
 0220 0c011300 00153400 030e3a0b 3b0b4913  ......4...:.;.I.
 0230 020a0000 160f000b 0b491300 00172e01  .........I......
 0240 030e3a0b 3b0b270c 11011201 40069742  ..:.;.'.....@..B
 0250 0c011300 00180500 030e3a0b 3b0b4913  ..........:.;.I.
 0260 020a0000 192e0103 0e3a0b3b 05270c11  .........:.;.'..
 0270 01120140 0697420c 01130000 1a050003  ...@..B.........
 0280 0e3a0b3b 05491302 0a00001b 2e013f0c  .:.;.I........?.
 0290 030e3a0b 3b05270c 11011201 40069642  ..:.;.'.....@..B
 02a0 0c011300 001c2e01 3f0c030e 3a0b3b05  ........?...:.;.
 02b0 270c4913 11011201 40069642 0c011300  '.I.....@..B....
 02c0 001d3400 030e3a0b 3b054913 020a0000  ..4...:.;.I.....
 02d0 1e2e0003 0e3a0b3b 05270c11 01120140  .....:.;.'.....@
 02e0 0a97420c 00001f2e 013f0c03 0e3a0b3b  ..B......?...:.;
 02f0 05270c11 01120140 0697420c 01130000  .'.....@..B.....
 0300 20340003 083a0b3b 05491302 0a000021   4...:.;.I.....!
 0310 2e00030e 3a0b3b05 270c1101 12014006  ....:.;.'.....@.
 0320 96420c00 00223400 030e3a0b 3b0b4913  .B..."4...:.;.I.
 0330 3f0c020a 00000001 1101250e 130b030e  ?.........%.....
 0340 1b0e1101 12011006 00000224 000b0b3e  ...........$...>
 0350 0b030e00 00032400 0b0b3e0b 03080000  ......$...>.....
 0360 04160003 0e3a0b3b 05491300 00052e01  .....:.;.I......
 0370 3f0c030e 3a0b3b0b 270c1101 12014006  ?...:.;.'.....@.
 0380 97420c01 13000006 05000308 3a0b3b0b  .B..........:.;.
 0390 4913020a 00000734 00030e3a 0b3b0b49  I......4...:.;.I
 03a0 13020a00 00082e01 3f0c030e 3a0b3b0b  ........?...:.;.
 03b0 270c1101 12014006 96420c01 13000009  '.....@..B......
 03c0 34000308 3a0b3b0b 4913020a 00000a01  4...:.;.I.......
 03d0 01491301 1300000b 21004913 2f0a0000  .I......!.I./...
 03e0 0c0f000b 0b491300 000d2e01 3f0c030e  .....I......?...
 03f0 3a0b3b0b 270c1101 12014006 97420c00  :.;.'.....@..B..
 0400 00000111 01250e13 0b030e1b 0e110112  .....%..........
 0410 01100600 00022400 0b0b3e0b 030e0000  ......$...>.....
 0420 0324000b 0b3e0b03 08000004 2e013f0c  .$...>........?.
 0430 030e3a0b 3b0b270c 11011201 40069642  ..:.;.'.....@..B
 0440 0c011300 00053400 030e3a0b 3b0b4913  ......4...:.;.I.
 0450 020a0000 062e003f 0c030e3a 0b3b0b27  .......?...:.;.'
 0460 0c110112 01400a97 420c0000 00011101  .....@..B.......
 0470 250e130b 030e1b0e 11011201 10060000  %...............
 0480 0224000b 0b3e0b03 0e000003 24000b0b  .$...>......$...
 0490 3e0b0308 00000416 00030e3a 0b3b0549  >..........:.;.I
 04a0 13000005 1301030e 0b053a0b 3b050113  ..........:.;...
 04b0 0000060d 00030e3a 0b3b0549 13380a00  .......:.;.I.8..
 04c0 00070d00 03083a0b 3b054913 380a0000  ......:.;.I.8...
 04d0 08350049 13000009 2e013f0c 030e3a0b  .5.I......?...:.
 04e0 3b0b270c 49131101 12014006 96420c01  ;.'.I.....@..B..
 04f0 1300000a 3400030e 3a0b3b0b 4913020a  ....4...:.;.I...
 0500 00000b34 0003083a 0b3b0b49 13020a00  ...4...:.;.I....
 0510 000c0500 030e3a0b 3b0b4913 020a0000  ......:.;.I.....
 0520 0d2e003f 0c030e3a 0b3b0b27 0c110112  ...?...:.;.'....
 0530 01400a97 420c0000 00011101 250e130b  .@..B.......%...
 0540 030e1b0e 11011201 10060000 0224000b  .............$..
 0550 0b3e0b03 0e000003 24000b0b 3e0b0308  .>......$...>...
 0560 00000416 00030e3a 0b3b0b49 13000005  .......:.;.I....
 0570 2e003f0c 030e3a0b 3b0b270c 11011201  ..?...:.;.'.....
 0580 40069642 0c000006 2e013f0c 030e3a0b  @..B......?...:.
 0590 3b0b270c 11011201 40069642 0c011300  ;.'.....@..B....
 05a0 00070500 03083a0b 3b0b4913 020a0000  ......:.;.I.....
 05b0 08340003 0e3a0b3b 0b491302 0a000009  .4...:.;.I......
 05c0 0b011101 12010000 0a340003 083a0b3b  .........4...:.;
 05d0 0b491302 0a00000b 2e013f0c 030e3a0b  .I........?...:.
 05e0 3b0b270c 11011201 40069642 0c000000  ;.'.....@..B....
 05f0 01110125 0e130b03 0e1b0e11 01120110  ...%............
 0600 06000002 1600030e 3a0b3b0b 49130000  ........:.;.I...
 0610 0324000b 0b3e0b03 08000004 2e013f0c  .$...>........?.
 0620 030e3a0b 3b0b270c 49131101 12014006  ..:.;.'.I.....@.
 0630 97420c01 13000005 05000308 3a0b3b0b  .B..........:.;.
 0640 4913020a 00000634 00030e3a 0b3b0b49  I......4...:.;.I
 0650 133f0c02 0a000007 26004913 000000    .?......&.I.... 
Contents of section .debug_aranges:
 0000 24000000 02000000 00000400 00000000  $...............
 0010 00000000 48000000 48000000 dc000000  ....H...H.......
 0020 00000000 00000000 1c000000 02005200  ..............R.
 0030 00000400 00000000 24010000 88000000  ........$.......
 0040 00000000 00000000 1c000000 0200ab00  ................
 0050 00000400 00000000 ac010000 34030000  ............4...
 0060 00000000 00000000 1c000000 02001f02  ................
 0070 00000400 00000000 e0040000 c80e0000  ................
 0080 00000000 00000000 1c000000 0200ec23  ...............#
 0090 00000400 00000000 a8130000 cc020000  ................
 00a0 00000000 00000000 1c000000 02003525  ..............5%
 00b0 00000400 00000000 74160000 0c010000  ........t.......
 00c0 00000000 00000000 1c000000 0200c325  ...............%
 00d0 00000400 00000000 80170000 c0020000  ................
 00e0 00000000 00000000 1c000000 0200ca3f  ...............?
 00f0 00000400 00000000 401a0000 28010000  ........@...(...
 0100 00000000 00000000 1c000000 0200c140  ...............@
 0110 00000400 00000000 681b0000 80000000  ........h.......
 0120 00000000 00000000                    ........        
Contents of section .debug_ranges:
 0000 ffffffff 00000000 00000000 48000000  ............H...
 0010 48000000 24010000 00000000 00000000  H...$...........
Contents of section .debug_loc:
 0000 00000000 04000000 02007d00 04000000  ..........}.....
 0010 d0010000 02007d10 00000000 00000000  ......}.........
 0020 d0010000 d4010000 02007d00 d4010000  ..........}.....
 0030 d8010000 02007d04 d8010000 78020000  ......}.....x...
 0040 02007d10 00000000 00000000 78020000  ..}.........x...
 0050 7c020000 02007d00 7c020000 34030000  |.....}.|...4...
 0060 02007d08 00000000 00000000 00000000  ..}.............
 0070 04000000 02007d00 04000000 08000000  ......}.........
 0080 02007d04 08000000 bc000000 02007d20  ..}...........} 
 0090 00000000 00000000 bc000000 c0000000  ................
 00a0 02007d00 c0000000 5c020000 02007d10  ..}.....\.....}.
 00b0 00000000 00000000 5c020000 60020000  ........\...`...
 00c0 02007d00 60020000 ec020000 02007d08  ..}.`.........}.
 00d0 00000000 00000000 ec020000 f0020000  ................
 00e0 02007d00 f0020000 f4020000 02007d08  ..}...........}.
 00f0 f4020000 40030000 02007d10 00000000  ....@.....}.....
 0100 00000000 40030000 44030000 02007d00  ....@...D.....}.
 0110 44030000 48030000 02007d04 48030000  D...H.....}.H...
 0120 a8040000 02007d28 00000000 00000000  ......}(........
 0130 c8040000 cc040000 02007d00 cc040000  ..........}.....
 0140 fc050000 02007d10 00000000 00000000  ......}.........
 0150 fc050000 00060000 02007d00 00060000  ..........}.....
 0160 84060000 02007d08 00000000 00000000  ......}.........
 0170 84060000 88060000 02007d00 88060000  ..........}.....
 0180 8c060000 02007d04 8c060000 14080000  ......}.........
 0190 02007d28 00000000 00000000 c80a0000  ..}(............
 01a0 cc0a0000 02007d00 cc0a0000 e80a0000  ......}.........
 01b0 02007d08 00000000 00000000 e80a0000  ..}.............
 01c0 ec0a0000 02007d00 ec0a0000 080b0000  ......}.........
 01d0 02007d08 00000000 00000000 080b0000  ..}.............
 01e0 0c0b0000 02007d00 0c0b0000 280b0000  ......}.....(...
 01f0 02007d08 00000000 00000000 280b0000  ..}.........(...
 0200 2c0b0000 02007d00 2c0b0000 480b0000  ,.....}.,...H...
 0210 02007d08 00000000 00000000 480b0000  ..}.........H...
 0220 4c0b0000 02007d00 4c0b0000 680b0000  L.....}.L...h...
 0230 02007d08 00000000 00000000 680b0000  ..}.........h...
 0240 6c0b0000 02007d00 6c0b0000 880b0000  l.....}.l.......
 0250 02007d08 00000000 00000000 880b0000  ..}.............
 0260 8c0b0000 02007d00 8c0b0000 a80b0000  ......}.........
 0270 02007d08 00000000 00000000 a80b0000  ..}.............
 0280 ac0b0000 02007d00 ac0b0000 c80b0000  ......}.........
 0290 02007d08 00000000 00000000 c80b0000  ..}.............
 02a0 cc0b0000 02007d00 cc0b0000 e80b0000  ......}.........
 02b0 02007d08 00000000 00000000 e80b0000  ..}.............
 02c0 ec0b0000 02007d00 ec0b0000 080c0000  ......}.........
 02d0 02007d08 00000000 00000000 080c0000  ..}.............
 02e0 0c0c0000 02007d00 0c0c0000 280c0000  ......}.....(...
 02f0 02007d08 00000000 00000000 280c0000  ..}.........(...
 0300 2c0c0000 02007d00 2c0c0000 480c0000  ,.....}.,...H...
 0310 02007d08 00000000 00000000 480c0000  ..}.........H...
 0320 4c0c0000 02007d00 4c0c0000 680c0000  L.....}.L...h...
 0330 02007d08 00000000 00000000 680c0000  ..}.........h...
 0340 6c0c0000 02007d00 6c0c0000 880c0000  l.....}.l.......
 0350 02007d08 00000000 00000000 880c0000  ..}.............
 0360 8c0c0000 02007d00 8c0c0000 a80c0000  ......}.........
 0370 02007d08 00000000 00000000 a80c0000  ..}.............
 0380 ac0c0000 02007d00 ac0c0000 c80c0000  ......}.........
 0390 02007d08 00000000 00000000 c80c0000  ..}.............
 03a0 cc0c0000 02007d00 cc0c0000 e80c0000  ......}.........
 03b0 02007d08 00000000 00000000 e80c0000  ..}.............
 03c0 ec0c0000 02007d00 ec0c0000 080d0000  ......}.........
 03d0 02007d08 00000000 00000000 080d0000  ..}.............
 03e0 0c0d0000 02007d00 0c0d0000 280d0000  ......}.....(...
 03f0 02007d08 00000000 00000000 280d0000  ..}.........(...
 0400 2c0d0000 02007d00 2c0d0000 480d0000  ,.....}.,...H...
 0410 02007d08 00000000 00000000 480d0000  ..}.........H...
 0420 4c0d0000 02007d00 4c0d0000 680d0000  L.....}.L...h...
 0430 02007d08 00000000 00000000 680d0000  ..}.........h...
 0440 6c0d0000 02007d00 6c0d0000 880d0000  l.....}.l.......
 0450 02007d08 00000000 00000000 880d0000  ..}.............
 0460 8c0d0000 02007d00 8c0d0000 a80d0000  ......}.........
 0470 02007d08 00000000 00000000 a80d0000  ..}.............
 0480 ac0d0000 02007d00 ac0d0000 c80d0000  ......}.........
 0490 02007d08 00000000 00000000 c80d0000  ..}.............
 04a0 cc0d0000 02007d00 cc0d0000 e80d0000  ......}.........
 04b0 02007d08 00000000 00000000 e80d0000  ..}.............
 04c0 ec0d0000 02007d00 ec0d0000 080e0000  ......}.........
 04d0 02007d08 00000000 00000000 080e0000  ..}.............
 04e0 0c0e0000 02007d00 0c0e0000 280e0000  ......}.....(...
 04f0 02007d08 00000000 00000000 280e0000  ..}.........(...
 0500 2c0e0000 02007d00 2c0e0000 480e0000  ,.....}.,...H...
 0510 02007d08 00000000 00000000 480e0000  ..}.........H...
 0520 4c0e0000 02007d00 4c0e0000 680e0000  L.....}.L...h...
 0530 02007d08 00000000 00000000 680e0000  ..}.........h...
 0540 6c0e0000 02007d00 6c0e0000 880e0000  l.....}.l.......
 0550 02007d08 00000000 00000000 880e0000  ..}.............
 0560 8c0e0000 02007d00 8c0e0000 a80e0000  ......}.........
 0570 02007d08 00000000 00000000 a80e0000  ..}.............
 0580 ac0e0000 02007d00 ac0e0000 c80e0000  ......}.........
 0590 02007d08 00000000 00000000 00000000  ..}.............
 05a0 04000000 02007d00 04000000 cc000000  ......}.........
 05b0 02007d18 00000000 00000000 cc000000  ..}.............
 05c0 d0000000 02007d00 d0000000 d4000000  ......}.........
 05d0 02007d18 d4000000 e0010000 02007b04  ..}...........{.
 05e0 00000000 00000000 e0010000 e4010000  ................
 05f0 02007d00 e4010000 cc020000 02007d08  ..}...........}.
 0600 00000000 00000000 00000000 04000000  ................
 0610 02007d00 04000000 08000000 02007d04  ..}...........}.
 0620 08000000 f8000000 02007d10 00000000  ..........}.....
 0630 00000000 00000000 04000000 02007d00  ..............}.
 0640 04000000 08000000 02007d04 08000000  ..........}.....
 0650 18010000 02007d20 00000000 00000000  ......} ........
 0660 18010000 1c010000 02007d00 1c010000  ..........}.....
 0670 20010000 02007d04 20010000 ac020000   .....}. .......
 0680 02007d18 00000000 00000000 00000000  ..}.............
 0690 04000000 02007d00 04000000 28000000  ......}.....(...
 06a0 02007d08 00000000 00000000 28000000  ..}.........(...
 06b0 2c000000 02007d00 2c000000 30000000  ,.....}.,...0...
 06c0 02007d04 30000000 a8000000 02007d18  ..}.0.........}.
 06d0 00000000 00000000 a8000000 ac000000  ................
 06e0 02007d00 ac000000 b0000000 02007d04  ..}...........}.
 06f0 b0000000 28010000 02007d18 00000000  ....(.....}.....
 0700 00000000 00000000 04000000 02007d00  ..............}.
 0710 04000000 20000000 02007d10 00000000  .... .....}.....
 0720 00000000 20000000 24000000 02007d00  .... ...$.....}.
 0730 24000000 38000000 02007d08 00000000  $...8.....}.....
 0740 00000000 38000000 3c000000 02007d00  ....8...<.....}.
 0750 3c000000 50000000 02007d08 00000000  <...P.....}.....
 0760 00000000 50000000 54000000 02007d00  ....P...T.....}.
 0770 54000000 68000000 02007d08 00000000  T...h.....}.....
 0780 00000000 68000000 6c000000 02007d00  ....h...l.....}.
 0790 6c000000 80000000 02007d08 00000000  l.........}.....
 07a0 00000000                             ....            
Contents of section .debug_str:
 0000 73746163 6b54776f 53500073 746b7074  stackTwoSP.stkpt
 0010 72002f68 6f6d652f 6a756e2f 70726f6a  r./home/jun/proj
 0020 65637473 2f637269 74696361 6c5f7365  ects/critical_se
 0030 6374696f 6e007374 61636b4f 6e655350  ction.stackOneSP
 0040 006c6f6e 6720756e 7369676e 65642069  .long unsigned i
 0050 6e740073 72632f6d 61696e2e 63004372  nt.src/main.c.Cr
 0060 69746963 616c5365 6374696f 6e5f7400  iticalSection_t.
 0070 7461736b 49440073 63686564 756c6572  taskID.scheduler
 0080 00756e73 69676e65 64206368 61720047  .unsigned char.G
 0090 4e552043 20342e38 2e342032 30313430  NU C 4.8.4 20140
 00a0 37323520 2872656c 65617365 29205b41  725 (release) [A
 00b0 524d2f65 6d626564 6465642d 345f382d  RM/embedded-4_8-
 00c0 6272616e 63682072 65766973 696f6e20  branch revision 
 00d0 32313331 34375d20 2d6d6370 753d6172  213147] -mcpu=ar
 00e0 6d377464 6d69202d 6d61726d 202d6764  m7tdmi -marm -gd
 00f0 77617266 2d32202d 4f30202d 666f6d69  warf-2 -O0 -fomi
 0100 742d6672 616d652d 706f696e 74657200  t-frame-pointer.
 0110 6d61696e 00746173 6b5f6164 64726573  main.task_addres
 0120 73007368 6f727420 756e7369 676e6564  s.short unsigned
 0130 20696e74 00737461 636b5477 6f00696e   int.stackTwo.in
 0140 69746961 6c697a65 5f737461 636b0073  itialize_stack.s
 0150 7461636b 4f6e6500 63757272 656e7453  tackOne.currentS
 0160 50007369 7a657479 7065005f 5f706164  P.sizetype.__pad
 0170 5f313033 005f5f70 61645f31 3539005f  _103.__pad_159._
 0180 5f706164 5f313335 005f5f70 61645f31  _pad_135.__pad_1
 0190 30350056 49435f44 756d6d79 44454255  05.VIC_DummyDEBU
 01a0 47525800 5f5f7061 645f3133 36005f5f  GRX.__pad_136.__
 01b0 7061645f 31393900 55534243 4c4b4346  pad_199.USBCLKCF
 01c0 4700504c 4c5f4663 636f005f 4c504332  G.PLL_Fcco._LPC2
 01d0 3358585f 53434200 5f5f7061 645f3137  3XX_SCB.__pad_17
 01e0 30005f5f 7061645f 31373100 5f5f7061  0.__pad_171.__pa
 01f0 645f3137 32005f5f 7061645f 31373300  d_172.__pad_173.
 0200 5f5f7061 645f3137 34005f5f 7061645f  __pad_174.__pad_
 0210 31373500 5f5f7061 645f3137 36005f5f  175.__pad_176.__
 0220 7061645f 31373700 5f5f7061 645f3137  pad_177.__pad_17
 0230 38005f5f 7061645f 31323000 50434c4b  8.__pad_120.PCLK
 0240 53454c30 005f5f70 61645f30 4443005f  SEL0.__pad_0DC._
 0250 5f706164 5f313232 005f5f70 61645f31  _pad_122.__pad_1
 0260 3741005f 5f706164 5f313742 005f5f70  7A.__pad_17B.__p
 0270 61645f31 3533005f 5f706164 5f313744  ad_153.__pad_17D
 0280 005f5f70 61645f31 3745005f 5f706164  .__pad_17E.__pad
 0290 5f313746 005f5f70 61645f31 32370070  _17F.__pad_127.p
 02a0 61643200 4d414d4d 6f646500 5f5f7061  ad2.MAMMode.__pa
 02b0 645f3137 39005649 435f4475 6d6d7954  d_179.VIC_DummyT
 02c0 494d4552 30007063 6c6b5f64 6976005f  IMER0.pclk_div._
 02d0 5f706164 5f313241 005f5f70 61645f31  _pad_12A.__pad_1
 02e0 3242004d 414d5449 4d00494e 5457414b  2B.MAMTIM.INTWAK
 02f0 45005f5f 7061645f 31383100 5f5f7061  E.__pad_181.__pa
 0300 645f3138 32005f5f 7061645f 31383300  d_182.__pad_183.
 0310 5649435f 44756d6d 79424f44 00564943  VIC_DummyBOD.VIC
 0320 5f44756d 6d795353 50310056 49435f44  _DummySSP1.VIC_D
 0330 756d6d79 52544300 5649435f 44756d6d  ummyRTC.VIC_Dumm
 0340 79535049 005f5f70 61645f30 4142005f  ySPI.__pad_0AB._
 0350 5f706164 5f304143 005f5f70 61645f30  _pad_0AC.__pad_0
 0360 41440070 61643000 70616431 00504c4c  AD.pad0.pad1.PLL
 0370 434f4e00 70616433 00706164 3400706c  CON.pad3.pad4.pl
 0380 6c650075 646c5f72 6f756e64 62697400  le.udl_roundbit.
 0390 504c4c53 54415400 5649435f 44756d6d  PLLSTAT.VIC_Dumm
 03a0 79535700 70616439 00736362 32333030  ySW.pad9.scb2300
 03b0 70617261 6d730070 6c6c6300 5f5f7061  params.pllc.__pa
 03c0 645f3139 30005f5f 7061645f 31393100  d_190.__pad_191.
 03d0 5f5f7061 645f3139 32005f5f 7061645f  __pad_192.__pad_
 03e0 30464200 5f5f7061 645f3139 34005f5f  0FB.__pad_194.__
 03f0 7061645f 31393500 5f5f7061 645f3139  pad_195.__pad_19
 0400 36005f5f 7061645f 31393700 45585449  6.__pad_197.EXTI
 0410 4e54005f 5f706164 5f304644 005f5f70  NT.__pad_0FD.__p
 0420 61645f31 3331005f 5f706164 5f304141  ad_131.__pad_0AA
 0430 005f5f70 61645f31 3332005f 5f706164  .__pad_132.__pad
 0440 5f303031 005f5f70 61645f30 3032005f  _001.__pad_002._
 0450 5f706164 5f303033 005f5f70 61645f31  _pad_003.__pad_1
 0460 3334005f 5f706164 5f303035 005f5f70  34.__pad_005.__p
 0470 61645f30 3036005f 5f706164 5f303037  ad_006.__pad_007
 0480 005f5f70 61645f30 3038005f 5f706164  .__pad_008.__pad
 0490 5f303039 005f5f70 61645f31 3337005f  _009.__pad_137._
 04a0 5f706164 5f304145 0075696e 7433325f  _pad_0AE.uint32_
 04b0 74005f5f 7061645f 31333900 5f5f7061  t.__pad_139.__pa
 04c0 645f3136 39005f5f 7061645f 30304100  d_169.__pad_00A.
 04d0 5f5f7061 645f3030 42005f5f 7061645f  __pad_00B.__pad_
 04e0 30304300 5f5f7061 645f3030 44005f5f  00C.__pad_00D.__
 04f0 7061645f 30304500 5f5f7061 645f3030  pad_00E.__pad_00
 0500 46005f5f 7061645f 31313600 70616435  F.__pad_116.pad5
 0510 005f5f70 61645f31 3341005f 5f706164  .__pad_13A.__pad
 0520 5f313342 005f5f70 61645f31 3343005f  _13B.__pad_13C._
 0530 5f706164 5f313345 00455854 4d4f4445  _pad_13E.EXTMODE
 0540 00564943 5f44756d 6d79504c 4c004d41  .VIC_DummyPLL.MA
 0550 4d54696d 005f5f70 61645f30 3130005f  MTim.__pad_010._
 0560 5f706164 5f303131 005f5f70 61645f30  _pad_011.__pad_0
 0570 3132005f 5f706164 5f303133 005f5f70  12.__pad_013.__p
 0580 61645f30 3134005f 5f706164 5f303135  ad_014.__pad_015
 0590 005f5f70 61645f30 3136005f 5f706164  .__pad_016.__pad
 05a0 5f303137 005f5f70 61645f30 3138005f  _017.__pad_018._
 05b0 5f706164 5f303139 005f5f70 61645f30  _pad_019.__pad_0
 05c0 41460050 434f4e50 005f5f70 61645f31  AF.PCONP.__pad_1
 05d0 3943005f 5f706164 5f303141 005f5f70  9C.__pad_01A.__p
 05e0 61645f30 3142005f 5f706164 5f303143  ad_01B.__pad_01C
 05f0 005f5f70 61645f30 3144005f 5f706164  .__pad_01D.__pad
 0600 5f303145 005f5f70 61645f30 31460070  _01E.__pad_01F.p
 0610 61643600 70616437 00706164 38005649  ad6.pad7.pad8.VI
 0620 435f4475 6d6d7955 41525430 00564943  C_DummyUART0.VIC
 0630 5f44756d 6d795541 52543100 696e6974  _DummyUART1.init
 0640 48617264 77617265 00564943 5f44756d  Hardware.VIC_Dum
 0650 6d795541 52543300 5f5f7061 645f3041  myUART3.__pad_0A
 0660 30005f5f 7061645f 30413100 5f5f7061  0.__pad_0A1.__pa
 0670 645f3041 32005f5f 7061645f 30413300  d_0A2.__pad_0A3.
 0680 5f5f7061 645f3041 34005f5f 7061645f  __pad_0A4.__pad_
 0690 30413500 5f5f7061 645f3041 36005f5f  0A5.__pad_0A6.__
 06a0 7061645f 30413700 5f5f7061 645f3041  pad_0A7.__pad_0A
 06b0 38005f5f 7061645f 30413900 7372632f  8.__pad_0A9.src/
 06c0 696e6974 2e630070 696e436f 6e666967  init.c.pinConfig
 06d0 75726174 6f725374 72005f5f 7061645f  uratorStr.__pad_
 06e0 31343100 5f5f7061 645f3032 30005f5f  141.__pad_020.__
 06f0 7061645f 30323100 5f5f7061 645f3032  pad_021.__pad_02
 0700 32005f5f 7061645f 30323300 5f5f7061  2.__pad_023.__pa
 0710 645f3032 34005f5f 7061645f 30323500  d_024.__pad_025.
 0720 5f5f7061 645f3032 36005f5f 7061645f  __pad_026.__pad_
 0730 30323700 5f5f7061 645f3032 38005f5f  027.__pad_028.__
 0740 7061645f 30323900 6d756c74 69706c65  pad_029.multiple
 0750 7800696e 69744343 4c4b005f 5f706164  x.initCCLK.__pad
 0760 5f303241 005f5f70 61645f30 3242005f  _02A.__pad_02B._
 0770 5f706164 5f303243 005f5f70 61645f30  _pad_02C.__pad_0
 0780 3244005f 5f706164 5f303245 005f5f70  2D.__pad_02E.__p
 0790 61645f30 32460056 49435f44 756d6d79  ad_02F.VIC_Dummy
 07a0 4d4d4300 41484243 46473100 41484243  MMC.AHBCFG1.AHBC
 07b0 46473200 5649435f 44756d6d 7947505f  FG2.VIC_DummyGP_
 07c0 444d4100 52534944 00626175 64005f5f  DMA.RSID.baud.__
 07d0 7061645f 30423000 5f5f7061 645f3042  pad_0B0.__pad_0B
 07e0 31005f5f 7061645f 30423200 5f5f7061  1.__pad_0B2.__pa
 07f0 645f3042 33005f5f 7061645f 30423400  d_0B3.__pad_0B4.
 0800 5f5f7061 645f3042 35005f5f 7061645f  __pad_0B5.__pad_
 0810 30423600 5f5f7061 645f3042 37005f5f  0B6.__pad_0B7.__
 0820 7061645f 30423800 5f5f7061 645f3042  pad_0B8.__pad_0B
 0830 3900504c 4c5f4d5f 4d756c00 5f5f7061  9.PLL_M_Mul.__pa
 0840 645f3033 30005f5f 7061645f 30333100  d_030.__pad_031.
 0850 5f5f7061 645f3033 32005f5f 7061645f  __pad_032.__pad_
 0860 30333300 5f5f7061 645f3033 34005f5f  033.__pad_034.__
 0870 7061645f 30333500 5f5f7061 645f3033  pad_035.__pad_03
 0880 36005f5f 7061645f 30333700 5f5f7061  6.__pad_037.__pa
 0890 645f3033 38005f5f 7061645f 30333900  d_038.__pad_039.
 08a0 5f5f7061 645f3042 41004d45 4d4d4150  __pad_0BA.MEMMAP
 08b0 005f5f70 61645f30 4242005f 5f706164  .__pad_0BB.__pad
 08c0 5f304243 005f5f70 61645f30 4244005f  _0BC.__pad_0BD._
 08d0 5f706164 5f303341 005f5f70 61645f30  _pad_03A.__pad_0
 08e0 3342005f 5f706164 5f303343 005f5f70  3B.__pad_03C.__p
 08f0 61645f30 3344005f 5f706164 5f303345  ad_03D.__pad_03E
 0900 005f5f70 61645f30 3346005f 5f706164  .__pad_03F.__pad
 0910 5f304246 005f5f70 61645f30 42450073  _0BF.__pad_0BE.s
 0920 63623233 30305f74 00504c4c 5f4e5f44  cb2300_t.PLL_N_D
 0930 69760056 49435f44 756d6d79 49325300  iv.VIC_DummyI2S.
 0940 5f4c5043 32335858 5f554152 54005f5f  _LPC23XX_UART.__
 0950 7061645f 30433100 5f5f7061 645f3043  pad_0C1.__pad_0C
 0960 32005f5f 7061645f 30433300 5f5f7061  2.__pad_0C3.__pa
 0970 645f3043 38005f5f 7061645f 30433900  d_0C8.__pad_0C9.
 0980 5f5f7061 645f3132 43005f5f 7061645f  __pad_12C.__pad_
 0990 31353100 5f5f7061 645f3034 31005f5f  151.__pad_041.__
 09a0 7061645f 30343200 5f5f7061 645f3034  pad_042.__pad_04
 09b0 33005f5f 7061645f 30343400 5f5f7061  3.__pad_044.__pa
 09c0 645f3034 35005f5f 7061645f 30343600  d_045.__pad_046.
 09d0 5f5f7061 645f3034 37007569 6e74385f  __pad_047.uint8_
 09e0 74005f5f 7061645f 30343900 5f5f7061  t.__pad_049.__pa
 09f0 645f3135 37005649 435f4475 6d6d7949  d_157.VIC_DummyI
 0a00 32433000 5f5f7061 645f3131 30005649  2C0.__pad_110.VI
 0a10 435f4475 6d6d7949 32433200 5f5f7061  C_DummyI2C2.__pa
 0a20 645f3034 41005f5f 7061645f 30344200  d_04A.__pad_04B.
 0a30 5f5f7061 645f3034 43005f5f 7061645f  __pad_04C.__pad_
 0a40 30344400 5f5f7061 645f3034 45005f5f  04D.__pad_04E.__
 0a50 7061645f 30344600 43535052 005f5f70  pad_04F.CSPR.__p
 0a60 61645f31 3541005f 5f706164 5f313543  ad_15A.__pad_15C
 0a70 00564943 5f537075 72696f75 73496e74  .VIC_SpuriousInt
 0a80 005f5f70 61645f31 35450075 6172745f  .__pad_15E.uart_
 0a90 64697669 736f725f 6c617463 68007053  divisor_latch.pS
 0aa0 43425061 72616d73 00706c6c 73746174  CBParams.pllstat
 0ab0 005f5f70 61645f30 4430005f 5f706164  .__pad_0D0.__pad
 0ac0 5f304431 005f5f70 61645f30 4432005f  _0D1.__pad_0D2._
 0ad0 5f706164 5f304433 005f5f70 61645f30  _pad_0D3.__pad_0
 0ae0 4434005f 5f706164 5f304435 005f5f70  D4.__pad_0D5.__p
 0af0 61645f30 4436005f 5f706164 5f304437  ad_0D6.__pad_0D7
 0b00 005f5f70 61645f30 4438005f 5f706164  .__pad_0D8.__pad
 0b10 5f304439 005f5f70 61645f30 3530005f  _0D9.__pad_050._
 0b20 5f706164 5f303531 005f5f70 61645f30  _pad_051.__pad_0
 0b30 3532005f 5f706164 5f303533 005f5f70  52.__pad_053.__p
 0b40 61645f30 3534005f 5f706164 5f303535  ad_054.__pad_055
 0b50 005f5f70 61645f30 3536005f 5f706164  .__pad_056.__pad
 0b60 5f303537 005f5f70 61645f30 3538005f  _057.__pad_058._
 0b70 5f706164 5f303539 005f5f70 61645f30  _pad_059.__pad_0
 0b80 4345005f 5f706164 5f304346 005f5f70  CE.__pad_0CF.__p
 0b90 61645f30 34380056 49435f44 756d6d79  ad_048.VIC_Dummy
 0ba0 45544845 524e4554 005f5f70 61645f30  ETHERNET.__pad_0
 0bb0 3541005f 5f706164 5f303542 005f5f70  5A.__pad_05B.__p
 0bc0 61645f30 3543005f 5f706164 5f303544  ad_05C.__pad_05D
 0bd0 005f5f70 61645f30 3545005f 5f706164  .__pad_05E.__pad
 0be0 5f303546 00504c4c 43464700 50434f4e  _05F.PLLCFG.PCON
 0bf0 004e5f64 69760070 636c6b5f 73656c00  .N_div.pclk_sel.
 0c00 5f5f7061 645f3045 30005f5f 7061645f  __pad_0E0.__pad_
 0c10 30453100 5f5f7061 645f3045 32005f5f  0E1.__pad_0E2.__
 0c20 7061645f 30453300 5f5f7061 645f3045  pad_0E3.__pad_0E
 0c30 34005f5f 7061645f 30453500 5f5f7061  4.__pad_0E5.__pa
 0c40 645f3045 36005f5f 7061645f 30453700  d_0E6.__pad_0E7.
 0c50 5f5f7061 645f3045 38005f5f 7061645f  __pad_0E8.__pad_
 0c60 30453900 434c4b53 52435345 4c005f5f  0E9.CLKSRCSEL.__
 0c70 7061645f 31363000 5f5f7061 645f3036  pad_160.__pad_06
 0c80 30005f5f 7061645f 30363100 5f5f7061  0.__pad_061.__pa
 0c90 645f3036 32005f5f 7061645f 30363300  d_062.__pad_063.
 0ca0 5f5f7061 645f3036 34005f5f 7061645f  __pad_064.__pad_
 0cb0 30363500 5f5f7061 645f3036 36005f5f  065.__pad_066.__
 0cc0 7061645f 30363700 5f5f7061 645f3036  pad_067.__pad_06
 0cd0 38005f5f 7061645f 30363900 5f5f7061  8.__pad_069.__pa
 0ce0 645f3130 37005f5f 7061645f 30434400  d_107.__pad_0CD.
 0cf0 5649435f 44756d6d 79005f5f 7061645f  VIC_Dummy.__pad_
 0d00 31333300 5f5f7061 645f3036 41005f5f  133.__pad_06A.__
 0d10 7061645f 30364200 5f5f7061 645f3036  pad_06B.__pad_06
 0d20 43005f5f 7061645f 30364400 5f5f7061  C.__pad_06D.__pa
 0d30 645f3036 45005f5f 7061645f 30364600  d_06E.__pad_06F.
 0d40 5f5f7061 645f3130 44005f5f 7061645f  __pad_10D.__pad_
 0d50 31304500 5f5f7061 645f3130 46005f5f  10E.__pad_10F.__
 0d60 7061645f 31363300 5f5f7061 645f3136  pad_163.__pad_16
 0d70 41005f5f 7061645f 31364200 5f5f7061  A.__pad_16B.__pa
 0d80 645f3136 36005f5f 7061645f 31364500  d_166.__pad_16E.
 0d90 5649435f 44756d6d 7943414e 30310046  VIC_DummyCAN01.F
 0da0 6f736300 5f5f7061 645f3046 30005f5f  osc.__pad_0F0.__
 0db0 7061645f 30463100 75696e74 31365f74  pad_0F1.uint16_t
 0dc0 005f5f70 61645f30 4633005f 5f706164  .__pad_0F3.__pad
 0dd0 5f304634 005f5f70 61645f30 4635005f  _0F4.__pad_0F5._
 0de0 5f706164 5f304636 005f5f70 61645f30  _pad_0F6.__pad_0
 0df0 4637005f 5f706164 5f304638 005f5f70  F7.__pad_0F8.__p
 0e00 61645f30 46390056 49435f44 756d6d79  ad_0F9.VIC_Dummy
 0e10 55534200 4d414d43 52005649 435f496e  USB.MAMCR.VIC_In
 0e20 6974005f 5f706164 5f303730 005f5f70  it.__pad_070.__p
 0e30 61645f30 3731005f 5f706164 5f303732  ad_071.__pad_072
 0e40 005f5f70 61645f30 3733005f 5f706164  .__pad_073.__pad
 0e50 5f303734 005f5f70 61645f30 3735005f  _074.__pad_075._
 0e60 5f706164 5f303736 005f5f70 61645f30  _pad_076.__pad_0
 0e70 3737005f 5f706164 5f303738 005f5f70  77.__pad_078.__p
 0e80 61645f30 3739005f 5f706164 5f304445  ad_079.__pad_0DE
 0e90 005f5f70 61645f31 3138005f 5f706164  .__pad_118.__pad
 0ea0 5f304343 005f5f70 61645f30 3741005f  _0CC.__pad_07A._
 0eb0 5f706164 5f303742 005f5f70 61645f30  _pad_07B.__pad_0
 0ec0 3743005f 5f706164 5f303744 005f5f70  7C.__pad_07D.__p
 0ed0 61645f30 3745005f 5f706164 5f303746  ad_07E.__pad_07F
 0ee0 005f5f70 61645f31 3144005f 5f706164  .__pad_11D.__pad
 0ef0 5f313145 005f5f70 61645f31 31460063  _11E.__pad_11F.c
 0f00 6c6b7372 6373656c 006d6375 50696e73  lksrcsel.mcuPins
 0f10 0070696e 436f6e66 69677572 61746f72  .pinConfigurator
 0f20 00706c6c 63666700 5f5f7061 645f3141  .pllcfg.__pad_1A
 0f30 36005f5f 7061645f 31413700 45585450  6.__pad_1A7.EXTP
 0f40 4f4c4152 005f5f70 61645f30 3831005f  OLAR.__pad_081._
 0f50 5f706164 5f303832 005f5f70 61645f30  _pad_082.__pad_0
 0f60 3833005f 5f706164 5f313231 005f5f70  83.__pad_121.__p
 0f70 61645f30 4341005f 5f706164 5f313233  ad_0CA.__pad_123
 0f80 005f5f70 61645f31 3234005f 5f706164  .__pad_124.__pad
 0f90 5f313235 005f5f70 61645f31 3236005f  _125.__pad_126._
 0fa0 5f706164 5f304342 005f5f70 61645f31  _pad_0CB.__pad_1
 0fb0 3238005f 5f706164 5f313239 005f5f70  28.__pad_129.__p
 0fc0 61645f30 4646005f 5f706164 5f303844  ad_0FF.__pad_08D
 0fd0 005f5f70 61645f30 3845005f 5f706164  .__pad_08E.__pad
 0fe0 5f303846 005f5f70 61645f31 3244005f  _08F.__pad_12D._
 0ff0 5f706164 5f313245 005f5f70 61645f31  _pad_12E.__pad_1
 1000 32460056 49435f44 756d6d79 50574d30  2F.VIC_DummyPWM0
 1010 31005f5f 7061645f 31374300 46706c6c  1.__pad_17C.Fpll
 1020 636c6b00 696e6974 504c4c00 49524354  clk.initPLL.IRCT
 1030 52494d00 6d616d63 72005f5f 7061645f  RIM.mamcr.__pad_
 1040 30393000 5f5f7061 645f3039 31005f5f  090.__pad_091.__
 1050 7061645f 30393200 5f5f7061 645f3039  pad_092.__pad_09
 1060 33005f5f 7061645f 30393400 5f5f7061  3.__pad_094.__pa
 1070 645f3039 35005f5f 7061645f 30393600  d_095.__pad_096.
 1080 5f5f7061 645f3039 37005f5f 7061645f  __pad_097.__pad_
 1090 30393800 5f5f7061 645f3039 39005f5f  098.__pad_099.__
 10a0 7061645f 30454500 5f5f7061 645f3133  pad_0EE.__pad_13
 10b0 38005f5f 7061645f 30444400 5f5f7061  8.__pad_0DD.__pa
 10c0 645f3139 38005f5f 7061645f 31303200  d_198.__pad_102.
 10d0 5f5f7061 645f3039 41005f5f 7061645f  __pad_09A.__pad_
 10e0 30394200 5f5f7061 645f3039 43005f5f  09B.__pad_09C.__
 10f0 7061645f 30394400 5f5f7061 645f3039  pad_09D.__pad_09
 1100 45005f5f 7061645f 30394600 5f5f7061  E.__pad_09F.__pa
 1110 645f3133 44005f5f 7061645f 31303600  d_13D.__pad_106.
 1120 5f5f7061 645f3133 46005f5f 7061645f  __pad_13F.__pad_
 1130 31303900 70616431 30007061 64313100  109.pad10.pad11.
 1140 5f5f7061 645f3139 41005f5f 7061645f  __pad_19A.__pad_
 1150 31394200 5f5f7061 645f3130 41005f5f  19B.__pad_10A.__
 1160 7061645f 31304200 5f5f7061 645f3139  pad_10B.__pad_19
 1170 44007069 6e537472 005f5f70 61645f31  D.pinStr.__pad_1
 1180 39450069 6e697450 434c4b00 5f5f7061  9E.initPCLK.__pa
 1190 645f3139 4600696e 69744d41 4d007061  d_19F.initMAM.pa
 11a0 74746572 6e005649 435f4475 6d6d7949  ttern.VIC_DummyI
 11b0 32433100 5649435f 44756d6d 79444542  2C1.VIC_DummyDEB
 11c0 55475458 0043434c 4b434647 005f5f70  UGTX.CCLKCFG.__p
 11d0 61645f31 3432005f 5f706164 5f313433  ad_142.__pad_143
 11e0 00696e69 74475049 4f005f5f 7061645f  .initGPIO.__pad_
 11f0 31343600 5f5f7061 645f3134 37005f5f  146.__pad_147.__
 1200 7061645f 31343900 70696e53 656c6563  pad_149.pinSelec
 1210 74005f5f 7061645f 31344100 5f5f7061  t.__pad_14A.__pa
 1220 645f3134 42005f5f 7061645f 31344400  d_14B.__pad_14D.
 1230 5f5f7061 645f3134 45005f5f 7061645f  __pad_14E.__pad_
 1240 31344600 50434c4b 53454c31 005f5f70  14F.PCLKSEL1.__p
 1250 61645f30 46320056 49435f44 756d6d79  ad_0F2.VIC_Dummy
 1260 57445400 43434c4b 5f446976 00666d6f  WDT.CCLK_Div.fmo
 1270 64650069 6e697455 41525430 00564943  de.initUART0.VIC
 1280 5f44756d 6d795541 52543200 5649435f  _DummyUART2.VIC_
 1290 44756d6d 7945494e 54300056 49435f44  DummyEINT0.VIC_D
 12a0 756d6d79 45494e54 31005649 435f4475  ummyEINT1.VIC_Du
 12b0 6d6d7945 494e5432 00564943 5f44756d  mmyEINT2.VIC_Dum
 12c0 6d794549 4e543300 6d616d74 696d5f6f  myEINT3.mamtim_o
 12d0 76657272 69646500 5f5f7061 645f3046  verride.__pad_0F
 12e0 41005f5f 7061645f 31353000 5f5f7061  A.__pad_150.__pa
 12f0 645f3044 41005f5f 7061645f 31353200  d_0DA.__pad_152.
 1300 5f5f7061 645f3046 43005f5f 7061645f  __pad_0FC.__pad_
 1310 31353400 5f5f7061 645f3044 42005f5f  154.__pad_0DB.__
 1320 7061645f 31353600 5f5f7061 645f3046  pad_156.__pad_0F
 1330 45005f5f 7061645f 31353800 5f5f7061  E.__pad_158.__pa
 1340 645f3131 31005f5f 7061645f 31313200  d_111.__pad_112.
 1350 5f5f7061 645f3131 33005f5f 7061645f  __pad_113.__pad_
 1360 31313400 5f5f7061 645f3135 42005f5f  114.__pad_15B.__
 1370 7061645f 31313500 5f5f7061 645f3135  pad_115.__pad_15
 1380 44005f5f 7061645f 30444600 5f5f7061  D.__pad_0DF.__pa
 1390 645f3135 46005f5f 7061645f 31313700  d_15F.__pad_117.
 13a0 5f5f7061 645f3131 39004d5f 6d756c00  __pad_119.M_mul.
 13b0 504c4c46 45454400 67657446 63636c6b  PLLFEED.getFcclk
 13c0 005f5f70 61645f31 3141005f 5f706164  .__pad_11A.__pad
 13d0 5f313142 005f5f70 61645f31 31430056  _11B.__pad_11C.V
 13e0 49435f44 756d6d79 41443000 5f5f7061  IC_DummyAD0.__pa
 13f0 645f3139 33005f5f 7061645f 30454100  d_193.__pad_0EA.
 1400 5f5f7061 645f3136 31005f5f 7061645f  __pad_161.__pad_
 1410 31363200 5f5f7061 645f3045 42005f5f  162.__pad_0EB.__
 1420 7061645f 31363400 5f5f7061 645f3136  pad_164.__pad_16
 1430 35005f5f 7061645f 30454300 5f5f7061  5.__pad_0EC.__pa
 1440 645f3136 37005f5f 7061645f 31363800  d_167.__pad_168.
 1450 5f5f7061 645f3045 44005f5f 7061645f  __pad_0ED.__pad_
 1460 31333000 706f7369 74696f6e 005f5f70  130.position.__p
 1470 61645f30 4546005f 5f706164 5f313535  ad_0EF.__pad_155
 1480 005f5f70 61645f31 3030005f 5f706164  .__pad_100.__pad
 1490 5f313643 005f5f70 61645f31 3644005f  _16C.__pad_16D._
 14a0 5f706164 5f313031 005f5f70 61645f31  _pad_101.__pad_1
 14b0 36460056 49435f44 756d6d79 54494d45  6F.VIC_DummyTIME
 14c0 52310056 49435f44 756d6d79 54494d45  R1.VIC_DummyTIME
 14d0 52320056 49435f44 756d6d79 54494d45  R2.VIC_DummyTIME
 14e0 52330070 72696e74 5f75696e 74333200  R3.print_uint32.
 14f0 7372632f 7072696e 742e6300 7072696e  src/print.c.prin
 1500 74486578 00627566 6665725f 6c656e67  tHex.buffer_leng
 1510 74680070 72696e74 53747269 6e670075  th.printString.u
 1520 33325368 69667400 7533324d 61736b00  32Shift.u32Mask.
 1530 75333243 68617200 62756666 65720073  u32Char.buffer.s
 1540 72632f74 696d6572 2e630069 6e697469  rc/timer.c.initi
 1550 616c697a 655f7469 6d65725f 7469636b  alize_timer_tick
 1560 00726c64 5f636e74 73007063 6c6b5f66  .rld_cnts.pclk_f
 1570 72657100 546d725f 5469636b 4953525f  req.Tmr_TickISR_
 1580 48616e64 6c657200 6e73656c 00425350  Handler.nsel.BSP
 1590 5f435055 5f436c6b 46726571 00425350  _CPU_ClkFreq.BSP
 15a0 5f496e74 44697341 6c6c0070 636c6b00  _IntDisAll.pclk.
 15b0 73656c65 6374696f 6e00706c 6c5f636c  selection.pll_cl
 15c0 6b5f6665 71006d73 656c0073 72632f62  k_feq.msel.src/b
 15d0 73702e63 00425350 5f435055 5f50636c  sp.c.BSP_CPU_Pcl
 15e0 6b467265 71006865 6c6c6f5f 776f726c  kFreq.hello_worl
 15f0 64007461 736b5477 6f007461 736b4f6e  d.taskTwo.taskOn
 1600 6500636f 756e7400 7372632f 7461736b  e.count.src/task
 1610 732e6300 4c656176 65437269 74696361  s.c.LeaveCritica
 1620 6c536563 74696f6e 00437265 61746543  lSection.CreateC
 1630 72697469 63616c53 65637469 6f6e0073  riticalSection.s
 1640 72632f63 72697469 63616c5f 73656374  rc/critical_sect
 1650 696f6e2e 63004465 6c657465 43726974  ion.c.DeleteCrit
 1660 6963616c 53656374 696f6e00 42555359  icalSection.BUSY
 1670 00524553 4f555243 45005175 65727945  .RESOURCE.QueryE
 1680 6e746572 43726974 6963616c 53656374  nterCriticalSect
 1690 696f6e00 53554343 45535300           ion.SUCCESS.    
Contents of section .debug_frame:
 0000 0c000000 ffffffff 0100027c 0e0c0d00  ...........|....
 0010 10000000 00000000 ac010000 d0010000  ................
 0020 420e1000 18000000 00000000 7c030000  B...........|...
 0030 a8000000 420e0440 8e01420e 10000000  ....B..@..B.....
 0040 18000000 00000000 24040000 bc000000  ........$.......
 0050 420e0840 8302408e 01000000 0c000000  B..@..@.........
 0060 ffffffff 0100027c 0e0c0d00 18000000  .......|........
 0070 5c000000 e0040000 bc000000 420e0440  \...........B..@
 0080 8e01420e 20000000 10000000 5c000000  ..B. .......\...
 0090 9c050000 a0010000 420e1000 10000000  ........B.......
 00a0 5c000000 3c070000 90000000 420e0800  \...<.......B...
 00b0 18000000 5c000000 cc070000 54000000  ....\.......T...
 00c0 420e0840 8402408e 01420e10 18000000  B..@..@..B......
 00d0 5c000000 20080000 68010000 420e0440  \... ...h...B..@
 00e0 8e01420e 28000000 0c000000 5c000000  ..B.(.......\...
 00f0 88090000 20000000 10000000 5c000000  .... .......\...
 0100 a8090000 34010000 420e1000 18000000  ....4...B.......
 0110 5c000000 dc0a0000 88000000 420e0840  \...........B..@
 0120 8302408e 01000000 18000000 5c000000  ..@.........\...
 0130 640b0000 90010000 420e0440 8e01420e  d.......B..@..B.
 0140 28000000 0c000000 5c000000 f40c0000  (.......\.......
 0150 b0020000 0c000000 5c000000 a40f0000  ........\.......
 0160 04000000 18000000 5c000000 a80f0000  ........\.......
 0170 20000000 420e0840 8302408e 01000000   ...B..@..@.....
 0180 18000000 5c000000 c80f0000 20000000  ....\....... ...
 0190 420e0840 8302408e 01000000 18000000  B..@..@.........
 01a0 5c000000 e80f0000 20000000 420e0840  \....... ...B..@
 01b0 8302408e 01000000 18000000 5c000000  ..@.........\...
 01c0 08100000 20000000 420e0840 8302408e  .... ...B..@..@.
 01d0 01000000 18000000 5c000000 28100000  ........\...(...
 01e0 20000000 420e0840 8302408e 01000000   ...B..@..@.....
 01f0 18000000 5c000000 48100000 20000000  ....\...H... ...
 0200 420e0840 8302408e 01000000 18000000  B..@..@.........
 0210 5c000000 68100000 20000000 420e0840  \...h... ...B..@
 0220 8302408e 01000000 18000000 5c000000  ..@.........\...
 0230 88100000 20000000 420e0840 8302408e  .... ...B..@..@.
 0240 01000000 18000000 5c000000 a8100000  ........\.......
 0250 20000000 420e0840 8302408e 01000000   ...B..@..@.....
 0260 18000000 5c000000 c8100000 20000000  ....\....... ...
 0270 420e0840 8302408e 01000000 18000000  B..@..@.........
 0280 5c000000 e8100000 20000000 420e0840  \....... ...B..@
 0290 8302408e 01000000 18000000 5c000000  ..@.........\...
 02a0 08110000 20000000 420e0840 8302408e  .... ...B..@..@.
 02b0 01000000 18000000 5c000000 28110000  ........\...(...
 02c0 20000000 420e0840 8302408e 01000000   ...B..@..@.....
 02d0 18000000 5c000000 48110000 20000000  ....\...H... ...
 02e0 420e0840 8302408e 01000000 18000000  B..@..@.........
 02f0 5c000000 68110000 20000000 420e0840  \...h... ...B..@
 0300 8302408e 01000000 18000000 5c000000  ..@.........\...
 0310 88110000 20000000 420e0840 8302408e  .... ...B..@..@.
 0320 01000000 18000000 5c000000 a8110000  ........\.......
 0330 20000000 420e0840 8302408e 01000000   ...B..@..@.....
 0340 18000000 5c000000 c8110000 20000000  ....\....... ...
 0350 420e0840 8302408e 01000000 18000000  B..@..@.........
 0360 5c000000 e8110000 20000000 420e0840  \....... ...B..@
 0370 8302408e 01000000 18000000 5c000000  ..@.........\...
 0380 08120000 20000000 420e0840 8302408e  .... ...B..@..@.
 0390 01000000 18000000 5c000000 28120000  ........\...(...
 03a0 20000000 420e0840 8302408e 01000000   ...B..@..@.....
 03b0 18000000 5c000000 48120000 20000000  ....\...H... ...
 03c0 420e0840 8302408e 01000000 18000000  B..@..@.........
 03d0 5c000000 68120000 20000000 420e0840  \...h... ...B..@
 03e0 8302408e 01000000 18000000 5c000000  ..@.........\...
 03f0 88120000 20000000 420e0840 8302408e  .... ...B..@..@.
 0400 01000000 18000000 5c000000 a8120000  ........\.......
 0410 20000000 420e0840 8302408e 01000000   ...B..@..@.....
 0420 18000000 5c000000 c8120000 20000000  ....\....... ...
 0430 420e0840 8302408e 01000000 18000000  B..@..@.........
 0440 5c000000 e8120000 20000000 420e0840  \....... ...B..@
 0450 8302408e 01000000 18000000 5c000000  ..@.........\...
 0460 08130000 20000000 420e0840 8302408e  .... ...B..@..@.
 0470 01000000 18000000 5c000000 28130000  ........\...(...
 0480 20000000 420e0840 8302408e 01000000   ...B..@..@.....
 0490 18000000 5c000000 48130000 20000000  ....\...H... ...
 04a0 420e0840 8302408e 01000000 18000000  B..@..@.........
 04b0 5c000000 68130000 20000000 420e0840  \...h... ...B..@
 04c0 8302408e 01000000 18000000 5c000000  ..@.........\...
 04d0 88130000 20000000 420e0840 8302408e  .... ...B..@..@.
 04e0 01000000 0c000000 ffffffff 0100027c  ...............|
 04f0 0e0c0d00 10000000 e4040000 a8130000  ................
 0500 cc000000 420e1800 28000000 e4040000  ....B...(.......
 0510 74140000 14010000 420e1840 84064085  t.......B..@..@.
 0520 05408604 40870340 8b02408e 01420c0b  .@..@..@..@..B..
 0530 04000000 10000000 e4040000 88150000  ................
 0540 ec000000 420e0800 0c000000 ffffffff  ....B...........
 0550 0100027c 0e0c0d00 18000000 48050000  ...|........H...
 0560 74160000 f8000000 420e0440 8e01420e  t.......B..@..B.
 0570 10000000 0c000000 48050000 6c170000  ........H...l...
 0580 14000000 0c000000 ffffffff 0100027c  ...............|
 0590 0e0c0d00 18000000 84050000 80170000  ................
 05a0 18010000 420e0440 8e01420e 20000000  ....B..@..B. ...
 05b0 18000000 84050000 98180000 94010000  ................
 05c0 420e0440 8e01420e 18000000 0c000000  B..@..B.........
 05d0 84050000 2c1a0000 14000000 0c000000  ....,...........
 05e0 ffffffff 0100027c 0e0c0d00 18000000  .......|........
 05f0 dc050000 401a0000 28000000 420e0840  ....@...(...B..@
 0600 8302408e 01000000 18000000 dc050000  ..@.............
 0610 681a0000 80000000 420e0440 8e01420e  h.......B..@..B.
 0620 18000000 18000000 dc050000 e81a0000  ................
 0630 80000000 420e0440 8e01420e 18000000  ....B..@..B.....
 0640 0c000000 ffffffff 0100027c 0e0c0d00  ...........|....
 0650 10000000 40060000 681b0000 20000000  ....@...h... ...
 0660 420e1000 10000000 40060000 881b0000  B.......@.......
 0670 18000000 420e0800 10000000 40060000  ....B.......@...
 0680 a01b0000 18000000 420e0800 10000000  ........B.......
 0690 40060000 b81b0000 18000000 420e0800  @...........B...
 06a0 10000000 40060000 d01b0000 18000000  ....@...........
 06b0 420e0800 0c000000 ffffffff 0100017c  B..............|
 06c0 0e0c0d00 0c000000 b4060000 e81b0000  ................
 06d0 f4000000                             ....            

Disassembly of section startup:

00000000 <_startup>:
        
/****************************************************************************/
/*               Vector table and reset entry                               */
/****************************************************************************/
_vectors:
    ldr pc, ResetAddr           /* Reset                 */
   0:	e59ff018 	ldr	pc, [pc, #24]	; 20 <ResetAddr>
    ldr pc, UndefAddr           /* Undefined instruction */
   4:	e59ff018 	ldr	pc, [pc, #24]	; 24 <UndefAddr>
    ldr pc, SWIAddr             /* Software interrupt    */
   8:	e59ff018 	ldr	pc, [pc, #24]	; 28 <SWIAddr>
    ldr pc, PAbortAddr          /* Prefetch abort        */
   c:	e59ff018 	ldr	pc, [pc, #24]	; 2c <PAbortAddr>
    ldr pc, DAbortAddr          /* Data abort            */
  10:	e59ff018 	ldr	pc, [pc, #24]	; 30 <DAbortAddr>
    ldr pc, ReservedAddr        /* Reserved              */
  14:	e59ff018 	ldr	pc, [pc, #24]	; 34 <ReservedAddr>
    ldr pc, SwitchingIrqAddr    /* IRQ interrupt - calling switching handler */
  18:	e59ff024 	ldr	pc, [pc, #36]	; 44 <SwitchingIrqAddr>
    ldr pc, FIQAddr             /* FIQ interrupt         */
  1c:	e59ff018 	ldr	pc, [pc, #24]	; 3c <FIQAddr>

00000020 <ResetAddr>:
  20:	00000048 	.word	0x00000048

00000024 <UndefAddr>:
  24:	000000e0 	.word	0x000000e0

00000028 <SWIAddr>:
  28:	000000e4 	.word	0x000000e4

0000002c <PAbortAddr>:
  2c:	000000e8 	.word	0x000000e8

00000030 <DAbortAddr>:
  30:	000000ec 	.word	0x000000ec

00000034 <ReservedAddr>:
  34:	00000000 	.word	0x00000000

00000038 <IRQAddr>:
  38:	000000f0 	.word	0x000000f0

0000003c <FIQAddr>:
  3c:	000000f4 	.word	0x000000f4

00000040 <SimpleIrqAddr>:
  40:	00000138 	.word	0x00000138

00000044 <SwitchingIrqAddr>:
  44:	00000158 	.word	0x00000158

00000048 <ResetHandler>:
/****************************************************************************/
ResetHandler:
/*
 * Wait until the oscillator is stable.
 */   
    nop
  48:	e1a00000 	nop			; (mov r0, r0)
    nop
  4c:	e1a00000 	nop			; (mov r0, r0)
    nop
  50:	e1a00000 	nop			; (mov r0, r0)
    nop
  54:	e1a00000 	nop			; (mov r0, r0)
    nop
  58:	e1a00000 	nop			; (mov r0, r0)
    nop
  5c:	e1a00000 	nop			; (mov r0, r0)
    nop
  60:	e1a00000 	nop			; (mov r0, r0)
    nop
  64:	e1a00000 	nop			; (mov r0, r0)
   
/*
 * Setup the stack for each mode.
 */
    msr   CPSR_c, #ARM_MODE_UNDEF | I_BIT | F_BIT   /* Undefined Instruction Mode */
  68:	e321f0db 	msr	CPSR_c, #219	; 0xdb
    ldr   sp, =__stack_und_end
  6c:	e59fd084 	ldr	sp, [pc, #132]	; f8 <FIQHandler+0x4>
   
    msr   CPSR_c, #ARM_MODE_ABORT | I_BIT | F_BIT   /* Abort Mode */
  70:	e321f0d7 	msr	CPSR_c, #215	; 0xd7
    ldr   sp, =__stack_abt_end
  74:	e59fd080 	ldr	sp, [pc, #128]	; fc <FIQHandler+0x8>
   
    msr   CPSR_c, #ARM_MODE_FIQ | I_BIT | F_BIT     /* FIQ Mode */
  78:	e321f0d1 	msr	CPSR_c, #209	; 0xd1
    ldr   sp, =__stack_fiq_end
  7c:	e59fd07c 	ldr	sp, [pc, #124]	; 100 <ABT_STACK_SIZE>
   
    msr   CPSR_c, #ARM_MODE_IRQ | I_BIT | F_BIT     /* IRQ Mode */
  80:	e321f0d2 	msr	CPSR_c, #210	; 0xd2
    ldr   sp, =__stack_irq_end
  84:	e59fd078 	ldr	sp, [pc, #120]	; 104 <ABT_STACK_SIZE+0x4>
   
    msr   CPSR_c, #ARM_MODE_SVC | I_BIT | F_BIT     /* Supervisor Mode */
  88:	e321f0d3 	msr	CPSR_c, #211	; 0xd3
    ldr   sp, =__stack_svc_end
  8c:	e59fd074 	ldr	sp, [pc, #116]	; 108 <ABT_STACK_SIZE+0x8>

/* 
 * Copy .data section from Flash to RAM.
 */
    ldr     r1, =_etext
  90:	e59f1074 	ldr	r1, [pc, #116]	; 10c <ABT_STACK_SIZE+0xc>
    ldr     r2, =__data_start
  94:	e59f2074 	ldr	r2, [pc, #116]	; 110 <ABT_STACK_SIZE+0x10>
    ldr     r3, =__data_end
  98:	e59f3074 	ldr	r3, [pc, #116]	; 114 <ABT_STACK_SIZE+0x14>

0000009c <copyloop>:
copyloop:   
    cmp     r2, r3
  9c:	e1520003 	cmp	r2, r3
    ldrlo   r0, [r1], #4
  a0:	34910004 	ldrcc	r0, [r1], #4
    strlo   r0, [r2], #4
  a4:	34820004 	strcc	r0, [r2], #4
    blo     copyloop
  a8:	3afffffb 	bcc	9c <copyloop>

/*
 * Zero out the .bss section
 */
    ldr   r1, =__bss_start
  ac:	e59f1064 	ldr	r1, [pc, #100]	; 118 <ABT_STACK_SIZE+0x18>
    ldr   r2, =__bss_end
  b0:	e59f2064 	ldr	r2, [pc, #100]	; 11c <ABT_STACK_SIZE+0x1c>
    ldr   r3, =0
  b4:	e3a03000 	mov	r3, #0

000000b8 <bss_clear_loop>:
bss_clear_loop:
    cmp   r1, r2
  b8:	e1510002 	cmp	r1, r2
    strne r3, [r1], #+4
  bc:	14813004 	strne	r3, [r1], #4
    bne   bss_clear_loop
  c0:	1afffffc 	bne	b8 <bss_clear_loop>
   
/*
 * Turn on interrupts and jump to main.
 */
    mrs   r0, cpsr
  c4:	e10f0000 	mrs	r0, CPSR
    bic   r0, r0, #I_BIT | F_BIT   /*   Enable FIQ and IRQ interrupt */
  c8:	e3c000c0 	bic	r0, r0, #192	; 0xc0
    /*bic   r0, r0, #I_BIT        Enable IRQ interrupt only */
    msr   cpsr, r0
  cc:	e129f000 	msr	CPSR_fc, r0
   
    ldr   r2, =main            /* Jump to main with no arguments */
  d0:	e59f2048 	ldr	r2, [pc, #72]	; 120 <ABT_STACK_SIZE+0x20>
    mov   lr, pc
  d4:	e1a0e00f 	mov	lr, pc
    bx    r2
  d8:	e12fff12 	bx	r2

000000dc <ExitFunction>:
                       
ExitFunction:
    b ExitFunction   
  dc:	eafffffe 	b	dc <ExitFunction>

000000e0 <UndefHandler>:
/****************************************************************************/
/*                         Default interrupt handlers                       */
/****************************************************************************/

UndefHandler:
    b UndefHandler
  e0:	eafffffe 	b	e0 <UndefHandler>

000000e4 <SWIHandler>:
   
SWIHandler:
    b SWIHandler
  e4:	eafffffe 	b	e4 <SWIHandler>

000000e8 <PAbortHandler>:

PAbortHandler:
    b PAbortHandler
  e8:	eafffffe 	b	e8 <PAbortHandler>

000000ec <DAbortHandler>:

DAbortHandler:
    b DAbortHandler
  ec:	eafffffe 	b	ec <DAbortHandler>

000000f0 <IRQHandler>:

IRQHandler:
    b IRQHandler
  f0:	eafffffe 	b	f0 <IRQHandler>

000000f4 <FIQHandler>:
   
FIQHandler:
    b FIQHandler
  f4:	eafffffe 	b	f4 <FIQHandler>
   
/*
 * Setup the stack for each mode.
 */
    msr   CPSR_c, #ARM_MODE_UNDEF | I_BIT | F_BIT   /* Undefined Instruction Mode */
    ldr   sp, =__stack_und_end
  f8:	40001000 	.word	0x40001000
   
    msr   CPSR_c, #ARM_MODE_ABORT | I_BIT | F_BIT   /* Abort Mode */
    ldr   sp, =__stack_abt_end
  fc:	40000f00 	.word	0x40000f00
   
    msr   CPSR_c, #ARM_MODE_FIQ | I_BIT | F_BIT     /* FIQ Mode */
    ldr   sp, =__stack_fiq_end
 100:	40000d00 	.word	0x40000d00
   
    msr   CPSR_c, #ARM_MODE_IRQ | I_BIT | F_BIT     /* IRQ Mode */
    ldr   sp, =__stack_irq_end
 104:	40000e00 	.word	0x40000e00
   
    msr   CPSR_c, #ARM_MODE_SVC | I_BIT | F_BIT     /* Supervisor Mode */
    ldr   sp, =__stack_svc_end
 108:	40001400 	.word	0x40001400

/* 
 * Copy .data section from Flash to RAM.
 */
    ldr     r1, =_etext
 10c:	00001da0 	.word	0x00001da0
    ldr     r2, =__data_start
 110:	40000200 	.word	0x40000200
    ldr     r3, =__data_end
 114:	4000038c 	.word	0x4000038c
    blo     copyloop

/*
 * Zero out the .bss section
 */
    ldr   r1, =__bss_start
 118:	4000038c 	.word	0x4000038c
    ldr   r2, =__bss_end
 11c:	40000ba4 	.word	0x40000ba4
    mrs   r0, cpsr
    bic   r0, r0, #I_BIT | F_BIT   /*   Enable FIQ and IRQ interrupt */
    /*bic   r0, r0, #I_BIT        Enable IRQ interrupt only */
    msr   cpsr, r0
   
    ldr   r2, =main            /* Jump to main with no arguments */
 120:	00000424 	.word	0x00000424

Disassembly of section .text:

00000124 <switch_to_current>:
 *  That means this function will act like a return to the task.
 *
 */
switch_to_current:
                                      /* Switch to the current task's stack. */
    ldr   r0, =currentSP              /* Load r0 with the address for currentSP */
     124:	e59f007c 	ldr	r0, [pc, #124]	; 1a8 <SwitchingIRQHandler+0x50>
    ldr   sp, [r0]                    /* Load sp with the value stored at the address */
     128:	e590d000 	ldr	sp, [r0]
                                      /* sp now points to the task's stack. */

                                      /* Set SPSR to the CPSR for the task. */
    ldmfd sp!, {r0}                   /* Pop the first value from the stack into r0. */
     12c:	e8bd0001 	ldmfd	sp!, {r0}
                                      /* That value was the CPSR for the task. */
    msr   spsr_cxsf, r0               /* Load SPSR with that CPSR value in r0. */
     130:	e16ff000 	msr	SPSR_fsxc, r0

                                      /* Run task. */
    ldmfd sp!, {r0-r12, lr, pc}^      /* Pop the rest of the stack setting regs and pc for the task */
     134:	e8fddfff 	ldm	sp!, {r0, r1, r2, r3, r4, r5, r6, r7, r8, r9, sl, fp, ip, lr, pc}^

00000138 <SimpleIRQHandler>:
 *
 *  Use this as an initial test.
 *
 */
SimpleIRQHandler:
    sub		lr, lr, #4                      /* LR offset to return from this exception: -4. */
     138:	e24ee004 	sub	lr, lr, #4
    stmfd	sp!, {r0-r12, lr}               /* Push working registers. */
     13c:	e92d5fff 	push	{r0, r1, r2, r3, r4, r5, r6, r7, r8, r9, sl, fp, ip, lr}

    /* Switch to SVC mode */

    msr		cpsr_c, #(INT_DISABLED | MODE_SVC)
     140:	e321f0d3 	msr	CPSR_c, #211	; 0xd3


    stmfd  sp!, {lr}                       /* Save LR before the call. */
     144:	e92d4000 	stmfd	sp!, {lr}
    bl     hello_world                     /* Call hello_world. The branch w/ link overwrites LR. */
     148:	eb00063c 	bl	1a40 <hello_world>
    ldmfd  sp!, {lr}                       /* Restore LR after the call. */
     14c:	e8bd4000 	ldmfd	sp!, {lr}

    /* Switch back to IRQ mode */

    msr    cpsr_c, #(INT_DISABLED | MODE_IRQ)
     150:	e321f0d2 	msr	CPSR_c, #210	; 0xd2

    ldmfd  sp!, {r0-r12, pc}^              /* Pop the context and returning to interrupted code. */
     154:	e8fd9fff 	ldm	sp!, {r0, r1, r2, r3, r4, r5, r6, r7, r8, r9, sl, fp, ip, pc}^

00000158 <SwitchingIRQHandler>:
 */
SwitchingIRQHandler:
    /* IRQ mode with IRQ stack */

    /* Adjust LR back by 4 for use later. */
    sub		lr, lr, #4
     158:	e24ee004 	sub	lr, lr, #4
    /* Push working registers r0-r2 to the IRQ stack. */
    stmfd	sp!, {r0-r2}
     15c:	e92d0007 	push	{r0, r1, r2}

    /*  We'll use r0-r2 as variables. */
    /* Save task's cpsr (stored as the IRQ's spsr) to r0 */
    mrs		r0, spsr
     160:	e14f0000 	mrs	r0, SPSR
    /* Save lr which is the task's pc to r1 */
    mov		r1, lr
     164:	e1a0100e 	mov	r1, lr
    /* Save exception's stack pointer to r2*/
    mov		r2, sp
     168:	e1a0200d 	mov	r2, sp
    /* Reset exception's stack by adding 12 to it. It's saved in r2 and we'll be going to svc mode and won't come back */
    add		sp, sp, #12
     16c:	e28dd00c 	add	sp, sp, #12

    /* Change to SVC mode with interrupts disabled. */
    msr		cpsr_c, #(INT_DISABLED | MODE_SVC)
     170:	e321f0d3 	msr	CPSR_c, #211	; 0xd3

    /* SVC mode with SVC stack. This is the stack of interrupted task. */
    /* Push task's PC */
    stmfd	sp!, {r1}
     174:	e92d0002 	stmfd	sp!, {r1}
    /* Push task's LR */
    stmfd	sp!, {lr}
     178:	e92d4000 	stmfd	sp!, {lr}
    /* Push task's R3-R12 */
    stmfd	sp!, {r3-r12}
     17c:	e92d1ff8 	push	{r3, r4, r5, r6, r7, r8, r9, sl, fp, ip}
     * they had from the IRQ stack where we stored them. To do that we can pop them off the
     * IRQ stack using R2 into R3-R5 which are now free to use since we already stored their
     * values to the task's stack.
     */
    /* Pop 3 values from the IRQ stack using R2 as the stack pointer and load them into R3-R5. */
    ldmfd	r2!, {r3-r5}
     180:	e8b20038 	ldm	r2!, {r3, r4, r5}
    /* Push those 3 values to the task's stack */
    stmfd	sp!, {r3-r5}
     184:	e92d0038 	push	{r3, r4, r5}
    /* Push the task's CPSR which is in R0 to the task's stack. */
    stmfd	sp!, {r0}
     188:	e92d0001 	stmfd	sp!, {r0}
    /* Call the task scheduler which sets currentSP and resets the timer. */
    mov		r0, sp
     18c:	e1a0000d 	mov	r0, sp
    bl		scheduler
     190:	eb000079 	bl	37c <scheduler>

    /* Set sp to the new task's sp by reading the value stored in currentSP. */
    ldr		r0, =currentSP
     194:	e59f000c 	ldr	r0, [pc, #12]	; 1a8 <SwitchingIRQHandler+0x50>
    ldr		sp, [r0]
     198:	e590d000 	ldr	sp, [r0]

    /* Pop task's CPSR and restore it to spsr. */
    ldmfd	sp!, {r0}
     19c:	e8bd0001 	ldmfd	sp!, {r0}
    msr		spsr_cxsf, r0
     1a0:	e16ff000 	msr	SPSR_fsxc, r0

    /* spsr will be moved to cpsr when we pop the context with ldmfd */
    /* Pop task's context. Restores regs and cpsr which reenables interrupts. */
    ldmfd	sp!, {r0-r12, lr, pc}^
     1a4:	e8fddfff 	ldm	sp!, {r0, r1, r2, r3, r4, r5, r6, r7, r8, r9, sl, fp, ip, lr, pc}^
 *  That means this function will act like a return to the task.
 *
 */
switch_to_current:
                                      /* Switch to the current task's stack. */
    ldr   r0, =currentSP              /* Load r0 with the address for currentSP */
     1a8:	40000b94 	.word	0x40000b94

000001ac <initialize_stack>:
	LR doesn't matter since the task is a infinite loop and should not exit.
	If it doesn't exit, then it doesn't use the LR since it doesn't return.

*/
int initialize_stack(int* stack, void* task_address)
{
     1ac:	e24dd010 	sub	sp, sp, #16
     1b0:	e58d0004 	str	r0, [sp, #4]
     1b4:	e58d1000 	str	r1, [sp]
	// Calculate the top of the stack.
	int *stkptr = (int*)(stack + STACKSIZE - 1);
     1b8:	e59d3004 	ldr	r3, [sp, #4]
     1bc:	e2833fff 	add	r3, r3, #1020	; 0x3fc
     1c0:	e58d300c 	str	r3, [sp, #12]

	*(stkptr)   = (int)task_address;   // PC
     1c4:	e59d2000 	ldr	r2, [sp]
     1c8:	e59d300c 	ldr	r3, [sp, #12]
     1cc:	e5832000 	str	r2, [r3]
	*(--stkptr) = (int)0x0d0d0d0d;     // R14 - LR
     1d0:	e59d300c 	ldr	r3, [sp, #12]
     1d4:	e2433004 	sub	r3, r3, #4
     1d8:	e58d300c 	str	r3, [sp, #12]
     1dc:	e59d300c 	ldr	r3, [sp, #12]
     1e0:	e59f2160 	ldr	r2, [pc, #352]	; 348 <initialize_stack+0x19c>
     1e4:	e5832000 	str	r2, [r3]
	*(--stkptr) = (int)0x0c0c0c0c;     // R12
     1e8:	e59d300c 	ldr	r3, [sp, #12]
     1ec:	e2433004 	sub	r3, r3, #4
     1f0:	e58d300c 	str	r3, [sp, #12]
     1f4:	e59d300c 	ldr	r3, [sp, #12]
     1f8:	e59f214c 	ldr	r2, [pc, #332]	; 34c <initialize_stack+0x1a0>
     1fc:	e5832000 	str	r2, [r3]
	*(--stkptr) = (int)0x0b0b0b0b;     // R11
     200:	e59d300c 	ldr	r3, [sp, #12]
     204:	e2433004 	sub	r3, r3, #4
     208:	e58d300c 	str	r3, [sp, #12]
     20c:	e59d300c 	ldr	r3, [sp, #12]
     210:	e59f2138 	ldr	r2, [pc, #312]	; 350 <initialize_stack+0x1a4>
     214:	e5832000 	str	r2, [r3]
	*(--stkptr) = (int)0x0a0a0a0a;     // R10
     218:	e59d300c 	ldr	r3, [sp, #12]
     21c:	e2433004 	sub	r3, r3, #4
     220:	e58d300c 	str	r3, [sp, #12]
     224:	e59d300c 	ldr	r3, [sp, #12]
     228:	e59f2124 	ldr	r2, [pc, #292]	; 354 <initialize_stack+0x1a8>
     22c:	e5832000 	str	r2, [r3]
	*(--stkptr) = (int)0x09090909;     // R9
     230:	e59d300c 	ldr	r3, [sp, #12]
     234:	e2433004 	sub	r3, r3, #4
     238:	e58d300c 	str	r3, [sp, #12]
     23c:	e59d300c 	ldr	r3, [sp, #12]
     240:	e59f2110 	ldr	r2, [pc, #272]	; 358 <initialize_stack+0x1ac>
     244:	e5832000 	str	r2, [r3]
	*(--stkptr) = (int)0x08080808;     // R8
     248:	e59d300c 	ldr	r3, [sp, #12]
     24c:	e2433004 	sub	r3, r3, #4
     250:	e58d300c 	str	r3, [sp, #12]
     254:	e59d300c 	ldr	r3, [sp, #12]
     258:	e59f20fc 	ldr	r2, [pc, #252]	; 35c <initialize_stack+0x1b0>
     25c:	e5832000 	str	r2, [r3]
	*(--stkptr) = (int)0x07070707;     // R7
     260:	e59d300c 	ldr	r3, [sp, #12]
     264:	e2433004 	sub	r3, r3, #4
     268:	e58d300c 	str	r3, [sp, #12]
     26c:	e59d300c 	ldr	r3, [sp, #12]
     270:	e59f20e8 	ldr	r2, [pc, #232]	; 360 <initialize_stack+0x1b4>
     274:	e5832000 	str	r2, [r3]
	*(--stkptr) = (int)0x06060606;     // R6
     278:	e59d300c 	ldr	r3, [sp, #12]
     27c:	e2433004 	sub	r3, r3, #4
     280:	e58d300c 	str	r3, [sp, #12]
     284:	e59d300c 	ldr	r3, [sp, #12]
     288:	e59f20d4 	ldr	r2, [pc, #212]	; 364 <initialize_stack+0x1b8>
     28c:	e5832000 	str	r2, [r3]
	*(--stkptr) = (int)0x05050505;     // R5
     290:	e59d300c 	ldr	r3, [sp, #12]
     294:	e2433004 	sub	r3, r3, #4
     298:	e58d300c 	str	r3, [sp, #12]
     29c:	e59d300c 	ldr	r3, [sp, #12]
     2a0:	e59f20c0 	ldr	r2, [pc, #192]	; 368 <initialize_stack+0x1bc>
     2a4:	e5832000 	str	r2, [r3]
	*(--stkptr) = (int)0x04040404;     // R4
     2a8:	e59d300c 	ldr	r3, [sp, #12]
     2ac:	e2433004 	sub	r3, r3, #4
     2b0:	e58d300c 	str	r3, [sp, #12]
     2b4:	e59d300c 	ldr	r3, [sp, #12]
     2b8:	e59f20ac 	ldr	r2, [pc, #172]	; 36c <initialize_stack+0x1c0>
     2bc:	e5832000 	str	r2, [r3]
	*(--stkptr) = (int)0x03030303;     // R3
     2c0:	e59d300c 	ldr	r3, [sp, #12]
     2c4:	e2433004 	sub	r3, r3, #4
     2c8:	e58d300c 	str	r3, [sp, #12]
     2cc:	e59d300c 	ldr	r3, [sp, #12]
     2d0:	e59f2098 	ldr	r2, [pc, #152]	; 370 <initialize_stack+0x1c4>
     2d4:	e5832000 	str	r2, [r3]
	*(--stkptr) = (int)0x02020202;     // R2
     2d8:	e59d300c 	ldr	r3, [sp, #12]
     2dc:	e2433004 	sub	r3, r3, #4
     2e0:	e58d300c 	str	r3, [sp, #12]
     2e4:	e59d300c 	ldr	r3, [sp, #12]
     2e8:	e59f2084 	ldr	r2, [pc, #132]	; 374 <initialize_stack+0x1c8>
     2ec:	e5832000 	str	r2, [r3]
	*(--stkptr) = (int)0x01010101;     // R1
     2f0:	e59d300c 	ldr	r3, [sp, #12]
     2f4:	e2433004 	sub	r3, r3, #4
     2f8:	e58d300c 	str	r3, [sp, #12]
     2fc:	e59d300c 	ldr	r3, [sp, #12]
     300:	e59f2070 	ldr	r2, [pc, #112]	; 378 <initialize_stack+0x1cc>
     304:	e5832000 	str	r2, [r3]
	*(--stkptr) = (int)0x00000000;     // R0
     308:	e59d300c 	ldr	r3, [sp, #12]
     30c:	e2433004 	sub	r3, r3, #4
     310:	e58d300c 	str	r3, [sp, #12]
     314:	e59d300c 	ldr	r3, [sp, #12]
     318:	e3a02000 	mov	r2, #0
     31c:	e5832000 	str	r2, [r3]
	*(--stkptr) = ARM_SVC_MODE_ARM;    // CPSR
     320:	e59d300c 	ldr	r3, [sp, #12]
     324:	e2433004 	sub	r3, r3, #4
     328:	e58d300c 	str	r3, [sp, #12]
     32c:	e59d300c 	ldr	r3, [sp, #12]
     330:	e3a02013 	mov	r2, #19
     334:	e5832000 	str	r2, [r3]

	return (int)(stkptr);
     338:	e59d300c 	ldr	r3, [sp, #12]
}
     33c:	e1a00003 	mov	r0, r3
     340:	e28dd010 	add	sp, sp, #16
     344:	e12fff1e 	bx	lr
     348:	0d0d0d0d 	.word	0x0d0d0d0d
     34c:	0c0c0c0c 	.word	0x0c0c0c0c
     350:	0b0b0b0b 	.word	0x0b0b0b0b
     354:	0a0a0a0a 	.word	0x0a0a0a0a
     358:	09090909 	.word	0x09090909
     35c:	08080808 	.word	0x08080808
     360:	07070707 	.word	0x07070707
     364:	06060606 	.word	0x06060606
     368:	05050505 	.word	0x05050505
     36c:	04040404 	.word	0x04040404
     370:	03030303 	.word	0x03030303
     374:	02020202 	.word	0x02020202
     378:	01010101 	.word	0x01010101

0000037c <scheduler>:
	value of currentSP used by SwitchingIRQHandler in switch.s

	SwitchingIRQHandler does the real context switching work.
*/
void scheduler(int sp)
{
     37c:	e52de004 	push	{lr}		; (str lr, [sp, #-4]!)
     380:	e24dd00c 	sub	sp, sp, #12
     384:	e58d0004 	str	r0, [sp, #4]
	WRITEREG32(T0IR, 0xFF);            // Reset timer
     388:	e59f307c 	ldr	r3, [pc, #124]	; 40c <SVC_STACK_SIZE+0xc>
     38c:	e3a020ff 	mov	r2, #255	; 0xff
     390:	e5832000 	str	r2, [r3]
	printString("Switch\n");
     394:	e59f0074 	ldr	r0, [pc, #116]	; 410 <SVC_STACK_SIZE+0x10>
     398:	eb00047a 	bl	1588 <printString>

	if (taskID == 1)
     39c:	e59f3070 	ldr	r3, [pc, #112]	; 414 <SVC_STACK_SIZE+0x14>
     3a0:	e5933000 	ldr	r3, [r3]
     3a4:	e3530001 	cmp	r3, #1
     3a8:	1a00000a 	bne	3d8 <scheduler+0x5c>
	{
		stackOneSP = sp;               // Store stack pointer for task 1
     3ac:	e59f3064 	ldr	r3, [pc, #100]	; 418 <SVC_STACK_SIZE+0x18>
     3b0:	e59d2004 	ldr	r2, [sp, #4]
     3b4:	e5832000 	str	r2, [r3]
		taskID = 2;                    // Set the taskID to task 2
     3b8:	e59f3054 	ldr	r3, [pc, #84]	; 414 <SVC_STACK_SIZE+0x14>
     3bc:	e3a02002 	mov	r2, #2
     3c0:	e5832000 	str	r2, [r3]
		currentSP = stackTwoSP;        // Set the current stack pointer to task 2's stack pointer
     3c4:	e59f3050 	ldr	r3, [pc, #80]	; 41c <SVC_STACK_SIZE+0x1c>
     3c8:	e5932000 	ldr	r2, [r3]
     3cc:	e59f304c 	ldr	r3, [pc, #76]	; 420 <SVC_STACK_SIZE+0x20>
     3d0:	e5832000 	str	r2, [r3]
     3d4:	ea000009 	b	400 <SVC_STACK_SIZE>
	}
	else
	{
		stackTwoSP = sp;               // Store stack pointer for task 2
     3d8:	e59f303c 	ldr	r3, [pc, #60]	; 41c <SVC_STACK_SIZE+0x1c>
     3dc:	e59d2004 	ldr	r2, [sp, #4]
     3e0:	e5832000 	str	r2, [r3]
		taskID = 1;                    // Set the taskID to task 1
     3e4:	e59f3028 	ldr	r3, [pc, #40]	; 414 <SVC_STACK_SIZE+0x14>
     3e8:	e3a02001 	mov	r2, #1
     3ec:	e5832000 	str	r2, [r3]
		currentSP = stackOneSP;        // Set the current stack pointer to task 1's stack pointer
     3f0:	e59f3020 	ldr	r3, [pc, #32]	; 418 <SVC_STACK_SIZE+0x18>
     3f4:	e5932000 	ldr	r2, [r3]
     3f8:	e59f3020 	ldr	r3, [pc, #32]	; 420 <SVC_STACK_SIZE+0x20>
     3fc:	e5832000 	str	r2, [r3]
	}
}
     400:	e28dd00c 	add	sp, sp, #12
     404:	e49de004 	pop	{lr}		; (ldr lr, [sp], #4)
     408:	e12fff1e 	bx	lr
     40c:	e0004000 	.word	0xe0004000
     410:	00001d00 	.word	0x00001d00
     414:	40000790 	.word	0x40000790
     418:	40000b9c 	.word	0x40000b9c
     41c:	40000b98 	.word	0x40000b98
     420:	40000b94 	.word	0x40000b94

00000424 <main>:
//  Runs the first task.
//
//  This function never runs passed the call to switch_to_current() so it never exits.
//
int main(void)
{
     424:	e92d4008 	push	{r3, lr}
    initHardware();
     428:	eb00002c 	bl	4e0 <initHardware>

    printString("University of Washington - Context_Switcher Test Application \n");
     42c:	e59f0080 	ldr	r0, [pc, #128]	; 4b4 <main+0x90>
     430:	eb000454 	bl	1588 <printString>

    CreateCriticalSection(cs);
     434:	e59f307c 	ldr	r3, [pc, #124]	; 4b8 <main+0x94>
     438:	e5933000 	ldr	r3, [r3]
     43c:	e1a00003 	mov	r0, r3
     440:	eb0005c8 	bl	1b68 <CreateCriticalSection>

    // Setup initial stacks for tasks
    stackOneSP = initialize_stack(stackOne, (void*)taskOne);
     444:	e59f0070 	ldr	r0, [pc, #112]	; 4bc <main+0x98>
     448:	e59f1070 	ldr	r1, [pc, #112]	; 4c0 <main+0x9c>
     44c:	ebffff56 	bl	1ac <initialize_stack>
     450:	e1a02000 	mov	r2, r0
     454:	e59f3068 	ldr	r3, [pc, #104]	; 4c4 <main+0xa0>
     458:	e5832000 	str	r2, [r3]
    stackTwoSP = initialize_stack(stackTwo, (void*)taskTwo);
     45c:	e59f0064 	ldr	r0, [pc, #100]	; 4c8 <main+0xa4>
     460:	e59f1064 	ldr	r1, [pc, #100]	; 4cc <main+0xa8>
     464:	ebffff50 	bl	1ac <initialize_stack>
     468:	e1a02000 	mov	r2, r0
     46c:	e59f305c 	ldr	r3, [pc, #92]	; 4d0 <main+0xac>
     470:	e5832000 	str	r2, [r3]

    // Set current to first task
    taskID = 1;
     474:	e59f3058 	ldr	r3, [pc, #88]	; 4d4 <main+0xb0>
     478:	e3a02001 	mov	r2, #1
     47c:	e5832000 	str	r2, [r3]
    currentSP = stackOneSP;
     480:	e59f303c 	ldr	r3, [pc, #60]	; 4c4 <main+0xa0>
     484:	e5932000 	ldr	r2, [r3]
     488:	e59f3048 	ldr	r3, [pc, #72]	; 4d8 <main+0xb4>
     48c:	e5832000 	str	r2, [r3]

    initialize_timer_tick();
     490:	eb000477 	bl	1674 <initialize_timer_tick>

    // Run the current task
    switch_to_current();         // This call never returns to this function.
     494:	ebffff22 	bl	124 <switch_to_current>

    // Never gets here.
    printString("Main completed.\n");
     498:	e59f003c 	ldr	r0, [pc, #60]	; 4dc <main+0xb8>
     49c:	eb000439 	bl	1588 <printString>

    DeleteCriticalSection(cs);
     4a0:	e59f3010 	ldr	r3, [pc, #16]	; 4b8 <main+0x94>
     4a4:	e5933000 	ldr	r3, [r3]
     4a8:	e1a00003 	mov	r0, r3
     4ac:	eb0005b5 	bl	1b88 <DeleteCriticalSection>

    while(1);
     4b0:	eafffffe 	b	4b0 <main+0x8c>
     4b4:	00001d08 	.word	0x00001d08
     4b8:	4000078c 	.word	0x4000078c
     4bc:	4000038c 	.word	0x4000038c
     4c0:	00001a68 	.word	0x00001a68
     4c4:	40000b9c 	.word	0x40000b9c
     4c8:	40000794 	.word	0x40000794
     4cc:	00001ae8 	.word	0x00001ae8
     4d0:	40000b98 	.word	0x40000b98
     4d4:	40000790 	.word	0x40000790
     4d8:	40000b94 	.word	0x40000b94
     4dc:	00001d48 	.word	0x00001d48

000004e0 <initHardware>:
 * DESCRIPTION:
 *
 *  initializes all the hardware components.
 */
void initHardware(void)
{
     4e0:	e52de004 	push	{lr}		; (str lr, [sp, #-4]!)
     4e4:	e24dd01c 	sub	sp, sp, #28
    /* Initial SCB Parameters */
    scb2300_t SCBParams = {
     4e8:	e59f20a4 	ldr	r2, [pc, #164]	; 594 <initHardware+0xb4>
     4ec:	e28d3004 	add	r3, sp, #4
     4f0:	e8920007 	ldm	r2, {r0, r1, r2}
     4f4:	e8830007 	stm	r3, {r0, r1, r2}
        .CCLK_Div = 6,             /* CPU Clock divider, cclk */
        .MAMMode = MAMCR_PARTIAL,  /* MAM mode Partial is the preferred setting for Rev -,A parts */
        .MAMTim = MAMTIM_AUTOCFG   /* Let initMAM calculate the optimal MAM timing */
    };

    scb2300_t *pSCBParams = &SCBParams;
     4f8:	e28d3004 	add	r3, sp, #4
     4fc:	e58d3014 	str	r3, [sp, #20]

	INT32U cclk = pSCBParams->PLL_Fcco/pSCBParams->CCLK_Div;
     500:	e59d3014 	ldr	r3, [sp, #20]
     504:	e5932004 	ldr	r2, [r3, #4]
     508:	e59d3014 	ldr	r3, [sp, #20]
     50c:	e5d33008 	ldrb	r3, [r3, #8]
     510:	e1a00002 	mov	r0, r2
     514:	e1a01003 	mov	r1, r3
     518:	eb0005b2 	bl	1be8 <__aeabi_uidiv>
     51c:	e1a03000 	mov	r3, r0
     520:	e58d3010 	str	r3, [sp, #16]
	/*
     * intialize main hardware components
     */
	/* Must turn off MAM before increasing frequency */
    initMAM(cclk, MAMCR_OFF, MAMTIM_7_CLK);
     524:	e59d0010 	ldr	r0, [sp, #16]
     528:	e3a01000 	mov	r1, #0
     52c:	e3a02007 	mov	r2, #7
     530:	eb000081 	bl	73c <initMAM>

    initPLL(pSCBParams);
     534:	e59d0014 	ldr	r0, [sp, #20]
     538:	eb000017 	bl	59c <initPLL>
    initMAM(cclk, pSCBParams->MAMMode, pSCBParams->MAMTim);
     53c:	e59d3014 	ldr	r3, [sp, #20]
     540:	e5d32009 	ldrb	r2, [r3, #9]
     544:	e59d3014 	ldr	r3, [sp, #20]
     548:	e5d3300a 	ldrb	r3, [r3, #10]
     54c:	e59d0010 	ldr	r0, [sp, #16]
     550:	e1a01002 	mov	r1, r2
     554:	e1a02003 	mov	r2, r3
     558:	eb000077 	bl	73c <initMAM>
    initPCLK();
     55c:	eb000109 	bl	988 <initPCLK>

    initGPIO();
     560:	eb00015d 	bl	adc <initGPIO>

    /* intialize specific hardware components for UART0 */
    initUART0(38400, UART_8N1, UART_FIFO_OFF, cclk);
     564:	e3a00c96 	mov	r0, #38400	; 0x9600
     568:	e3a01003 	mov	r1, #3
     56c:	e3a02000 	mov	r2, #0
     570:	e59d3010 	ldr	r3, [sp, #16]
     574:	eb00017a 	bl	b64 <initUART0>
    USERFLASHMODE       0x01
    USERRAMMODE         0x02
    EXTERNALMEMORYMODE  0x03
    */
    //DMI VOLATILE32(MEMMAP) = USERRAMMODE;
    P_SCB_REGS->MEMMAP = USERFLASHMODE;
     578:	e59f3018 	ldr	r3, [pc, #24]	; 598 <initHardware+0xb8>
     57c:	e3a02001 	mov	r2, #1
     580:	e5c32040 	strb	r2, [r3, #64]	; 0x40

    VIC_Init();
     584:	eb0001da 	bl	cf4 <VIC_Init>
}
     588:	e28dd01c 	add	sp, sp, #28
     58c:	e49de004 	pop	{lr}		; (ldr lr, [sp], #4)
     590:	e12fff1e 	bx	lr
     594:	00001d5c 	.word	0x00001d5c
     598:	e01fc000 	.word	0xe01fc000

0000059c <initPLL>:
 * 1. Uses the main oscillator
 * 2. PLL Fcco is fixed at compile time at 288 MHz using external defines
 * 3. It also sets the CCLK to a known stable 48 MHz
 */
static void initPLL(scb2300_t * pSCBParams)
{
     59c:	e24dd010 	sub	sp, sp, #16
     5a0:	e58d0004 	str	r0, [sp, #4]
	INT32U pllcfg;

	/* [1] Check if PLL connected, disconnect if yes. */
    if ((P_SCB_REGS->PLLSTAT) & PLLSTAT_PLLC)
     5a4:	e59f318c 	ldr	r3, [pc, #396]	; 738 <initPLL+0x19c>
     5a8:	e5933088 	ldr	r3, [r3, #136]	; 0x88
     5ac:	e2033402 	and	r3, r3, #33554432	; 0x2000000
     5b0:	e3530000 	cmp	r3, #0
     5b4:	0a000008 	beq	5dc <initPLL+0x40>
    {
    	P_SCB_REGS->PLLCON = PLLCON_PLLE;
     5b8:	e59f3178 	ldr	r3, [pc, #376]	; 738 <initPLL+0x19c>
     5bc:	e3a02001 	mov	r2, #1
     5c0:	e5c32080 	strb	r2, [r3, #128]	; 0x80
        /* Enable PLL, disconnected ( PLLC = 0)*/
    	P_SCB_REGS->PLLFEED = 0xAA;
     5c4:	e59f316c 	ldr	r3, [pc, #364]	; 738 <initPLL+0x19c>
     5c8:	e3e02055 	mvn	r2, #85	; 0x55
     5cc:	e5c3208c 	strb	r2, [r3, #140]	; 0x8c
    	P_SCB_REGS->PLLFEED = 0x55;
     5d0:	e59f3160 	ldr	r3, [pc, #352]	; 738 <initPLL+0x19c>
     5d4:	e3a02055 	mov	r2, #85	; 0x55
     5d8:	e5c3208c 	strb	r2, [r3, #140]	; 0x8c
    }

    /* [2] Disable the PLL once it has been disconnected. */
    P_SCB_REGS->PLLCON  = 0;
     5dc:	e59f3154 	ldr	r3, [pc, #340]	; 738 <initPLL+0x19c>
     5e0:	e3a02000 	mov	r2, #0
     5e4:	e5c32080 	strb	r2, [r3, #128]	; 0x80
    P_SCB_REGS->PLLFEED = 0xAA;
     5e8:	e59f3148 	ldr	r3, [pc, #328]	; 738 <initPLL+0x19c>
     5ec:	e3e02055 	mvn	r2, #85	; 0x55
     5f0:	e5c3208c 	strb	r2, [r3, #140]	; 0x8c
    P_SCB_REGS->PLLFEED = 0x55;
     5f4:	e59f313c 	ldr	r3, [pc, #316]	; 738 <initPLL+0x19c>
     5f8:	e3a02055 	mov	r2, #85	; 0x55
     5fc:	e5c3208c 	strb	r2, [r3, #140]	; 0x8c

    /* [3] Change the CPU Clock Divider setting
     * to speed up operation without the PLL, if desired.
     * We're going to divide by 1 for maximum non-PLL clock speed.
     * NOTE: CCLKCFG adds one internally so we must subtract one */
    P_SCB_REGS->CCLKCFG = (CCLK_DIV_1 - 1);
     600:	e59f3130 	ldr	r3, [pc, #304]	; 738 <initPLL+0x19c>
     604:	e3a02000 	mov	r2, #0
     608:	e5c32104 	strb	r2, [r3, #260]	; 0x104

    /* [4] Enable the main oscillator, select clock source  */
    P_SCB_REGS->SCS |= SCS_OSCEN;
     60c:	e59f3124 	ldr	r3, [pc, #292]	; 738 <initPLL+0x19c>
     610:	e59f2120 	ldr	r2, [pc, #288]	; 738 <initPLL+0x19c>
     614:	e59221a0 	ldr	r2, [r2, #416]	; 0x1a0
     618:	e3822020 	orr	r2, r2, #32
     61c:	e58321a0 	str	r2, [r3, #416]	; 0x1a0

    /* Wait until main OSC is usable */
    do {} while ((P_SCB_REGS->SCS & SCS_OSCSTAT) == 0);
     620:	e59f3110 	ldr	r3, [pc, #272]	; 738 <initPLL+0x19c>
     624:	e59331a0 	ldr	r3, [r3, #416]	; 0x1a0
     628:	e2033040 	and	r3, r3, #64	; 0x40
     62c:	e3530000 	cmp	r3, #0
     630:	0afffffa 	beq	620 <initPLL+0x84>

    /* Select the main osc as the PLL clk source. */
    P_SCB_REGS->CLKSRCSEL = CLKSRC_MAIN_OSC;
     634:	e59f30fc 	ldr	r3, [pc, #252]	; 738 <initPLL+0x19c>
     638:	e3a02001 	mov	r2, #1
     63c:	e5c3210c 	strb	r2, [r3, #268]	; 0x10c
     *  F_cco = (2 * M *F_in)/N
     *      M = 12, N = 1, F_in = 12.000 MHz -> F_cco = 288.000 MHz
     *
     */
    /* [5] Write to the PLLCFG and make it effective with feed sequence */
    pllcfg = (((pSCBParams->PLL_N_Div - 1) << 16) + ((pSCBParams->PLL_M_Mul - 1) << 0));
     640:	e59d3004 	ldr	r3, [sp, #4]
     644:	e5d33002 	ldrb	r3, [r3, #2]
     648:	e2433001 	sub	r3, r3, #1
     64c:	e1a02803 	lsl	r2, r3, #16
     650:	e59d3004 	ldr	r3, [sp, #4]
     654:	e1d330b0 	ldrh	r3, [r3]
     658:	e2433001 	sub	r3, r3, #1
     65c:	e0823003 	add	r3, r2, r3
     660:	e58d300c 	str	r3, [sp, #12]
    P_SCB_REGS->PLLCFG = pllcfg;
     664:	e59f30cc 	ldr	r3, [pc, #204]	; 738 <initPLL+0x19c>
     668:	e59d200c 	ldr	r2, [sp, #12]
     66c:	e5832084 	str	r2, [r3, #132]	; 0x84
    P_SCB_REGS->PLLFEED = 0xAA;
     670:	e59f30c0 	ldr	r3, [pc, #192]	; 738 <initPLL+0x19c>
     674:	e3e02055 	mvn	r2, #85	; 0x55
     678:	e5c3208c 	strb	r2, [r3, #140]	; 0x8c
    P_SCB_REGS->PLLFEED = 0x55;
     67c:	e59f30b4 	ldr	r3, [pc, #180]	; 738 <initPLL+0x19c>
     680:	e3a02055 	mov	r2, #85	; 0x55
     684:	e5c3208c 	strb	r2, [r3, #140]	; 0x8c

    /* [6] Enable the PLL and make it effective with feed sequence */
    P_SCB_REGS->PLLCON  = PLLCON_PLLE;
     688:	e59f30a8 	ldr	r3, [pc, #168]	; 738 <initPLL+0x19c>
     68c:	e3a02001 	mov	r2, #1
     690:	e5c32080 	strb	r2, [r3, #128]	; 0x80
    P_SCB_REGS->PLLFEED = 0xAA;
     694:	e59f309c 	ldr	r3, [pc, #156]	; 738 <initPLL+0x19c>
     698:	e3e02055 	mvn	r2, #85	; 0x55
     69c:	e5c3208c 	strb	r2, [r3, #140]	; 0x8c
    P_SCB_REGS->PLLFEED = 0x55;
     6a0:	e59f3090 	ldr	r3, [pc, #144]	; 738 <initPLL+0x19c>
     6a4:	e3a02055 	mov	r2, #85	; 0x55
     6a8:	e5c3208c 	strb	r2, [r3, #140]	; 0x8c

    /* [7] Change the CPU Clock Divider setting for the operation with the PLL.
     *     It's critical to do this before connecting the PLL.
     * NOTE: CCLKCFG adds one internally so we must subtract one
     * Divide F_cco down to get the CCLK output. */
    P_SCB_REGS->CCLKCFG = (pSCBParams->CCLK_Div - 1);
     6ac:	e59f3084 	ldr	r3, [pc, #132]	; 738 <initPLL+0x19c>
     6b0:	e59d2004 	ldr	r2, [sp, #4]
     6b4:	e5d22008 	ldrb	r2, [r2, #8]
     6b8:	e2422001 	sub	r2, r2, #1
     6bc:	e20220ff 	and	r2, r2, #255	; 0xff
     6c0:	e5c32104 	strb	r2, [r3, #260]	; 0x104

    /* [8] Wait for the PLL to lock to set frequency
     * TODO: Add timeout for slow FREF */
    do {} while(((P_SCB_REGS->PLLSTAT) & PLLSTAT_PLOCK) == 0);
     6c4:	e59f306c 	ldr	r3, [pc, #108]	; 738 <initPLL+0x19c>
     6c8:	e5933088 	ldr	r3, [r3, #136]	; 0x88
     6cc:	e2033301 	and	r3, r3, #67108864	; 0x4000000
     6d0:	e3530000 	cmp	r3, #0
     6d4:	0afffffa 	beq	6c4 <initPLL+0x128>
    do {} while(((P_SCB_REGS->PLLSTAT) & 0x00FF7FFF) != pllcfg);
     6d8:	e59f3058 	ldr	r3, [pc, #88]	; 738 <initPLL+0x19c>
     6dc:	e5933088 	ldr	r3, [r3, #136]	; 0x88
     6e0:	e3c334ff 	bic	r3, r3, #-16777216	; 0xff000000
     6e4:	e3c33902 	bic	r3, r3, #32768	; 0x8000
     6e8:	e59d200c 	ldr	r2, [sp, #12]
     6ec:	e1530002 	cmp	r3, r2
     6f0:	1afffff8 	bne	6d8 <initPLL+0x13c>

    /* [9] Enable and connect the PLL as the clock source */
    P_SCB_REGS->PLLCON = (PLLCON_PLLE | PLLCON_PLLC);
     6f4:	e59f303c 	ldr	r3, [pc, #60]	; 738 <initPLL+0x19c>
     6f8:	e3a02003 	mov	r2, #3
     6fc:	e5c32080 	strb	r2, [r3, #128]	; 0x80
    P_SCB_REGS->PLLFEED = 0xAA;
     700:	e59f3030 	ldr	r3, [pc, #48]	; 738 <initPLL+0x19c>
     704:	e3e02055 	mvn	r2, #85	; 0x55
     708:	e5c3208c 	strb	r2, [r3, #140]	; 0x8c
    P_SCB_REGS->PLLFEED = 0x55;
     70c:	e59f3024 	ldr	r3, [pc, #36]	; 738 <initPLL+0x19c>
     710:	e3a02055 	mov	r2, #85	; 0x55
     714:	e5c3208c 	strb	r2, [r3, #140]	; 0x8c

    /* Check connect bit status and wait for connection. */
    do {} while(((P_SCB_REGS->PLLSTAT) & PLLSTAT_PLLC) == 0);
     718:	e59f3018 	ldr	r3, [pc, #24]	; 738 <initPLL+0x19c>
     71c:	e5933088 	ldr	r3, [r3, #136]	; 0x88
     720:	e2033402 	and	r3, r3, #33554432	; 0x2000000
     724:	e3530000 	cmp	r3, #0
     728:	0afffffa 	beq	718 <initPLL+0x17c>

    return;
     72c:	e1a00000 	nop			; (mov r0, r0)
}
     730:	e28dd010 	add	sp, sp, #16
     734:	e12fff1e 	bx	lr
     738:	e01fc000 	.word	0xe01fc000

0000073c <initMAM>:
 *
 *   initMAM(12000000, MAMCR_PARTIAL);
 */

static void initMAM(INT32U cclk, INT8U mamcr, INT8U mamtim_override)
{
     73c:	e24dd008 	sub	sp, sp, #8
     740:	e58d0004 	str	r0, [sp, #4]
     744:	e1a03002 	mov	r3, r2
     748:	e1a02001 	mov	r2, r1
     74c:	e5cd2003 	strb	r2, [sp, #3]
     750:	e5cd3002 	strb	r3, [sp, #2]
    /* disable MAM */
	P_SCB_REGS->MAMCR	= MAMCR_OFF;
     754:	e59f3064 	ldr	r3, [pc, #100]	; 7c0 <initMAM+0x84>
     758:	e3a02000 	mov	r2, #0
     75c:	e5c32000 	strb	r2, [r3]

	/* Either set according to override parameter or optimally calculate */
	if( (0 < mamtim_override) && (mamtim_override <= MAMTIM_MAX_CLK) )
     760:	e5dd3002 	ldrb	r3, [sp, #2]
     764:	e3530000 	cmp	r3, #0
     768:	0a000006 	beq	788 <initMAM+0x4c>
     76c:	e5dd3002 	ldrb	r3, [sp, #2]
     770:	e3530007 	cmp	r3, #7
     774:	8a000003 	bhi	788 <initMAM+0x4c>
	{
		P_SCB_REGS->MAMTIM	= mamtim_override;
     778:	e59f3040 	ldr	r3, [pc, #64]	; 7c0 <initMAM+0x84>
     77c:	e5dd2002 	ldrb	r2, [sp, #2]
     780:	e5c32004 	strb	r2, [r3, #4]
     784:	ea000008 	b	7ac <initMAM+0x70>
	}
	else /* if( (mamtim_override == 0) || MAMTIM_MAX_CLK < mamtim_override  ) */
	{
		P_SCB_REGS->MAMTIM	= (((cclk)+19999999)/20000000); /* stable setting */
     788:	e59f2030 	ldr	r2, [pc, #48]	; 7c0 <initMAM+0x84>
     78c:	e59d1004 	ldr	r1, [sp, #4]
     790:	e59f302c 	ldr	r3, [pc, #44]	; 7c4 <initMAM+0x88>
     794:	e0813003 	add	r3, r1, r3
     798:	e59f1028 	ldr	r1, [pc, #40]	; 7c8 <initMAM+0x8c>
     79c:	e0830391 	umull	r0, r3, r1, r3
     7a0:	e1a03ba3 	lsr	r3, r3, #23
     7a4:	e20330ff 	and	r3, r3, #255	; 0xff
     7a8:	e5c23004 	strb	r3, [r2, #4]
	}

	P_SCB_REGS->MAMCR	= mamcr;
     7ac:	e59f300c 	ldr	r3, [pc, #12]	; 7c0 <initMAM+0x84>
     7b0:	e5dd2003 	ldrb	r2, [sp, #3]
     7b4:	e5c32000 	strb	r2, [r3]
}
     7b8:	e28dd008 	add	sp, sp, #8
     7bc:	e12fff1e 	bx	lr
     7c0:	e01fc000 	.word	0xe01fc000
     7c4:	01312cff 	.word	0x01312cff
     7c8:	6b5fca6b 	.word	0x6b5fca6b

000007cc <initCCLK>:
 *  none...
 *
 */

void initCCLK( scb2300_t * pSCBParams )
{
     7cc:	e92d4010 	push	{r4, lr}
     7d0:	e24dd008 	sub	sp, sp, #8
     7d4:	e58d0004 	str	r0, [sp, #4]
    /* Divide F_cco down to get the cclk Divider. (Fcco / cclk = clock divider)
     * NOTE: CCLKCFG adds one internally so we must subtract one */
	P_SCB_REGS->CCLKCFG = ((pSCBParams->PLL_Fcco/pSCBParams->CCLK_Div) - 1);
     7d8:	e59f403c 	ldr	r4, [pc, #60]	; 81c <initCCLK+0x50>
     7dc:	e59d3004 	ldr	r3, [sp, #4]
     7e0:	e5932004 	ldr	r2, [r3, #4]
     7e4:	e59d3004 	ldr	r3, [sp, #4]
     7e8:	e5d33008 	ldrb	r3, [r3, #8]
     7ec:	e1a00002 	mov	r0, r2
     7f0:	e1a01003 	mov	r1, r3
     7f4:	eb0004fb 	bl	1be8 <__aeabi_uidiv>
     7f8:	e1a03000 	mov	r3, r0
     7fc:	e20330ff 	and	r3, r3, #255	; 0xff
     800:	e2433001 	sub	r3, r3, #1
     804:	e20330ff 	and	r3, r3, #255	; 0xff
     808:	e5c43104 	strb	r3, [r4, #260]	; 0x104

    return;
     80c:	e1a00000 	nop			; (mov r0, r0)
}
     810:	e28dd008 	add	sp, sp, #8
     814:	e8bd4010 	pop	{r4, lr}
     818:	e12fff1e 	bx	lr
     81c:	e01fc000 	.word	0xe01fc000

00000820 <getFcclk>:


INT32U getFcclk( void )
{
     820:	e52de004 	push	{lr}		; (str lr, [sp, #-4]!)
     824:	e24dd024 	sub	sp, sp, #36	; 0x24
    INT8U  N_div;
    INT8U  plle;
    INT8U  pllc;

	/* Determine Fosc from configured clock source */
    clksrcsel = P_SCB_REGS->CLKSRCSEL;
     828:	e59f314c 	ldr	r3, [pc, #332]	; 97c <getFcclk+0x15c>
     82c:	e5d3310c 	ldrb	r3, [r3, #268]	; 0x10c
     830:	e5cd3017 	strb	r3, [sp, #23]
    if( (clksrcsel & CLKSRCSEL_MASK) == CLKSRC_INT_RC )
     834:	e5dd3017 	ldrb	r3, [sp, #23]
     838:	e2033003 	and	r3, r3, #3
     83c:	e3530000 	cmp	r3, #0
     840:	1a000002 	bne	850 <getFcclk+0x30>
    {
    	Fosc = FOSC_INT_RC;
     844:	e59f3134 	ldr	r3, [pc, #308]	; 980 <getFcclk+0x160>
     848:	e58d301c 	str	r3, [sp, #28]
     84c:	ea00000f 	b	890 <getFcclk+0x70>
    }
    else if( (clksrcsel & CLKSRCSEL_MASK) == CLKSRC_MAIN_OSC )
     850:	e5dd3017 	ldrb	r3, [sp, #23]
     854:	e2033003 	and	r3, r3, #3
     858:	e3530001 	cmp	r3, #1
     85c:	1a000002 	bne	86c <getFcclk+0x4c>
    {
    	Fosc = FOSC_MAIN;
     860:	e59f311c 	ldr	r3, [pc, #284]	; 984 <getFcclk+0x164>
     864:	e58d301c 	str	r3, [sp, #28]
     868:	ea000008 	b	890 <getFcclk+0x70>
    }
    else if( (clksrcsel & CLKSRCSEL_MASK) == CLKSRC_MIN_RTC )
     86c:	e5dd3017 	ldrb	r3, [sp, #23]
     870:	e2033003 	and	r3, r3, #3
     874:	e3530002 	cmp	r3, #2
     878:	1a000002 	bne	888 <getFcclk+0x68>
    {
    	Fosc = FOSC_RTC;
     87c:	e3a03902 	mov	r3, #32768	; 0x8000
     880:	e58d301c 	str	r3, [sp, #28]
     884:	ea000001 	b	890 <getFcclk+0x70>
    }
    else /* Invalid clock source */
    {
    	return -1;
     888:	e3e03000 	mvn	r3, #0
     88c:	ea000036 	b	96c <getFcclk+0x14c>
    }

    /* Determine Fpllclk based on PLL configuration */
    pllstat = P_SCB_REGS->PLLSTAT;
     890:	e59f30e4 	ldr	r3, [pc, #228]	; 97c <getFcclk+0x15c>
     894:	e5933088 	ldr	r3, [r3, #136]	; 0x88
     898:	e58d3010 	str	r3, [sp, #16]
    M_mul = (pllstat & PLLSTAT_MSEL_MASK) + 1;
     89c:	e59d3010 	ldr	r3, [sp, #16]
     8a0:	e1a03803 	lsl	r3, r3, #16
     8a4:	e1a03823 	lsr	r3, r3, #16
     8a8:	e1a03883 	lsl	r3, r3, #17
     8ac:	e1a038a3 	lsr	r3, r3, #17
     8b0:	e1a03803 	lsl	r3, r3, #16
     8b4:	e1a03823 	lsr	r3, r3, #16
     8b8:	e2833001 	add	r3, r3, #1
     8bc:	e1cd30be 	strh	r3, [sp, #14]
    N_div = ((pllstat & PLLSTAT_NSEL_MASK) >> 16) + 1;
     8c0:	e59d3010 	ldr	r3, [sp, #16]
     8c4:	e20338ff 	and	r3, r3, #16711680	; 0xff0000
     8c8:	e1a03823 	lsr	r3, r3, #16
     8cc:	e20330ff 	and	r3, r3, #255	; 0xff
     8d0:	e2833001 	add	r3, r3, #1
     8d4:	e5cd300d 	strb	r3, [sp, #13]
    plle  = (pllstat & PLLSTAT_PLLE) >> 24;
     8d8:	e59d3010 	ldr	r3, [sp, #16]
     8dc:	e2033401 	and	r3, r3, #16777216	; 0x1000000
     8e0:	e1a03c23 	lsr	r3, r3, #24
     8e4:	e5cd300c 	strb	r3, [sp, #12]
    pllc  = (pllstat & PLLSTAT_PLLC) >> 25;
     8e8:	e59d3010 	ldr	r3, [sp, #16]
     8ec:	e2033402 	and	r3, r3, #33554432	; 0x2000000
     8f0:	e1a03ca3 	lsr	r3, r3, #25
     8f4:	e5cd300b 	strb	r3, [sp, #11]

    if( plle && pllc )
     8f8:	e5dd300c 	ldrb	r3, [sp, #12]
     8fc:	e3530000 	cmp	r3, #0
     900:	0a00000d 	beq	93c <getFcclk+0x11c>
     904:	e5dd300b 	ldrb	r3, [sp, #11]
     908:	e3530000 	cmp	r3, #0
     90c:	0a00000a 	beq	93c <getFcclk+0x11c>
    {
    	Fpllclk = (2 * M_mul * Fosc) / N_div;
     910:	e1dd30be 	ldrh	r3, [sp, #14]
     914:	e59d201c 	ldr	r2, [sp, #28]
     918:	e0030392 	mul	r3, r2, r3
     91c:	e1a02083 	lsl	r2, r3, #1
     920:	e5dd300d 	ldrb	r3, [sp, #13]
     924:	e1a00002 	mov	r0, r2
     928:	e1a01003 	mov	r1, r3
     92c:	eb0004ad 	bl	1be8 <__aeabi_uidiv>
     930:	e1a03000 	mov	r3, r0
     934:	e58d3018 	str	r3, [sp, #24]
     938:	ea000001 	b	944 <getFcclk+0x124>
    }
    else
    {
    	Fpllclk = Fosc;
     93c:	e59d301c 	ldr	r3, [sp, #28]
     940:	e58d3018 	str	r3, [sp, #24]
    }

    /* Find out cclk frequency based on CCLKCFG */
    Fcclk = Fpllclk/(P_SCB_REGS->CCLKCFG + 1);
     944:	e59f3030 	ldr	r3, [pc, #48]	; 97c <getFcclk+0x15c>
     948:	e5d33104 	ldrb	r3, [r3, #260]	; 0x104
     94c:	e20330ff 	and	r3, r3, #255	; 0xff
     950:	e2833001 	add	r3, r3, #1
     954:	e59d0018 	ldr	r0, [sp, #24]
     958:	e1a01003 	mov	r1, r3
     95c:	eb0004a1 	bl	1be8 <__aeabi_uidiv>
     960:	e1a03000 	mov	r3, r0
     964:	e58d3004 	str	r3, [sp, #4]

    return Fcclk;
     968:	e59d3004 	ldr	r3, [sp, #4]
}
     96c:	e1a00003 	mov	r0, r3
     970:	e28dd024 	add	sp, sp, #36	; 0x24
     974:	e49de004 	pop	{lr}		; (ldr lr, [sp], #4)
     978:	e12fff1e 	bx	lr
     97c:	e01fc000 	.word	0xe01fc000
     980:	003d0900 	.word	0x003d0900
     984:	00b71b00 	.word	0x00b71b00

00000988 <initPCLK>:
 *
 */

static void initPCLK(void)
{
	P_SCB_REGS->PCLKSEL0 =
     988:	e59f3014 	ldr	r3, [pc, #20]	; 9a4 <initPCLK+0x1c>
     98c:	e3a02f51 	mov	r2, #324	; 0x144
     990:	e58321a8 	str	r2, [r3, #424]	; 0x1a8
        | SET_PCLK (PCLK_CAN1,    PDIV_4)
        | SET_PCLK (PCLK_CAN2,    PDIV_4)
        | SET_PCLK (PCLK_ACF,     PDIV_4)
    );

	P_SCB_REGS->PCLKSEL1 =
     994:	e59f3008 	ldr	r3, [pc, #8]	; 9a4 <initPCLK+0x1c>
     998:	e3a02805 	mov	r2, #327680	; 0x50000
     99c:	e58321ac 	str	r2, [r3, #428]	; 0x1ac
        | SET_PCLK (PCLK_I2C2,    PDIV_4)
        | SET_PCLK (PCLK_I2S,     PDIV_4)
        | SET_PCLK (PCLK_MCI,     PDIV_4)
        | SET_PCLK (PCLK_SYSCON,  PDIV_4)
    );
}
     9a0:	e12fff1e 	bx	lr
     9a4:	e01fc000 	.word	0xe01fc000

000009a8 <pinConfigurator>:
 *  experimental
 *
 */

void pinConfigurator(void)
{
     9a8:	e24dd010 	sub	sp, sp, #16
    INT32U n;
    INT32U i;
    INT32U pattern;

    n=0;
     9ac:	e3a03000 	mov	r3, #0
     9b0:	e58d300c 	str	r3, [sp, #12]

    while (mcuPins[n].pinSelect != 0)
     9b4:	ea000037 	b	a98 <pinConfigurator+0xf0>
    {
        pattern=0x00000000;
     9b8:	e3a03000 	mov	r3, #0
     9bc:	e58d3004 	str	r3, [sp, #4]

        for (i=0; i<16; i++)
     9c0:	e3a03000 	mov	r3, #0
     9c4:	e58d3008 	str	r3, [sp, #8]
     9c8:	ea000022 	b	a58 <pinConfigurator+0xb0>
        {
            pattern |= (mcuPins[n].pin[i].multiplex << (mcuPins[n].pin[i].position*2));
     9cc:	e59f1100 	ldr	r1, [pc, #256]	; ad4 <pinConfigurator+0x12c>
     9d0:	e59d200c 	ldr	r2, [sp, #12]
     9d4:	e1a03002 	mov	r3, r2
     9d8:	e1a03183 	lsl	r3, r3, #3
     9dc:	e0833002 	add	r3, r3, r2
     9e0:	e1a03083 	lsl	r3, r3, #1
     9e4:	e59d2008 	ldr	r2, [sp, #8]
     9e8:	e0832002 	add	r2, r3, r2
     9ec:	e3a03005 	mov	r3, #5
     9f0:	e1a02082 	lsl	r2, r2, #1
     9f4:	e0812002 	add	r2, r1, r2
     9f8:	e0823003 	add	r3, r2, r3
     9fc:	e5d33000 	ldrb	r3, [r3]
     a00:	e1a01003 	mov	r1, r3
     a04:	e59f00c8 	ldr	r0, [pc, #200]	; ad4 <pinConfigurator+0x12c>
     a08:	e59d200c 	ldr	r2, [sp, #12]
     a0c:	e1a03002 	mov	r3, r2
     a10:	e1a03183 	lsl	r3, r3, #3
     a14:	e0833002 	add	r3, r3, r2
     a18:	e1a03083 	lsl	r3, r3, #1
     a1c:	e59d2008 	ldr	r2, [sp, #8]
     a20:	e0832002 	add	r2, r3, r2
     a24:	e3a03004 	mov	r3, #4
     a28:	e1a02082 	lsl	r2, r2, #1
     a2c:	e0802002 	add	r2, r0, r2
     a30:	e0823003 	add	r3, r2, r3
     a34:	e5d33000 	ldrb	r3, [r3]
     a38:	e1a03083 	lsl	r3, r3, #1
     a3c:	e1a03311 	lsl	r3, r1, r3
     a40:	e59d2004 	ldr	r2, [sp, #4]
     a44:	e1823003 	orr	r3, r2, r3
     a48:	e58d3004 	str	r3, [sp, #4]

    while (mcuPins[n].pinSelect != 0)
    {
        pattern=0x00000000;

        for (i=0; i<16; i++)
     a4c:	e59d3008 	ldr	r3, [sp, #8]
     a50:	e2833001 	add	r3, r3, #1
     a54:	e58d3008 	str	r3, [sp, #8]
     a58:	e59d3008 	ldr	r3, [sp, #8]
     a5c:	e353000f 	cmp	r3, #15
     a60:	9affffd9 	bls	9cc <pinConfigurator+0x24>
        {
            pattern |= (mcuPins[n].pin[i].multiplex << (mcuPins[n].pin[i].position*2));
        }

        VOLATILE32(mcuPins[n].pinSelect) = pattern; /* set the complete world */
     a64:	e59f1068 	ldr	r1, [pc, #104]	; ad4 <pinConfigurator+0x12c>
     a68:	e59d200c 	ldr	r2, [sp, #12]
     a6c:	e1a03002 	mov	r3, r2
     a70:	e1a03183 	lsl	r3, r3, #3
     a74:	e0833002 	add	r3, r3, r2
     a78:	e1a03103 	lsl	r3, r3, #2
     a7c:	e0813003 	add	r3, r1, r3
     a80:	e5933000 	ldr	r3, [r3]
     a84:	e59d2004 	ldr	r2, [sp, #4]
     a88:	e5832000 	str	r2, [r3]
        n ++;
     a8c:	e59d300c 	ldr	r3, [sp, #12]
     a90:	e2833001 	add	r3, r3, #1
     a94:	e58d300c 	str	r3, [sp, #12]
    INT32U i;
    INT32U pattern;

    n=0;

    while (mcuPins[n].pinSelect != 0)
     a98:	e59f1034 	ldr	r1, [pc, #52]	; ad4 <pinConfigurator+0x12c>
     a9c:	e59d200c 	ldr	r2, [sp, #12]
     aa0:	e1a03002 	mov	r3, r2
     aa4:	e1a03183 	lsl	r3, r3, #3
     aa8:	e0833002 	add	r3, r3, r2
     aac:	e1a03103 	lsl	r3, r3, #2
     ab0:	e0813003 	add	r3, r1, r3
     ab4:	e5933000 	ldr	r3, [r3]
     ab8:	e3530000 	cmp	r3, #0
     abc:	1affffbd 	bne	9b8 <pinConfigurator+0x10>
     * NOTE:
     *
     * Complete by setting the ETM to be disabled on PINSEL10
     *
     */
    VOLATILE32(PINSEL10) = ~(BIT(3)) & PINSEL10_MASK;   /* disable ETM, mask reserved bit to 0 */
     ac0:	e59f3010 	ldr	r3, [pc, #16]	; ad8 <pinConfigurator+0x130>
     ac4:	e3a02000 	mov	r2, #0
     ac8:	e5832000 	str	r2, [r3]

}
     acc:	e28dd010 	add	sp, sp, #16
     ad0:	e12fff1e 	bx	lr
     ad4:	40000200 	.word	0x40000200
     ad8:	e002c028 	.word	0xe002c028

00000adc <initGPIO>:
 *  none...
 *
 */

static void initGPIO(void)
{
     adc:	e92d4008 	push	{r3, lr}
    pinConfigurator();
     ae0:	ebffffb0 	bl	9a8 <pinConfigurator>
     *  SCS controls whether the LPC2378 is set to use the legancy registers or the new
     *  fast GPIO control registers.
     *
     */

    P_SCB_REGS->SCS |= BIT(0);  /* Fast GPIO / new registers */
     ae4:	e59f3064 	ldr	r3, [pc, #100]	; b50 <initGPIO+0x74>
     ae8:	e59f2060 	ldr	r2, [pc, #96]	; b50 <initGPIO+0x74>
     aec:	e59221a0 	ldr	r2, [r2, #416]	; 0x1a0
     af0:	e3822001 	orr	r2, r2, #1
     af4:	e58321a0 	str	r2, [r3, #416]	; 0x1a0

    /* Set Port0 Fast GPIO direction register outputs */
    VOLATILE32(FIO0DIR) |= ( SD_LED_BIT | USBC_LED_BIT | USB_LINK_LED_BIT );
     af8:	e59f2054 	ldr	r2, [pc, #84]	; b54 <initGPIO+0x78>
     afc:	e59f3050 	ldr	r3, [pc, #80]	; b54 <initGPIO+0x78>
     b00:	e5933000 	ldr	r3, [r3]
     b04:	e3833981 	orr	r3, r3, #2113536	; 0x204000
     b08:	e3833a02 	orr	r3, r3, #8192	; 0x2000
     b0c:	e5823000 	str	r3, [r2]

    /* Set Port1 Fast GPIO direction register outputs */
    VOLATILE32(FIO1DIR) |= ( LCD_BL_BIT );
     b10:	e59f3040 	ldr	r3, [pc, #64]	; b58 <initGPIO+0x7c>
     b14:	e59f203c 	ldr	r2, [pc, #60]	; b58 <initGPIO+0x7c>
     b18:	e5922000 	ldr	r2, [r2]
     b1c:	e3822301 	orr	r2, r2, #67108864	; 0x4000000
     b20:	e5832000 	str	r2, [r3]

    /* Turn off MCIPWR SD LED (near bottom left corner of LCD) */
    VOLATILE32(FIO0CLR)  = SD_LED_BIT;
     b24:	e59f3030 	ldr	r3, [pc, #48]	; b5c <initGPIO+0x80>
     b28:	e3a02602 	mov	r2, #2097152	; 0x200000
     b2c:	e5832000 	str	r2, [r3]
    /* Turn off USBC LED */
    VOLATILE32(FIO0SET)  = USBC_LED_BIT;
     b30:	e59f3028 	ldr	r3, [pc, #40]	; b60 <initGPIO+0x84>
     b34:	e3a02901 	mov	r2, #16384	; 0x4000
     b38:	e5832000 	str	r2, [r3]
    /* Turn off USB_LINK LED */
    VOLATILE32(FIO0SET)  = USB_LINK_LED_BIT;
     b3c:	e59f301c 	ldr	r3, [pc, #28]	; b60 <initGPIO+0x84>
     b40:	e3a02a02 	mov	r2, #8192	; 0x2000
     b44:	e5832000 	str	r2, [r3]

}
     b48:	e8bd4008 	pop	{r3, lr}
     b4c:	e12fff1e 	bx	lr
     b50:	e01fc000 	.word	0xe01fc000
     b54:	3fffc000 	.word	0x3fffc000
     b58:	3fffc020 	.word	0x3fffc020
     b5c:	3fffc01c 	.word	0x3fffc01c
     b60:	3fffc018 	.word	0x3fffc018

00000b64 <initUART0>:
 *  experimental
 *
 */

void initUART0(INT32U baud, INT8U mode, INT8U fmode, INT32U cclk)
{
     b64:	e52de004 	push	{lr}		; (str lr, [sp, #-4]!)
     b68:	e24dd024 	sub	sp, sp, #36	; 0x24
     b6c:	e58d000c 	str	r0, [sp, #12]
     b70:	e58d3004 	str	r3, [sp, #4]
     b74:	e1a03001 	mov	r3, r1
     b78:	e5cd300b 	strb	r3, [sp, #11]
     b7c:	e1a03002 	mov	r3, r2
     b80:	e5cd300a 	strb	r3, [sp, #10]
    INT8U pclk_sel;
    INT32U uart_divisor_latch;
    INT8U udl_roundbit;

    /* find out UART0's pclk divider */
    pclk_sel = GET_PCLK_SEL( P_SCB_REGS->PCLKSEL0, PCLK_UART0 );
     b84:	e59f3160 	ldr	r3, [pc, #352]	; cec <initUART0+0x188>
     b88:	e59331a8 	ldr	r3, [r3, #424]	; 0x1a8
     b8c:	e1a03323 	lsr	r3, r3, #6
     b90:	e20330ff 	and	r3, r3, #255	; 0xff
     b94:	e2033003 	and	r3, r3, #3
     b98:	e5cd301f 	strb	r3, [sp, #31]
    pclk_div = ( pclk_sel == 0 ? 4 : \
     b9c:	e5dd301f 	ldrb	r3, [sp, #31]
     ba0:	e3530000 	cmp	r3, #0
     ba4:	0a000010 	beq	bec <initUART0+0x88>
     ba8:	e5dd301f 	ldrb	r3, [sp, #31]
     bac:	e3530001 	cmp	r3, #1
     bb0:	0a00000b 	beq	be4 <initUART0+0x80>
     bb4:	e5dd301f 	ldrb	r3, [sp, #31]
     bb8:	e3530002 	cmp	r3, #2
     bbc:	0a000006 	beq	bdc <initUART0+0x78>
     bc0:	e5dd301f 	ldrb	r3, [sp, #31]
     bc4:	e3530003 	cmp	r3, #3
     bc8:	1a000001 	bne	bd4 <initUART0+0x70>
     bcc:	e3a03008 	mov	r3, #8
     bd0:	ea000006 	b	bf0 <initUART0+0x8c>
     bd4:	e3a03000 	mov	r3, #0
     bd8:	ea000004 	b	bf0 <initUART0+0x8c>
     bdc:	e3a03002 	mov	r3, #2
     be0:	ea000002 	b	bf0 <initUART0+0x8c>
     be4:	e3a03001 	mov	r3, #1
     be8:	ea000000 	b	bf0 <initUART0+0x8c>
     bec:	e3a03004 	mov	r3, #4
     bf0:	e5cd301e 	strb	r3, [sp, #30]
    		     pclk_sel == 1 ? 1 : \
    		     pclk_sel == 2 ? 2 : \
    		     pclk_sel == 3 ? 8 : \
    		     0 ); /* this evaluation should never happen */
    if( pclk_div == 0 )
     bf4:	e5dd301e 	ldrb	r3, [sp, #30]
     bf8:	e3530000 	cmp	r3, #0
     bfc:	1a000000 	bne	c04 <initUART0+0xa0>
    {
    	return;
     c00:	ea000036 	b	ce0 <initUART0+0x17c>
    /* Calculate divsor latch value based on cclk and UART0's pclk divider
     * We multiply by 2 to determine if it is odd or even
     * If it is even, then there is no round bit
     * If it is odd, then there is a round up
     * Shift it back */
    uart_divisor_latch = ( 2 * ( (cclk/pclk_div) / ( (baud) * 16) ) );
     c04:	e5dd301e 	ldrb	r3, [sp, #30]
     c08:	e59d0004 	ldr	r0, [sp, #4]
     c0c:	e1a01003 	mov	r1, r3
     c10:	eb0003f4 	bl	1be8 <__aeabi_uidiv>
     c14:	e1a03000 	mov	r3, r0
     c18:	e1a02003 	mov	r2, r3
     c1c:	e59d300c 	ldr	r3, [sp, #12]
     c20:	e1a03203 	lsl	r3, r3, #4
     c24:	e1a00002 	mov	r0, r2
     c28:	e1a01003 	mov	r1, r3
     c2c:	eb0003ed 	bl	1be8 <__aeabi_uidiv>
     c30:	e1a03000 	mov	r3, r0
     c34:	e1a03083 	lsl	r3, r3, #1
     c38:	e58d3018 	str	r3, [sp, #24]
    udl_roundbit = ( (uart_divisor_latch & 0x1) == 0 ? 0 : 1 );
     c3c:	e59d3018 	ldr	r3, [sp, #24]
     c40:	e2033001 	and	r3, r3, #1
     c44:	e3530000 	cmp	r3, #0
     c48:	03a03000 	moveq	r3, #0
     c4c:	13a03001 	movne	r3, #1
     c50:	e20330ff 	and	r3, r3, #255	; 0xff
     c54:	e5cd3017 	strb	r3, [sp, #23]
    uart_divisor_latch /= 2;
     c58:	e59d3018 	ldr	r3, [sp, #24]
     c5c:	e1a030a3 	lsr	r3, r3, #1
     c60:	e58d3018 	str	r3, [sp, #24]

    /* stop any transmissions */
    P_UART0_REGS->TER = 0;
     c64:	e59f3084 	ldr	r3, [pc, #132]	; cf0 <initUART0+0x18c>
     c68:	e3a02000 	mov	r2, #0
     c6c:	e5c32030 	strb	r2, [r3, #48]	; 0x30

    P_UART0_REGS->LCR = ULCR_DLAB_ENABLE;
     c70:	e59f3078 	ldr	r3, [pc, #120]	; cf0 <initUART0+0x18c>
     c74:	e3e0207f 	mvn	r2, #127	; 0x7f
     c78:	e5c3200c 	strb	r2, [r3, #12]
    P_UART0_REGS->DLL = (uint8_t) uart_divisor_latch + udl_roundbit;
     c7c:	e59f306c 	ldr	r3, [pc, #108]	; cf0 <initUART0+0x18c>
     c80:	e59d2018 	ldr	r2, [sp, #24]
     c84:	e20210ff 	and	r1, r2, #255	; 0xff
     c88:	e5dd2017 	ldrb	r2, [sp, #23]
     c8c:	e0812002 	add	r2, r1, r2
     c90:	e20220ff 	and	r2, r2, #255	; 0xff
     c94:	e5c32000 	strb	r2, [r3]
    P_UART0_REGS->DLM = (uint8_t)(uart_divisor_latch >> 8);
     c98:	e59f3050 	ldr	r3, [pc, #80]	; cf0 <initUART0+0x18c>
     c9c:	e59d2018 	ldr	r2, [sp, #24]
     ca0:	e1a02422 	lsr	r2, r2, #8
     ca4:	e20220ff 	and	r2, r2, #255	; 0xff
     ca8:	e5c32004 	strb	r2, [r3, #4]
    P_UART0_REGS->LCR = (mode & ~ULCR_DLAB_ENABLE);
     cac:	e59f303c 	ldr	r3, [pc, #60]	; cf0 <initUART0+0x18c>
     cb0:	e5dd200b 	ldrb	r2, [sp, #11]
     cb4:	e202207f 	and	r2, r2, #127	; 0x7f
     cb8:	e20220ff 	and	r2, r2, #255	; 0xff
     cbc:	e5c3200c 	strb	r2, [r3, #12]

    /* Set FIFO modes and Reset */
    P_UART0_REGS->FCR = fmode | UFCR_TXFIFO_RESET | UFCR_RXFIFO_RESET;
     cc0:	e59f3028 	ldr	r3, [pc, #40]	; cf0 <initUART0+0x18c>
     cc4:	e5dd200a 	ldrb	r2, [sp, #10]
     cc8:	e3822006 	orr	r2, r2, #6
     ccc:	e20220ff 	and	r2, r2, #255	; 0xff
     cd0:	e5c32008 	strb	r2, [r3, #8]

    /* resume transmissions */
    P_UART0_REGS->TER = UTER_TXEN;
     cd4:	e59f3014 	ldr	r3, [pc, #20]	; cf0 <initUART0+0x18c>
     cd8:	e3e0207f 	mvn	r2, #127	; 0x7f
     cdc:	e5c32030 	strb	r2, [r3, #48]	; 0x30
}
     ce0:	e28dd024 	add	sp, sp, #36	; 0x24
     ce4:	e49de004 	pop	{lr}		; (ldr lr, [sp], #4)
     ce8:	e12fff1e 	bx	lr
     cec:	e01fc000 	.word	0xe01fc000
     cf0:	e000c000 	.word	0xe000c000

00000cf4 <VIC_Init>:
*********************************************************************************************************
*/

void VIC_Init(void)
{
    WRITEREG32(VICINTENCLEAR, 0xFFFFFFFF);                      /* Disable ALL interrupts                                   */
     cf4:	e59f31a0 	ldr	r3, [pc, #416]	; e9c <VIC_Init+0x1a8>
     cf8:	e3e02000 	mvn	r2, #0
     cfc:	e5832000 	str	r2, [r3]
    WRITEREG32(VICADDRESS, 0);                                  /* Acknowlege any pending VIC interrupt                     */
     d00:	e3e030ff 	mvn	r3, #255	; 0xff
     d04:	e3a02000 	mov	r2, #0
     d08:	e5832000 	str	r2, [r3]
    WRITEREG32(VICPROTECTION, 0);                               /* Allow VIC register access in User of Priviledged modes   */
     d0c:	e59f318c 	ldr	r3, [pc, #396]	; ea0 <VIC_Init+0x1ac>
     d10:	e3a02000 	mov	r2, #0
     d14:	e5832000 	str	r2, [r3]

    WRITEREG32(VICVECTADDR0, (INT32U)VIC_DummyWDT);         /* Set the vector address                                   */
     d18:	e59f3184 	ldr	r3, [pc, #388]	; ea4 <VIC_Init+0x1b0>
     d1c:	e59f2184 	ldr	r2, [pc, #388]	; ea8 <VIC_Init+0x1b4>
     d20:	e5832000 	str	r2, [r3]
    WRITEREG32(VICVECTADDR1, (INT32U)VIC_DummySW);
     d24:	e59f3180 	ldr	r3, [pc, #384]	; eac <VIC_Init+0x1b8>
     d28:	e59f2180 	ldr	r2, [pc, #384]	; eb0 <VIC_Init+0x1bc>
     d2c:	e5832000 	str	r2, [r3]
    WRITEREG32(VICVECTADDR2, (INT32U)VIC_DummyDEBUGRX);
     d30:	e59f317c 	ldr	r3, [pc, #380]	; eb4 <VIC_Init+0x1c0>
     d34:	e59f217c 	ldr	r2, [pc, #380]	; eb8 <VIC_Init+0x1c4>
     d38:	e5832000 	str	r2, [r3]
    WRITEREG32(VICVECTADDR3, (INT32U)VIC_DummyDEBUGTX);
     d3c:	e59f3178 	ldr	r3, [pc, #376]	; ebc <VIC_Init+0x1c8>
     d40:	e59f2178 	ldr	r2, [pc, #376]	; ec0 <VIC_Init+0x1cc>
     d44:	e5832000 	str	r2, [r3]
    WRITEREG32(VICVECTADDR4, (INT32U)VIC_DummyTIMER0);
     d48:	e59f3174 	ldr	r3, [pc, #372]	; ec4 <VIC_Init+0x1d0>
     d4c:	e59f2174 	ldr	r2, [pc, #372]	; ec8 <VIC_Init+0x1d4>
     d50:	e5832000 	str	r2, [r3]
    WRITEREG32(VICVECTADDR5, (INT32U)VIC_DummyTIMER1);
     d54:	e59f3170 	ldr	r3, [pc, #368]	; ecc <VIC_Init+0x1d8>
     d58:	e59f2170 	ldr	r2, [pc, #368]	; ed0 <VIC_Init+0x1dc>
     d5c:	e5832000 	str	r2, [r3]
    WRITEREG32(VICVECTADDR6, (INT32U)VIC_DummyUART0);
     d60:	e59f316c 	ldr	r3, [pc, #364]	; ed4 <VIC_Init+0x1e0>
     d64:	e59f216c 	ldr	r2, [pc, #364]	; ed8 <VIC_Init+0x1e4>
     d68:	e5832000 	str	r2, [r3]
    WRITEREG32(VICVECTADDR7, (INT32U)VIC_DummyUART1);
     d6c:	e59f3168 	ldr	r3, [pc, #360]	; edc <VIC_Init+0x1e8>
     d70:	e59f2168 	ldr	r2, [pc, #360]	; ee0 <VIC_Init+0x1ec>
     d74:	e5832000 	str	r2, [r3]
    WRITEREG32(VICVECTADDR8, (INT32U)VIC_DummyPWM01);
     d78:	e59f3164 	ldr	r3, [pc, #356]	; ee4 <VIC_Init+0x1f0>
     d7c:	e59f2164 	ldr	r2, [pc, #356]	; ee8 <VIC_Init+0x1f4>
     d80:	e5832000 	str	r2, [r3]
    WRITEREG32(VICVECTADDR9, (INT32U)VIC_DummyI2C0);
     d84:	e59f3160 	ldr	r3, [pc, #352]	; eec <VIC_Init+0x1f8>
     d88:	e59f2160 	ldr	r2, [pc, #352]	; ef0 <VIC_Init+0x1fc>
     d8c:	e5832000 	str	r2, [r3]
    WRITEREG32(VICVECTADDR10, (INT32U)VIC_DummySPI);
     d90:	e59f315c 	ldr	r3, [pc, #348]	; ef4 <VIC_Init+0x200>
     d94:	e59f215c 	ldr	r2, [pc, #348]	; ef8 <VIC_Init+0x204>
     d98:	e5832000 	str	r2, [r3]
    WRITEREG32(VICVECTADDR11, (INT32U)VIC_DummySSP1);
     d9c:	e59f3158 	ldr	r3, [pc, #344]	; efc <VIC_Init+0x208>
     da0:	e59f2158 	ldr	r2, [pc, #344]	; f00 <VIC_Init+0x20c>
     da4:	e5832000 	str	r2, [r3]
    WRITEREG32(VICVECTADDR12, (INT32U)VIC_DummyPLL);
     da8:	e59f3154 	ldr	r3, [pc, #340]	; f04 <VIC_Init+0x210>
     dac:	e59f2154 	ldr	r2, [pc, #340]	; f08 <VIC_Init+0x214>
     db0:	e5832000 	str	r2, [r3]
    WRITEREG32(VICVECTADDR13, (INT32U)VIC_DummyRTC);
     db4:	e59f3150 	ldr	r3, [pc, #336]	; f0c <VIC_Init+0x218>
     db8:	e59f2150 	ldr	r2, [pc, #336]	; f10 <VIC_Init+0x21c>
     dbc:	e5832000 	str	r2, [r3]
    WRITEREG32(VICVECTADDR14, (INT32U)VIC_DummyEINT0);
     dc0:	e59f314c 	ldr	r3, [pc, #332]	; f14 <VIC_Init+0x220>
     dc4:	e59f214c 	ldr	r2, [pc, #332]	; f18 <VIC_Init+0x224>
     dc8:	e5832000 	str	r2, [r3]
    WRITEREG32(VICVECTADDR15, (INT32U)VIC_DummyEINT1);
     dcc:	e59f3148 	ldr	r3, [pc, #328]	; f1c <VIC_Init+0x228>
     dd0:	e59f2148 	ldr	r2, [pc, #328]	; f20 <VIC_Init+0x22c>
     dd4:	e5832000 	str	r2, [r3]
    WRITEREG32(VICVECTADDR16, (INT32U)VIC_DummyEINT2);
     dd8:	e59f3144 	ldr	r3, [pc, #324]	; f24 <VIC_Init+0x230>
     ddc:	e59f2144 	ldr	r2, [pc, #324]	; f28 <VIC_Init+0x234>
     de0:	e5832000 	str	r2, [r3]
    WRITEREG32(VICVECTADDR17, (INT32U)VIC_DummyEINT3);
     de4:	e59f3140 	ldr	r3, [pc, #320]	; f2c <VIC_Init+0x238>
     de8:	e59f2140 	ldr	r2, [pc, #320]	; f30 <VIC_Init+0x23c>
     dec:	e5832000 	str	r2, [r3]
    WRITEREG32(VICVECTADDR18, (INT32U)VIC_DummyAD0);
     df0:	e59f313c 	ldr	r3, [pc, #316]	; f34 <VIC_Init+0x240>
     df4:	e59f213c 	ldr	r2, [pc, #316]	; f38 <VIC_Init+0x244>
     df8:	e5832000 	str	r2, [r3]
    WRITEREG32(VICVECTADDR19, (INT32U)VIC_DummyI2C1);
     dfc:	e59f3138 	ldr	r3, [pc, #312]	; f3c <VIC_Init+0x248>
     e00:	e59f2138 	ldr	r2, [pc, #312]	; f40 <VIC_Init+0x24c>
     e04:	e5832000 	str	r2, [r3]
    WRITEREG32(VICVECTADDR20, (INT32U)VIC_DummyBOD);
     e08:	e59f3134 	ldr	r3, [pc, #308]	; f44 <VIC_Init+0x250>
     e0c:	e59f2134 	ldr	r2, [pc, #308]	; f48 <VIC_Init+0x254>
     e10:	e5832000 	str	r2, [r3]
    WRITEREG32(VICVECTADDR21, (INT32U)VIC_DummyETHERNET);
     e14:	e59f3130 	ldr	r3, [pc, #304]	; f4c <VIC_Init+0x258>
     e18:	e59f2130 	ldr	r2, [pc, #304]	; f50 <VIC_Init+0x25c>
     e1c:	e5832000 	str	r2, [r3]
    WRITEREG32(VICVECTADDR22, (INT32U)VIC_DummyUSB);
     e20:	e59f312c 	ldr	r3, [pc, #300]	; f54 <VIC_Init+0x260>
     e24:	e59f212c 	ldr	r2, [pc, #300]	; f58 <VIC_Init+0x264>
     e28:	e5832000 	str	r2, [r3]
    WRITEREG32(VICVECTADDR23, (INT32U)VIC_DummyCAN01);
     e2c:	e59f3128 	ldr	r3, [pc, #296]	; f5c <VIC_Init+0x268>
     e30:	e59f2128 	ldr	r2, [pc, #296]	; f60 <VIC_Init+0x26c>
     e34:	e5832000 	str	r2, [r3]
    WRITEREG32(VICVECTADDR24, (INT32U)VIC_DummyMMC);
     e38:	e59f3124 	ldr	r3, [pc, #292]	; f64 <VIC_Init+0x270>
     e3c:	e59f2124 	ldr	r2, [pc, #292]	; f68 <VIC_Init+0x274>
     e40:	e5832000 	str	r2, [r3]
    WRITEREG32(VICVECTADDR25, (INT32U)VIC_DummyGP_DMA);
     e44:	e59f3120 	ldr	r3, [pc, #288]	; f6c <VIC_Init+0x278>
     e48:	e59f2120 	ldr	r2, [pc, #288]	; f70 <VIC_Init+0x27c>
     e4c:	e5832000 	str	r2, [r3]
    WRITEREG32(VICVECTADDR26, (INT32U)VIC_DummyTIMER2);
     e50:	e59f311c 	ldr	r3, [pc, #284]	; f74 <VIC_Init+0x280>
     e54:	e59f211c 	ldr	r2, [pc, #284]	; f78 <VIC_Init+0x284>
     e58:	e5832000 	str	r2, [r3]
    WRITEREG32(VICVECTADDR27, (INT32U)VIC_DummyTIMER3);
     e5c:	e59f3118 	ldr	r3, [pc, #280]	; f7c <VIC_Init+0x288>
     e60:	e59f2118 	ldr	r2, [pc, #280]	; f80 <VIC_Init+0x28c>
     e64:	e5832000 	str	r2, [r3]
    WRITEREG32(VICVECTADDR28, (INT32U)VIC_DummyUART2);
     e68:	e59f3114 	ldr	r3, [pc, #276]	; f84 <VIC_Init+0x290>
     e6c:	e59f2114 	ldr	r2, [pc, #276]	; f88 <VIC_Init+0x294>
     e70:	e5832000 	str	r2, [r3]
    WRITEREG32(VICVECTADDR29, (INT32U)VIC_DummyUART3);
     e74:	e59f3110 	ldr	r3, [pc, #272]	; f8c <VIC_Init+0x298>
     e78:	e59f2110 	ldr	r2, [pc, #272]	; f90 <VIC_Init+0x29c>
     e7c:	e5832000 	str	r2, [r3]
    WRITEREG32(VICVECTADDR30, (INT32U)VIC_DummyI2C2);
     e80:	e59f310c 	ldr	r3, [pc, #268]	; f94 <VIC_Init+0x2a0>
     e84:	e59f210c 	ldr	r2, [pc, #268]	; f98 <VIC_Init+0x2a4>
     e88:	e5832000 	str	r2, [r3]
    WRITEREG32(VICVECTADDR31, (INT32U)VIC_DummyI2S);
     e8c:	e59f3108 	ldr	r3, [pc, #264]	; f9c <VIC_Init+0x2a8>
     e90:	e59f2108 	ldr	r2, [pc, #264]	; fa0 <VIC_Init+0x2ac>
     e94:	e5832000 	str	r2, [r3]
}
     e98:	e12fff1e 	bx	lr
     e9c:	fffff014 	.word	0xfffff014
     ea0:	fffff020 	.word	0xfffff020
     ea4:	fffff100 	.word	0xfffff100
     ea8:	00000fa8 	.word	0x00000fa8
     eac:	fffff104 	.word	0xfffff104
     eb0:	00000fc8 	.word	0x00000fc8
     eb4:	fffff108 	.word	0xfffff108
     eb8:	00000fe8 	.word	0x00000fe8
     ebc:	fffff10c 	.word	0xfffff10c
     ec0:	00001008 	.word	0x00001008
     ec4:	fffff110 	.word	0xfffff110
     ec8:	00001028 	.word	0x00001028
     ecc:	fffff114 	.word	0xfffff114
     ed0:	00001048 	.word	0x00001048
     ed4:	fffff118 	.word	0xfffff118
     ed8:	00001068 	.word	0x00001068
     edc:	fffff11c 	.word	0xfffff11c
     ee0:	00001088 	.word	0x00001088
     ee4:	fffff120 	.word	0xfffff120
     ee8:	000010a8 	.word	0x000010a8
     eec:	fffff124 	.word	0xfffff124
     ef0:	000010c8 	.word	0x000010c8
     ef4:	fffff128 	.word	0xfffff128
     ef8:	000010e8 	.word	0x000010e8
     efc:	fffff12c 	.word	0xfffff12c
     f00:	00001108 	.word	0x00001108
     f04:	fffff130 	.word	0xfffff130
     f08:	00001128 	.word	0x00001128
     f0c:	fffff134 	.word	0xfffff134
     f10:	00001148 	.word	0x00001148
     f14:	fffff138 	.word	0xfffff138
     f18:	00001168 	.word	0x00001168
     f1c:	fffff13c 	.word	0xfffff13c
     f20:	00001188 	.word	0x00001188
     f24:	fffff140 	.word	0xfffff140
     f28:	000011a8 	.word	0x000011a8
     f2c:	fffff144 	.word	0xfffff144
     f30:	000011c8 	.word	0x000011c8
     f34:	fffff148 	.word	0xfffff148
     f38:	000011e8 	.word	0x000011e8
     f3c:	fffff14c 	.word	0xfffff14c
     f40:	00001208 	.word	0x00001208
     f44:	fffff150 	.word	0xfffff150
     f48:	00001228 	.word	0x00001228
     f4c:	fffff154 	.word	0xfffff154
     f50:	00001248 	.word	0x00001248
     f54:	fffff158 	.word	0xfffff158
     f58:	00001268 	.word	0x00001268
     f5c:	fffff15c 	.word	0xfffff15c
     f60:	00001288 	.word	0x00001288
     f64:	fffff160 	.word	0xfffff160
     f68:	000012a8 	.word	0x000012a8
     f6c:	fffff164 	.word	0xfffff164
     f70:	000012c8 	.word	0x000012c8
     f74:	fffff168 	.word	0xfffff168
     f78:	000012e8 	.word	0x000012e8
     f7c:	fffff16c 	.word	0xfffff16c
     f80:	00001308 	.word	0x00001308
     f84:	fffff170 	.word	0xfffff170
     f88:	00001328 	.word	0x00001328
     f8c:	fffff174 	.word	0xfffff174
     f90:	00001348 	.word	0x00001348
     f94:	fffff178 	.word	0xfffff178
     f98:	00001368 	.word	0x00001368
     f9c:	fffff17c 	.word	0xfffff17c
     fa0:	00001388 	.word	0x00001388

00000fa4 <VIC_Dummy>:

static  void  VIC_Dummy (void)
{
    while (TRUE) {
        ;
    }
     fa4:	eafffffe 	b	fa4 <VIC_Dummy>

00000fa8 <VIC_DummyWDT>:
}

static  void  VIC_DummyWDT (void)
{
     fa8:	e92d4008 	push	{r3, lr}
    VIC_SpuriousInt = VIC_WDT;
     fac:	e59f3010 	ldr	r3, [pc, #16]	; fc4 <VIC_DummyWDT+0x1c>
     fb0:	e3a02000 	mov	r2, #0
     fb4:	e5832000 	str	r2, [r3]
    VIC_Dummy();
     fb8:	ebfffff9 	bl	fa4 <VIC_Dummy>
}
     fbc:	e8bd4008 	pop	{r3, lr}
     fc0:	e12fff1e 	bx	lr
     fc4:	40000ba0 	.word	0x40000ba0

00000fc8 <VIC_DummySW>:

static  void  VIC_DummySW (void)
{
     fc8:	e92d4008 	push	{r3, lr}
    VIC_SpuriousInt = VIC_SW;
     fcc:	e59f3010 	ldr	r3, [pc, #16]	; fe4 <VIC_DummySW+0x1c>
     fd0:	e3a02001 	mov	r2, #1
     fd4:	e5832000 	str	r2, [r3]
    VIC_Dummy();
     fd8:	ebfffff1 	bl	fa4 <VIC_Dummy>
}
     fdc:	e8bd4008 	pop	{r3, lr}
     fe0:	e12fff1e 	bx	lr
     fe4:	40000ba0 	.word	0x40000ba0

00000fe8 <VIC_DummyDEBUGRX>:

static  void  VIC_DummyDEBUGRX (void)
{
     fe8:	e92d4008 	push	{r3, lr}
    VIC_SpuriousInt = VIC_DEBUGRX;
     fec:	e59f3010 	ldr	r3, [pc, #16]	; 1004 <VIC_DummyDEBUGRX+0x1c>
     ff0:	e3a02002 	mov	r2, #2
     ff4:	e5832000 	str	r2, [r3]
    VIC_Dummy();
     ff8:	ebffffe9 	bl	fa4 <VIC_Dummy>
}
     ffc:	e8bd4008 	pop	{r3, lr}
    1000:	e12fff1e 	bx	lr
    1004:	40000ba0 	.word	0x40000ba0

00001008 <VIC_DummyDEBUGTX>:

static  void  VIC_DummyDEBUGTX (void)
{
    1008:	e92d4008 	push	{r3, lr}
    VIC_SpuriousInt = VIC_DEBUGTX;
    100c:	e59f3010 	ldr	r3, [pc, #16]	; 1024 <VIC_DummyDEBUGTX+0x1c>
    1010:	e3a02003 	mov	r2, #3
    1014:	e5832000 	str	r2, [r3]
    VIC_Dummy();
    1018:	ebffffe1 	bl	fa4 <VIC_Dummy>
}
    101c:	e8bd4008 	pop	{r3, lr}
    1020:	e12fff1e 	bx	lr
    1024:	40000ba0 	.word	0x40000ba0

00001028 <VIC_DummyTIMER0>:

static  void  VIC_DummyTIMER0 (void)
{
    1028:	e92d4008 	push	{r3, lr}
    VIC_SpuriousInt = VIC_TIMER0;
    102c:	e59f3010 	ldr	r3, [pc, #16]	; 1044 <VIC_DummyTIMER0+0x1c>
    1030:	e3a02004 	mov	r2, #4
    1034:	e5832000 	str	r2, [r3]
    VIC_Dummy();
    1038:	ebffffd9 	bl	fa4 <VIC_Dummy>
}
    103c:	e8bd4008 	pop	{r3, lr}
    1040:	e12fff1e 	bx	lr
    1044:	40000ba0 	.word	0x40000ba0

00001048 <VIC_DummyTIMER1>:

static  void  VIC_DummyTIMER1 (void)
{
    1048:	e92d4008 	push	{r3, lr}
    VIC_SpuriousInt = VIC_TIMER1;
    104c:	e59f3010 	ldr	r3, [pc, #16]	; 1064 <VIC_DummyTIMER1+0x1c>
    1050:	e3a02005 	mov	r2, #5
    1054:	e5832000 	str	r2, [r3]
    VIC_Dummy();
    1058:	ebffffd1 	bl	fa4 <VIC_Dummy>
}
    105c:	e8bd4008 	pop	{r3, lr}
    1060:	e12fff1e 	bx	lr
    1064:	40000ba0 	.word	0x40000ba0

00001068 <VIC_DummyUART0>:

static  void  VIC_DummyUART0 (void)
{
    1068:	e92d4008 	push	{r3, lr}
    VIC_SpuriousInt = VIC_UART0;
    106c:	e59f3010 	ldr	r3, [pc, #16]	; 1084 <VIC_DummyUART0+0x1c>
    1070:	e3a02006 	mov	r2, #6
    1074:	e5832000 	str	r2, [r3]
    VIC_Dummy();
    1078:	ebffffc9 	bl	fa4 <VIC_Dummy>
}
    107c:	e8bd4008 	pop	{r3, lr}
    1080:	e12fff1e 	bx	lr
    1084:	40000ba0 	.word	0x40000ba0

00001088 <VIC_DummyUART1>:

static  void  VIC_DummyUART1 (void)
{
    1088:	e92d4008 	push	{r3, lr}
    VIC_SpuriousInt = VIC_UART1;
    108c:	e59f3010 	ldr	r3, [pc, #16]	; 10a4 <VIC_DummyUART1+0x1c>
    1090:	e3a02007 	mov	r2, #7
    1094:	e5832000 	str	r2, [r3]
    VIC_Dummy();
    1098:	ebffffc1 	bl	fa4 <VIC_Dummy>
}
    109c:	e8bd4008 	pop	{r3, lr}
    10a0:	e12fff1e 	bx	lr
    10a4:	40000ba0 	.word	0x40000ba0

000010a8 <VIC_DummyPWM01>:

static  void  VIC_DummyPWM01 (void)
{
    10a8:	e92d4008 	push	{r3, lr}
    VIC_SpuriousInt = VIC_PWM01;
    10ac:	e59f3010 	ldr	r3, [pc, #16]	; 10c4 <VIC_DummyPWM01+0x1c>
    10b0:	e3a02008 	mov	r2, #8
    10b4:	e5832000 	str	r2, [r3]
    VIC_Dummy();
    10b8:	ebffffb9 	bl	fa4 <VIC_Dummy>
}
    10bc:	e8bd4008 	pop	{r3, lr}
    10c0:	e12fff1e 	bx	lr
    10c4:	40000ba0 	.word	0x40000ba0

000010c8 <VIC_DummyI2C0>:

static  void  VIC_DummyI2C0 (void)
{
    10c8:	e92d4008 	push	{r3, lr}
    VIC_SpuriousInt = VIC_I2C0;
    10cc:	e59f3010 	ldr	r3, [pc, #16]	; 10e4 <VIC_DummyI2C0+0x1c>
    10d0:	e3a02009 	mov	r2, #9
    10d4:	e5832000 	str	r2, [r3]
    VIC_Dummy();
    10d8:	ebffffb1 	bl	fa4 <VIC_Dummy>
}
    10dc:	e8bd4008 	pop	{r3, lr}
    10e0:	e12fff1e 	bx	lr
    10e4:	40000ba0 	.word	0x40000ba0

000010e8 <VIC_DummySPI>:

static  void  VIC_DummySPI (void)
{
    10e8:	e92d4008 	push	{r3, lr}
    VIC_SpuriousInt = VIC_SPI;
    10ec:	e59f3010 	ldr	r3, [pc, #16]	; 1104 <VIC_DummySPI+0x1c>
    10f0:	e3a0200a 	mov	r2, #10
    10f4:	e5832000 	str	r2, [r3]
    VIC_Dummy();
    10f8:	ebffffa9 	bl	fa4 <VIC_Dummy>
}
    10fc:	e8bd4008 	pop	{r3, lr}
    1100:	e12fff1e 	bx	lr
    1104:	40000ba0 	.word	0x40000ba0

00001108 <VIC_DummySSP1>:

static  void  VIC_DummySSP1 (void)
{
    1108:	e92d4008 	push	{r3, lr}
    VIC_SpuriousInt = VIC_SSP1;
    110c:	e59f3010 	ldr	r3, [pc, #16]	; 1124 <VIC_DummySSP1+0x1c>
    1110:	e3a0200b 	mov	r2, #11
    1114:	e5832000 	str	r2, [r3]
    VIC_Dummy();
    1118:	ebffffa1 	bl	fa4 <VIC_Dummy>
}
    111c:	e8bd4008 	pop	{r3, lr}
    1120:	e12fff1e 	bx	lr
    1124:	40000ba0 	.word	0x40000ba0

00001128 <VIC_DummyPLL>:

static  void  VIC_DummyPLL (void)
{
    1128:	e92d4008 	push	{r3, lr}
    VIC_SpuriousInt = VIC_PLL;
    112c:	e59f3010 	ldr	r3, [pc, #16]	; 1144 <VIC_DummyPLL+0x1c>
    1130:	e3a0200c 	mov	r2, #12
    1134:	e5832000 	str	r2, [r3]
    VIC_Dummy();
    1138:	ebffff99 	bl	fa4 <VIC_Dummy>
}
    113c:	e8bd4008 	pop	{r3, lr}
    1140:	e12fff1e 	bx	lr
    1144:	40000ba0 	.word	0x40000ba0

00001148 <VIC_DummyRTC>:

static  void  VIC_DummyRTC (void)
{
    1148:	e92d4008 	push	{r3, lr}
    VIC_SpuriousInt = VIC_RTC;
    114c:	e59f3010 	ldr	r3, [pc, #16]	; 1164 <VIC_DummyRTC+0x1c>
    1150:	e3a0200d 	mov	r2, #13
    1154:	e5832000 	str	r2, [r3]
    VIC_Dummy();
    1158:	ebffff91 	bl	fa4 <VIC_Dummy>
}
    115c:	e8bd4008 	pop	{r3, lr}
    1160:	e12fff1e 	bx	lr
    1164:	40000ba0 	.word	0x40000ba0

00001168 <VIC_DummyEINT0>:

static  void  VIC_DummyEINT0 (void)
{
    1168:	e92d4008 	push	{r3, lr}
    VIC_SpuriousInt = VIC_EINT0;
    116c:	e59f3010 	ldr	r3, [pc, #16]	; 1184 <VIC_DummyEINT0+0x1c>
    1170:	e3a0200e 	mov	r2, #14
    1174:	e5832000 	str	r2, [r3]
    VIC_Dummy();
    1178:	ebffff89 	bl	fa4 <VIC_Dummy>
}
    117c:	e8bd4008 	pop	{r3, lr}
    1180:	e12fff1e 	bx	lr
    1184:	40000ba0 	.word	0x40000ba0

00001188 <VIC_DummyEINT1>:

static  void  VIC_DummyEINT1 (void)
{
    1188:	e92d4008 	push	{r3, lr}
    VIC_SpuriousInt = VIC_EINT1;
    118c:	e59f3010 	ldr	r3, [pc, #16]	; 11a4 <VIC_DummyEINT1+0x1c>
    1190:	e3a0200f 	mov	r2, #15
    1194:	e5832000 	str	r2, [r3]
    VIC_Dummy();
    1198:	ebffff81 	bl	fa4 <VIC_Dummy>
}
    119c:	e8bd4008 	pop	{r3, lr}
    11a0:	e12fff1e 	bx	lr
    11a4:	40000ba0 	.word	0x40000ba0

000011a8 <VIC_DummyEINT2>:

static  void  VIC_DummyEINT2 (void)
{
    11a8:	e92d4008 	push	{r3, lr}
    VIC_SpuriousInt = VIC_EINT2;
    11ac:	e59f3010 	ldr	r3, [pc, #16]	; 11c4 <VIC_DummyEINT2+0x1c>
    11b0:	e3a02010 	mov	r2, #16
    11b4:	e5832000 	str	r2, [r3]
    VIC_Dummy();
    11b8:	ebffff79 	bl	fa4 <VIC_Dummy>
}
    11bc:	e8bd4008 	pop	{r3, lr}
    11c0:	e12fff1e 	bx	lr
    11c4:	40000ba0 	.word	0x40000ba0

000011c8 <VIC_DummyEINT3>:

static  void  VIC_DummyEINT3 (void)
{
    11c8:	e92d4008 	push	{r3, lr}
    VIC_SpuriousInt = VIC_EINT3;
    11cc:	e59f3010 	ldr	r3, [pc, #16]	; 11e4 <VIC_DummyEINT3+0x1c>
    11d0:	e3a02011 	mov	r2, #17
    11d4:	e5832000 	str	r2, [r3]
    VIC_Dummy();
    11d8:	ebffff71 	bl	fa4 <VIC_Dummy>
}
    11dc:	e8bd4008 	pop	{r3, lr}
    11e0:	e12fff1e 	bx	lr
    11e4:	40000ba0 	.word	0x40000ba0

000011e8 <VIC_DummyAD0>:

static  void  VIC_DummyAD0 (void)
{
    11e8:	e92d4008 	push	{r3, lr}
    VIC_SpuriousInt = VIC_AD0;
    11ec:	e59f3010 	ldr	r3, [pc, #16]	; 1204 <VIC_DummyAD0+0x1c>
    11f0:	e3a02012 	mov	r2, #18
    11f4:	e5832000 	str	r2, [r3]
    VIC_Dummy();
    11f8:	ebffff69 	bl	fa4 <VIC_Dummy>
}
    11fc:	e8bd4008 	pop	{r3, lr}
    1200:	e12fff1e 	bx	lr
    1204:	40000ba0 	.word	0x40000ba0

00001208 <VIC_DummyI2C1>:

static  void  VIC_DummyI2C1 (void)
{
    1208:	e92d4008 	push	{r3, lr}
    VIC_SpuriousInt = VIC_I2C1;
    120c:	e59f3010 	ldr	r3, [pc, #16]	; 1224 <VIC_DummyI2C1+0x1c>
    1210:	e3a02013 	mov	r2, #19
    1214:	e5832000 	str	r2, [r3]
    VIC_Dummy();
    1218:	ebffff61 	bl	fa4 <VIC_Dummy>
}
    121c:	e8bd4008 	pop	{r3, lr}
    1220:	e12fff1e 	bx	lr
    1224:	40000ba0 	.word	0x40000ba0

00001228 <VIC_DummyBOD>:

static  void  VIC_DummyBOD (void)
{
    1228:	e92d4008 	push	{r3, lr}
    VIC_SpuriousInt = VIC_BOD;
    122c:	e59f3010 	ldr	r3, [pc, #16]	; 1244 <VIC_DummyBOD+0x1c>
    1230:	e3a02014 	mov	r2, #20
    1234:	e5832000 	str	r2, [r3]
    VIC_Dummy();
    1238:	ebffff59 	bl	fa4 <VIC_Dummy>
}
    123c:	e8bd4008 	pop	{r3, lr}
    1240:	e12fff1e 	bx	lr
    1244:	40000ba0 	.word	0x40000ba0

00001248 <VIC_DummyETHERNET>:

static  void  VIC_DummyETHERNET (void)
{
    1248:	e92d4008 	push	{r3, lr}
    VIC_SpuriousInt = VIC_ETHERNET;
    124c:	e59f3010 	ldr	r3, [pc, #16]	; 1264 <VIC_DummyETHERNET+0x1c>
    1250:	e3a02015 	mov	r2, #21
    1254:	e5832000 	str	r2, [r3]
    VIC_Dummy();
    1258:	ebffff51 	bl	fa4 <VIC_Dummy>
}
    125c:	e8bd4008 	pop	{r3, lr}
    1260:	e12fff1e 	bx	lr
    1264:	40000ba0 	.word	0x40000ba0

00001268 <VIC_DummyUSB>:

static  void  VIC_DummyUSB (void)
{
    1268:	e92d4008 	push	{r3, lr}
    VIC_SpuriousInt = VIC_USB;
    126c:	e59f3010 	ldr	r3, [pc, #16]	; 1284 <VIC_DummyUSB+0x1c>
    1270:	e3a02016 	mov	r2, #22
    1274:	e5832000 	str	r2, [r3]
    VIC_Dummy();
    1278:	ebffff49 	bl	fa4 <VIC_Dummy>
}
    127c:	e8bd4008 	pop	{r3, lr}
    1280:	e12fff1e 	bx	lr
    1284:	40000ba0 	.word	0x40000ba0

00001288 <VIC_DummyCAN01>:

static  void  VIC_DummyCAN01 (void)
{
    1288:	e92d4008 	push	{r3, lr}
    VIC_SpuriousInt = VIC_CAN12;
    128c:	e59f3010 	ldr	r3, [pc, #16]	; 12a4 <VIC_DummyCAN01+0x1c>
    1290:	e3a02017 	mov	r2, #23
    1294:	e5832000 	str	r2, [r3]
    VIC_Dummy();
    1298:	ebffff41 	bl	fa4 <VIC_Dummy>
}
    129c:	e8bd4008 	pop	{r3, lr}
    12a0:	e12fff1e 	bx	lr
    12a4:	40000ba0 	.word	0x40000ba0

000012a8 <VIC_DummyMMC>:

static  void  VIC_DummyMMC (void)
{
    12a8:	e92d4008 	push	{r3, lr}
    VIC_SpuriousInt = VIC_MMC;
    12ac:	e59f3010 	ldr	r3, [pc, #16]	; 12c4 <VIC_DummyMMC+0x1c>
    12b0:	e3a02018 	mov	r2, #24
    12b4:	e5832000 	str	r2, [r3]
    VIC_Dummy();
    12b8:	ebffff39 	bl	fa4 <VIC_Dummy>
}
    12bc:	e8bd4008 	pop	{r3, lr}
    12c0:	e12fff1e 	bx	lr
    12c4:	40000ba0 	.word	0x40000ba0

000012c8 <VIC_DummyGP_DMA>:

static  void  VIC_DummyGP_DMA (void)
{
    12c8:	e92d4008 	push	{r3, lr}
    VIC_SpuriousInt = VIC_GP_DMA;
    12cc:	e59f3010 	ldr	r3, [pc, #16]	; 12e4 <VIC_DummyGP_DMA+0x1c>
    12d0:	e3a02019 	mov	r2, #25
    12d4:	e5832000 	str	r2, [r3]
    VIC_Dummy();
    12d8:	ebffff31 	bl	fa4 <VIC_Dummy>
}
    12dc:	e8bd4008 	pop	{r3, lr}
    12e0:	e12fff1e 	bx	lr
    12e4:	40000ba0 	.word	0x40000ba0

000012e8 <VIC_DummyTIMER2>:

static  void  VIC_DummyTIMER2 (void)
{
    12e8:	e92d4008 	push	{r3, lr}
    VIC_SpuriousInt = VIC_TIMER2;
    12ec:	e59f3010 	ldr	r3, [pc, #16]	; 1304 <VIC_DummyTIMER2+0x1c>
    12f0:	e3a0201a 	mov	r2, #26
    12f4:	e5832000 	str	r2, [r3]
    VIC_Dummy();
    12f8:	ebffff29 	bl	fa4 <VIC_Dummy>
}
    12fc:	e8bd4008 	pop	{r3, lr}
    1300:	e12fff1e 	bx	lr
    1304:	40000ba0 	.word	0x40000ba0

00001308 <VIC_DummyTIMER3>:

static  void  VIC_DummyTIMER3 (void)
{
    1308:	e92d4008 	push	{r3, lr}
    VIC_SpuriousInt = VIC_TIMER3;
    130c:	e59f3010 	ldr	r3, [pc, #16]	; 1324 <VIC_DummyTIMER3+0x1c>
    1310:	e3a0201b 	mov	r2, #27
    1314:	e5832000 	str	r2, [r3]
    VIC_Dummy();
    1318:	ebffff21 	bl	fa4 <VIC_Dummy>
}
    131c:	e8bd4008 	pop	{r3, lr}
    1320:	e12fff1e 	bx	lr
    1324:	40000ba0 	.word	0x40000ba0

00001328 <VIC_DummyUART2>:

static  void  VIC_DummyUART2 (void)
{
    1328:	e92d4008 	push	{r3, lr}
    VIC_SpuriousInt = VIC_UART2;
    132c:	e59f3010 	ldr	r3, [pc, #16]	; 1344 <VIC_DummyUART2+0x1c>
    1330:	e3a0201c 	mov	r2, #28
    1334:	e5832000 	str	r2, [r3]
    VIC_Dummy();
    1338:	ebffff19 	bl	fa4 <VIC_Dummy>
}
    133c:	e8bd4008 	pop	{r3, lr}
    1340:	e12fff1e 	bx	lr
    1344:	40000ba0 	.word	0x40000ba0

00001348 <VIC_DummyUART3>:

static  void  VIC_DummyUART3 (void)
{
    1348:	e92d4008 	push	{r3, lr}
    VIC_SpuriousInt = VIC_UART3;
    134c:	e59f3010 	ldr	r3, [pc, #16]	; 1364 <VIC_DummyUART3+0x1c>
    1350:	e3a0201d 	mov	r2, #29
    1354:	e5832000 	str	r2, [r3]
    VIC_Dummy();
    1358:	ebffff11 	bl	fa4 <VIC_Dummy>
}
    135c:	e8bd4008 	pop	{r3, lr}
    1360:	e12fff1e 	bx	lr
    1364:	40000ba0 	.word	0x40000ba0

00001368 <VIC_DummyI2C2>:

static  void  VIC_DummyI2C2 (void)
{
    1368:	e92d4008 	push	{r3, lr}
    VIC_SpuriousInt = VIC_I2C2;
    136c:	e59f3010 	ldr	r3, [pc, #16]	; 1384 <VIC_DummyI2C2+0x1c>
    1370:	e3a0201e 	mov	r2, #30
    1374:	e5832000 	str	r2, [r3]
    VIC_Dummy();
    1378:	ebffff09 	bl	fa4 <VIC_Dummy>
}
    137c:	e8bd4008 	pop	{r3, lr}
    1380:	e12fff1e 	bx	lr
    1384:	40000ba0 	.word	0x40000ba0

00001388 <VIC_DummyI2S>:

static  void  VIC_DummyI2S (void)
{
    1388:	e92d4008 	push	{r3, lr}
    VIC_SpuriousInt = VIC_I2S;
    138c:	e59f3010 	ldr	r3, [pc, #16]	; 13a4 <VIC_DummyI2S+0x1c>
    1390:	e3a0201f 	mov	r2, #31
    1394:	e5832000 	str	r2, [r3]
    VIC_Dummy();
    1398:	ebffff01 	bl	fa4 <VIC_Dummy>
}
    139c:	e8bd4008 	pop	{r3, lr}
    13a0:	e12fff1e 	bx	lr
    13a4:	40000ba0 	.word	0x40000ba0

000013a8 <printHex>:

/*=========================================================================*/
/*  DEFINE: All code exported                                              */
/*=========================================================================*/
void printHex(uint32_t u32)
{
    13a8:	e24dd018 	sub	sp, sp, #24
    13ac:	e58d0004 	str	r0, [sp, #4]
    uint32_t   u32Mask  = 0xF0000000;
    13b0:	e3a0320f 	mov	r3, #-268435456	; 0xf0000000
    13b4:	e58d3014 	str	r3, [sp, #20]
    uint8_t    u32Shift = 32;
    13b8:	e3a03020 	mov	r3, #32
    13bc:	e5cd3013 	strb	r3, [sp, #19]
    uint32_t   u32Char;

    do {
        u32Shift -= 4;
    13c0:	e5dd3013 	ldrb	r3, [sp, #19]
    13c4:	e2433004 	sub	r3, r3, #4
    13c8:	e5cd3013 	strb	r3, [sp, #19]
        u32Char = (u32 & u32Mask) >> u32Shift;
    13cc:	e59d2004 	ldr	r2, [sp, #4]
    13d0:	e59d3014 	ldr	r3, [sp, #20]
    13d4:	e0022003 	and	r2, r2, r3
    13d8:	e5dd3013 	ldrb	r3, [sp, #19]
    13dc:	e1a03332 	lsr	r3, r2, r3
    13e0:	e58d300c 	str	r3, [sp, #12]
        u32Mask >>= 4;
    13e4:	e59d3014 	ldr	r3, [sp, #20]
    13e8:	e1a03223 	lsr	r3, r3, #4
    13ec:	e58d3014 	str	r3, [sp, #20]
        if (u32Char >= 0xA)
    13f0:	e59d300c 	ldr	r3, [sp, #12]
    13f4:	e3530009 	cmp	r3, #9
    13f8:	9a00000b 	bls	142c <printHex+0x84>
        {
            PUTC('A' + (u32Char - 10));
    13fc:	ea000000 	b	1404 <printHex+0x5c>
    1400:	e1a00000 	nop			; (mov r0, r0)
    1404:	e59f3060 	ldr	r3, [pc, #96]	; 146c <printHex+0xc4>
    1408:	e5933000 	ldr	r3, [r3]
    140c:	e2033020 	and	r3, r3, #32
    1410:	e3530000 	cmp	r3, #0
    1414:	0afffff9 	beq	1400 <printHex+0x58>
    1418:	e59f3050 	ldr	r3, [pc, #80]	; 1470 <printHex+0xc8>
    141c:	e59d200c 	ldr	r2, [sp, #12]
    1420:	e2822037 	add	r2, r2, #55	; 0x37
    1424:	e5832000 	str	r2, [r3]
    1428:	ea00000a 	b	1458 <printHex+0xb0>
        }
        else
        {
            PUTC('0' + u32Char);
    142c:	ea000000 	b	1434 <printHex+0x8c>
    1430:	e1a00000 	nop			; (mov r0, r0)
    1434:	e59f3030 	ldr	r3, [pc, #48]	; 146c <printHex+0xc4>
    1438:	e5933000 	ldr	r3, [r3]
    143c:	e2033020 	and	r3, r3, #32
    1440:	e3530000 	cmp	r3, #0
    1444:	0afffff9 	beq	1430 <printHex+0x88>
    1448:	e59f3020 	ldr	r3, [pc, #32]	; 1470 <printHex+0xc8>
    144c:	e59d200c 	ldr	r2, [sp, #12]
    1450:	e2822030 	add	r2, r2, #48	; 0x30
    1454:	e5832000 	str	r2, [r3]
        }
    } while (u32Shift > 0);
    1458:	e5dd3013 	ldrb	r3, [sp, #19]
    145c:	e3530000 	cmp	r3, #0
    1460:	1affffd6 	bne	13c0 <printHex+0x18>
}
    1464:	e28dd018 	add	sp, sp, #24
    1468:	e12fff1e 	bx	lr
    146c:	e000c014 	.word	0xe000c014
    1470:	e000c000 	.word	0xe000c000

00001474 <print_uint32>:

void print_uint32(uint32_t u)
{
    1474:	e92d48f0 	push	{r4, r5, r6, r7, fp, lr}
    1478:	e28db014 	add	fp, sp, #20
    147c:	e24dd018 	sub	sp, sp, #24
    1480:	e50b0028 	str	r0, [fp, #-40]	; 0x28
    1484:	e1a0000d 	mov	r0, sp
    1488:	e1a07000 	mov	r7, r0
    uint32_t    buffer_length = 20;
    148c:	e3a00014 	mov	r0, #20
    1490:	e50b001c 	str	r0, [fp, #-28]
    char      buffer[buffer_length];
    1494:	e51b001c 	ldr	r0, [fp, #-28]
    1498:	e1a0c000 	mov	ip, r0
    149c:	e24cc001 	sub	ip, ip, #1
    14a0:	e50bc020 	str	ip, [fp, #-32]
    14a4:	e1a05000 	mov	r5, r0
    14a8:	e3a06000 	mov	r6, #0
    14ac:	e1a02186 	lsl	r2, r6, #3
    14b0:	e1822ea5 	orr	r2, r2, r5, lsr #29
    14b4:	e1a01185 	lsl	r1, r5, #3
    14b8:	e1a01000 	mov	r1, r0
    14bc:	e3a02000 	mov	r2, #0
    14c0:	e1a04182 	lsl	r4, r2, #3
    14c4:	e1844ea1 	orr	r4, r4, r1, lsr #29
    14c8:	e1a03181 	lsl	r3, r1, #3
    14cc:	e2803007 	add	r3, r0, #7
    14d0:	e1a031a3 	lsr	r3, r3, #3
    14d4:	e1a03183 	lsl	r3, r3, #3
    14d8:	e04dd003 	sub	sp, sp, r3
    14dc:	e1a0300d 	mov	r3, sp
    14e0:	e2833000 	add	r3, r3, #0
    14e4:	e50b3024 	str	r3, [fp, #-36]	; 0x24
    char      *p = &buffer[buffer_length - 1];
    14e8:	e51b301c 	ldr	r3, [fp, #-28]
    14ec:	e2433001 	sub	r3, r3, #1
    14f0:	e51b2024 	ldr	r2, [fp, #-36]	; 0x24
    14f4:	e0823003 	add	r3, r2, r3
    14f8:	e50b3018 	str	r3, [fp, #-24]

    *p = '\0';
    14fc:	e51b3018 	ldr	r3, [fp, #-24]
    1500:	e3a02000 	mov	r2, #0
    1504:	e5c32000 	strb	r2, [r3]
    do {
        p--;
    1508:	e51b3018 	ldr	r3, [fp, #-24]
    150c:	e2433001 	sub	r3, r3, #1
    1510:	e50b3018 	str	r3, [fp, #-24]
        *p = (u % 10) + '0';
    1514:	e51b1028 	ldr	r1, [fp, #-40]	; 0x28
    1518:	e59f3064 	ldr	r3, [pc, #100]	; 1584 <print_uint32+0x110>
    151c:	e0832391 	umull	r2, r3, r1, r3
    1520:	e1a021a3 	lsr	r2, r3, #3
    1524:	e1a03002 	mov	r3, r2
    1528:	e1a03103 	lsl	r3, r3, #2
    152c:	e0833002 	add	r3, r3, r2
    1530:	e1a03083 	lsl	r3, r3, #1
    1534:	e0632001 	rsb	r2, r3, r1
    1538:	e20230ff 	and	r3, r2, #255	; 0xff
    153c:	e2833030 	add	r3, r3, #48	; 0x30
    1540:	e20320ff 	and	r2, r3, #255	; 0xff
    1544:	e51b3018 	ldr	r3, [fp, #-24]
    1548:	e5c32000 	strb	r2, [r3]
        u /= 10;
    154c:	e51b2028 	ldr	r2, [fp, #-40]	; 0x28
    1550:	e59f302c 	ldr	r3, [pc, #44]	; 1584 <print_uint32+0x110>
    1554:	e0831392 	umull	r1, r3, r2, r3
    1558:	e1a031a3 	lsr	r3, r3, #3
    155c:	e50b3028 	str	r3, [fp, #-40]	; 0x28
    } while (u > 0);
    1560:	e51b3028 	ldr	r3, [fp, #-40]	; 0x28
    1564:	e3530000 	cmp	r3, #0
    1568:	1affffe6 	bne	1508 <print_uint32+0x94>

    printString(p);
    156c:	e51b0018 	ldr	r0, [fp, #-24]
    1570:	eb000004 	bl	1588 <printString>
    1574:	e1a0d007 	mov	sp, r7
}
    1578:	e24bd014 	sub	sp, fp, #20
    157c:	e8bd48f0 	pop	{r4, r5, r6, r7, fp, lr}
    1580:	e12fff1e 	bx	lr
    1584:	cccccccd 	.word	0xcccccccd

00001588 <printString>:
 *  intercepts '\n' and adds '\r'  (LF+CR)
 *
 */

void printString(char *ptr)
{
    1588:	e24dd008 	sub	sp, sp, #8
    158c:	e58d0004 	str	r0, [sp, #4]
    if (ptr==0 || *ptr==0) return;
    1590:	e59d3004 	ldr	r3, [sp, #4]
    1594:	e3530000 	cmp	r3, #0
    1598:	0a000003 	beq	15ac <printString+0x24>
    159c:	e59d3004 	ldr	r3, [sp, #4]
    15a0:	e5d33000 	ldrb	r3, [r3]
    15a4:	e3530000 	cmp	r3, #0
    15a8:	1a000000 	bne	15b0 <printString+0x28>
    15ac:	ea00002c 	b	1664 <printString+0xdc>

    do
    {
      if (*ptr=='\n')
    15b0:	e59d3004 	ldr	r3, [sp, #4]
    15b4:	e5d33000 	ldrb	r3, [r3]
    15b8:	e353000a 	cmp	r3, #10
    15bc:	1a000017 	bne	1620 <printString+0x98>
      {
      PUTC(*ptr++);
    15c0:	ea000000 	b	15c8 <printString+0x40>
    15c4:	e1a00000 	nop			; (mov r0, r0)
    15c8:	e59f309c 	ldr	r3, [pc, #156]	; 166c <printString+0xe4>
    15cc:	e5933000 	ldr	r3, [r3]
    15d0:	e2033020 	and	r3, r3, #32
    15d4:	e3530000 	cmp	r3, #0
    15d8:	0afffff9 	beq	15c4 <printString+0x3c>
    15dc:	e59f208c 	ldr	r2, [pc, #140]	; 1670 <printString+0xe8>
    15e0:	e59d3004 	ldr	r3, [sp, #4]
    15e4:	e2831001 	add	r1, r3, #1
    15e8:	e58d1004 	str	r1, [sp, #4]
    15ec:	e5d33000 	ldrb	r3, [r3]
    15f0:	e5823000 	str	r3, [r2]
      PUTC('\r');
    15f4:	ea000000 	b	15fc <printString+0x74>
    15f8:	e1a00000 	nop			; (mov r0, r0)
    15fc:	e59f3068 	ldr	r3, [pc, #104]	; 166c <printString+0xe4>
    1600:	e5933000 	ldr	r3, [r3]
    1604:	e2033020 	and	r3, r3, #32
    1608:	e3530000 	cmp	r3, #0
    160c:	0afffff9 	beq	15f8 <printString+0x70>
    1610:	e59f3058 	ldr	r3, [pc, #88]	; 1670 <printString+0xe8>
    1614:	e3a0200d 	mov	r2, #13
    1618:	e5832000 	str	r2, [r3]
    161c:	ea00000c 	b	1654 <printString+0xcc>
      }
      else
      {
      PUTC(*ptr++);
    1620:	ea000000 	b	1628 <printString+0xa0>
    1624:	e1a00000 	nop			; (mov r0, r0)
    1628:	e59f303c 	ldr	r3, [pc, #60]	; 166c <printString+0xe4>
    162c:	e5933000 	ldr	r3, [r3]
    1630:	e2033020 	and	r3, r3, #32
    1634:	e3530000 	cmp	r3, #0
    1638:	0afffff9 	beq	1624 <printString+0x9c>
    163c:	e59f202c 	ldr	r2, [pc, #44]	; 1670 <printString+0xe8>
    1640:	e59d3004 	ldr	r3, [sp, #4]
    1644:	e2831001 	add	r1, r3, #1
    1648:	e58d1004 	str	r1, [sp, #4]
    164c:	e5d33000 	ldrb	r3, [r3]
    1650:	e5823000 	str	r3, [r2]
      }
    }
    while (*ptr!=0);
    1654:	e59d3004 	ldr	r3, [sp, #4]
    1658:	e5d33000 	ldrb	r3, [r3]
    165c:	e3530000 	cmp	r3, #0
    1660:	1affffd2 	bne	15b0 <printString+0x28>
}
    1664:	e28dd008 	add	sp, sp, #8
    1668:	e12fff1e 	bx	lr
    166c:	e000c014 	.word	0xe000c014
    1670:	e000c000 	.word	0xe000c000

00001674 <initialize_timer_tick>:
void switchContext(void);
void Tmr_TickISR_Handler (void);


void initialize_timer_tick(void)
{
    1674:	e52de004 	push	{lr}		; (str lr, [sp, #-4]!)
    1678:	e24dd00c 	sub	sp, sp, #12
    int  pclk_freq;
    int  rld_cnts;
                                                                             /* VIC timer #0 Initialization                     */
    WRITEREG32(VICINTSELECT, READREG32(VICINTSELECT) & ~(1 << VIC_TIMER0));  /* Configure the timer interrupt as an IRQ source  */
    167c:	e59f30bc 	ldr	r3, [pc, #188]	; 1740 <initialize_timer_tick+0xcc>
    1680:	e59f20b8 	ldr	r2, [pc, #184]	; 1740 <initialize_timer_tick+0xcc>
    1684:	e5922000 	ldr	r2, [r2]
    1688:	e3c22010 	bic	r2, r2, #16
    168c:	e5832000 	str	r2, [r3]

    WRITEREG32(VICVECTADDR4, (INT32U)Tmr_TickISR_Handler);                   /* Set the vector address                          */
    1690:	e59f30ac 	ldr	r3, [pc, #172]	; 1744 <initialize_timer_tick+0xd0>
    1694:	e59f20ac 	ldr	r2, [pc, #172]	; 1748 <initialize_timer_tick+0xd4>
    1698:	e5832000 	str	r2, [r3]
    WRITEREG32(VICINTENABLE,  (1 << VIC_TIMER0));                            /* Enable the timer interrupt source               */
    169c:	e59f30a8 	ldr	r3, [pc, #168]	; 174c <initialize_timer_tick+0xd8>
    16a0:	e3a02010 	mov	r2, #16
    16a4:	e5832000 	str	r2, [r3]

    pclk_freq     =   BSP_CPU_PclkFreq(PCLKINDX_TIMER0);        /* Get the peripheral clock frequency                       */
    16a8:	e3a00001 	mov	r0, #1
    16ac:	eb000079 	bl	1898 <BSP_CPU_PclkFreq>
    16b0:	e1a03000 	mov	r3, r0
    16b4:	e58d3004 	str	r3, [sp, #4]
    rld_cnts      =   pclk_freq / TICKS_PER_SEC;                /* Calculate the # of counts necessary for the OS ticker    */
    16b8:	e59d3004 	ldr	r3, [sp, #4]
    16bc:	e59f208c 	ldr	r2, [pc, #140]	; 1750 <initialize_timer_tick+0xdc>
    16c0:	e0c21293 	smull	r1, r2, r3, r2
    16c4:	e1a020c2 	asr	r2, r2, #1
    16c8:	e1a03fc3 	asr	r3, r3, #31
    16cc:	e0633002 	rsb	r3, r3, r2
    16d0:	e58d3000 	str	r3, [sp]

    WRITEREG32(T0TCR, (1 << 1));                                /* Disable and reset counter 0 and the prescale counter 0   */
    16d4:	e59f3078 	ldr	r3, [pc, #120]	; 1754 <initialize_timer_tick+0xe0>
    16d8:	e3a02002 	mov	r2, #2
    16dc:	e5832000 	str	r2, [r3]
    WRITEREG32(T0TCR, 0);                                       /* Clear the reset bit                                      */
    16e0:	e59f306c 	ldr	r3, [pc, #108]	; 1754 <initialize_timer_tick+0xe0>
    16e4:	e3a02000 	mov	r2, #0
    16e8:	e5832000 	str	r2, [r3]
    WRITEREG32(T0PC,  0);                                       /* Prescaler is set to no division                          */
    16ec:	e59f3064 	ldr	r3, [pc, #100]	; 1758 <initialize_timer_tick+0xe4>
    16f0:	e3a02000 	mov	r2, #0
    16f4:	e5832000 	str	r2, [r3]

    WRITEREG32(T0MR0, rld_cnts);
    16f8:	e59f305c 	ldr	r3, [pc, #92]	; 175c <initialize_timer_tick+0xe8>
    16fc:	e59d2000 	ldr	r2, [sp]
    1700:	e5832000 	str	r2, [r3]
    WRITEREG32(T0MCR, 3);                                       /* Interrupt on MR0 (reset TC), stop TC                     */
    1704:	e59f3054 	ldr	r3, [pc, #84]	; 1760 <initialize_timer_tick+0xec>
    1708:	e3a02003 	mov	r2, #3
    170c:	e5832000 	str	r2, [r3]

    WRITEREG32(T0CCR, 0);                                       /* Capture is disabled.                                     */
    1710:	e59f304c 	ldr	r3, [pc, #76]	; 1764 <initialize_timer_tick+0xf0>
    1714:	e3a02000 	mov	r2, #0
    1718:	e5832000 	str	r2, [r3]
    WRITEREG32(T0EMR, 0);                                       /* No external match output.                                */
    171c:	e59f3044 	ldr	r3, [pc, #68]	; 1768 <initialize_timer_tick+0xf4>
    1720:	e3a02000 	mov	r2, #0
    1724:	e5832000 	str	r2, [r3]
    WRITEREG32(T0TCR, 1);                                       /* Enable timer 0                                           */
    1728:	e59f3024 	ldr	r3, [pc, #36]	; 1754 <initialize_timer_tick+0xe0>
    172c:	e3a02001 	mov	r2, #1
    1730:	e5832000 	str	r2, [r3]
}
    1734:	e28dd00c 	add	sp, sp, #12
    1738:	e49de004 	pop	{lr}		; (ldr lr, [sp], #4)
    173c:	e12fff1e 	bx	lr
    1740:	fffff00c 	.word	0xfffff00c
    1744:	fffff110 	.word	0xfffff110
    1748:	0000176c 	.word	0x0000176c
    174c:	fffff010 	.word	0xfffff010
    1750:	66666667 	.word	0x66666667
    1754:	e0004004 	.word	0xe0004004
    1758:	e0004010 	.word	0xe0004010
    175c:	e0004018 	.word	0xe0004018
    1760:	e0004014 	.word	0xe0004014
    1764:	e0004028 	.word	0xe0004028
    1768:	e000403c 	.word	0xe000403c

0000176c <Tmr_TickISR_Handler>:

void Tmr_TickISR_Handler(void)
{
    WRITEREG32(T0IR, 0xFF);                                     /* Clear timer #0 interrupt                                 */
    176c:	e59f3008 	ldr	r3, [pc, #8]	; 177c <Tmr_TickISR_Handler+0x10>
    1770:	e3a020ff 	mov	r2, #255	; 0xff
    1774:	e5832000 	str	r2, [r3]
    /* Could call an C function to handle the IRQ from here. */
}
    1778:	e12fff1e 	bx	lr
    177c:	e0004000 	.word	0xe0004000

00001780 <BSP_CPU_ClkFreq>:
* Return(s)   : The CPU clock frequency, in Hz.
*********************************************************************************************************
*/

INT32U  BSP_CPU_ClkFreq (void)
{
    1780:	e52de004 	push	{lr}		; (str lr, [sp, #-4]!)
    1784:	e24dd01c 	sub	sp, sp, #28
    INT32U  pll_clk_feq;                                    /* When the PLL is enabled, this is Fcco       */
    INT32U  clk_div;
    INT32U  clk_freq;


    switch (SCB_READREG8(CLKSRCSEL) & 0x03) {                                 /* Determine the current clock source                       */
    1788:	e59f30fc 	ldr	r3, [pc, #252]	; 188c <BSP_CPU_ClkFreq+0x10c>
    178c:	e5d3310c 	ldrb	r3, [r3, #268]	; 0x10c
    1790:	e20330ff 	and	r3, r3, #255	; 0xff
    1794:	e2033003 	and	r3, r3, #3
    1798:	e3530001 	cmp	r3, #1
    179c:	0a000006 	beq	17bc <BSP_CPU_ClkFreq+0x3c>
    17a0:	e3530002 	cmp	r3, #2
    17a4:	0a000007 	beq	17c8 <BSP_CPU_ClkFreq+0x48>
    17a8:	e3530000 	cmp	r3, #0
    17ac:	1a000008 	bne	17d4 <BSP_CPU_ClkFreq+0x54>
        case 0:
             fin = IRC_OSC_FRQ;
    17b0:	e59f30d8 	ldr	r3, [pc, #216]	; 1890 <BSP_CPU_ClkFreq+0x110>
    17b4:	e58d3014 	str	r3, [sp, #20]
             break;
    17b8:	ea000008 	b	17e0 <BSP_CPU_ClkFreq+0x60>

        case 1:
             fin = MAIN_OSC_FRQ;
    17bc:	e59f30d0 	ldr	r3, [pc, #208]	; 1894 <BSP_CPU_ClkFreq+0x114>
    17c0:	e58d3014 	str	r3, [sp, #20]
             break;
    17c4:	ea000005 	b	17e0 <BSP_CPU_ClkFreq+0x60>

        case 2:
             fin = RTC_OSC_FRQ;
    17c8:	e3a03902 	mov	r3, #32768	; 0x8000
    17cc:	e58d3014 	str	r3, [sp, #20]
             break;
    17d0:	ea000002 	b	17e0 <BSP_CPU_ClkFreq+0x60>

        default:
             fin = IRC_OSC_FRQ;
    17d4:	e59f30b4 	ldr	r3, [pc, #180]	; 1890 <BSP_CPU_ClkFreq+0x110>
    17d8:	e58d3014 	str	r3, [sp, #20]
             break;
    17dc:	e1a00000 	nop			; (mov r0, r0)
    }

    if ((SCB_READREG32(PLLSTAT) & (1 << 25)) > 0) {                                /* If the PLL is currently enabled and connected        */
    17e0:	e59f30a4 	ldr	r3, [pc, #164]	; 188c <BSP_CPU_ClkFreq+0x10c>
    17e4:	e5933088 	ldr	r3, [r3, #136]	; 0x88
    17e8:	e2033402 	and	r3, r3, #33554432	; 0x2000000
    17ec:	e3530000 	cmp	r3, #0
    17f0:	0a000014 	beq	1848 <BSP_CPU_ClkFreq+0xc8>
        msel        = (INT32U)(SCB_READREG32(PLLSTAT) & 0x3FFF) + 1;           /* Obtain the PLL multiplier                            */
    17f4:	e59f3090 	ldr	r3, [pc, #144]	; 188c <BSP_CPU_ClkFreq+0x10c>
    17f8:	e5933088 	ldr	r3, [r3, #136]	; 0x88
    17fc:	e1a03903 	lsl	r3, r3, #18
    1800:	e1a03923 	lsr	r3, r3, #18
    1804:	e2833001 	add	r3, r3, #1
    1808:	e58d300c 	str	r3, [sp, #12]
        nsel        = (INT32U)((SCB_READREG32(PLLSTAT) >>   16) & 0x0F) + 1;   /* Obtain the PLL divider                               */
    180c:	e59f3078 	ldr	r3, [pc, #120]	; 188c <BSP_CPU_ClkFreq+0x10c>
    1810:	e5933088 	ldr	r3, [r3, #136]	; 0x88
    1814:	e1a03823 	lsr	r3, r3, #16
    1818:	e203300f 	and	r3, r3, #15
    181c:	e2833001 	add	r3, r3, #1
    1820:	e58d3008 	str	r3, [sp, #8]
        pll_clk_feq = (2 * msel * (fin / nsel));                    /* Compute the PLL output frequency                     */
    1824:	e59d0014 	ldr	r0, [sp, #20]
    1828:	e59d1008 	ldr	r1, [sp, #8]
    182c:	eb0000ed 	bl	1be8 <__aeabi_uidiv>
    1830:	e1a03000 	mov	r3, r0
    1834:	e59d200c 	ldr	r2, [sp, #12]
    1838:	e0030392 	mul	r3, r2, r3
    183c:	e1a03083 	lsl	r3, r3, #1
    1840:	e58d3010 	str	r3, [sp, #16]
    1844:	ea000001 	b	1850 <BSP_CPU_ClkFreq+0xd0>
    } else {
        pll_clk_feq = (fin);                                        /* The PLL is bypassed                                  */
    1848:	e59d3014 	ldr	r3, [sp, #20]
    184c:	e58d3010 	str	r3, [sp, #16]
    }

    clk_div         = (INT32U)(SCB_READREG32(CCLKCFG) & 0xFF) + 1;             /* Obtain the CPU core clock divider                    */
    1850:	e59f3034 	ldr	r3, [pc, #52]	; 188c <BSP_CPU_ClkFreq+0x10c>
    1854:	e5d33104 	ldrb	r3, [r3, #260]	; 0x104
    1858:	e20330ff 	and	r3, r3, #255	; 0xff
    185c:	e2833001 	add	r3, r3, #1
    1860:	e58d3004 	str	r3, [sp, #4]
    clk_freq        = (INT32U)(pll_clk_feq / clk_div);          /* Compute the ARM Core clock frequency                 */
    1864:	e59d0010 	ldr	r0, [sp, #16]
    1868:	e59d1004 	ldr	r1, [sp, #4]
    186c:	eb0000dd 	bl	1be8 <__aeabi_uidiv>
    1870:	e1a03000 	mov	r3, r0
    1874:	e58d3000 	str	r3, [sp]

    return (clk_freq);
    1878:	e59d3000 	ldr	r3, [sp]
}
    187c:	e1a00003 	mov	r0, r3
    1880:	e28dd01c 	add	sp, sp, #28
    1884:	e49de004 	pop	{lr}		; (ldr lr, [sp], #4)
    1888:	e12fff1e 	bx	lr
    188c:	e01fc000 	.word	0xe01fc000
    1890:	003d0900 	.word	0x003d0900
    1894:	00b71b00 	.word	0x00b71b00

00001898 <BSP_CPU_PclkFreq>:
*********************************************************************************************************
*/


INT32U  BSP_CPU_PclkFreq (INT8U  pclk)
{
    1898:	e52de004 	push	{lr}		; (str lr, [sp, #-4]!)
    189c:	e24dd014 	sub	sp, sp, #20
    18a0:	e1a03000 	mov	r3, r0
    18a4:	e5cd3007 	strb	r3, [sp, #7]
    INT32U  clk_freq;
    INT32U  selection;


    clk_freq = BSP_CPU_ClkFreq();
    18a8:	ebffffb4 	bl	1780 <BSP_CPU_ClkFreq>
    18ac:	e58d000c 	str	r0, [sp, #12]

    switch (pclk) {
    18b0:	e5dd3007 	ldrb	r3, [sp, #7]
    18b4:	e353001d 	cmp	r3, #29
    18b8:	979ff103 	ldrls	pc, [pc, r3, lsl #2]
    18bc:	ea000054 	b	1a14 <BSP_CPU_PclkFreq+0x17c>
    18c0:	00001938 	.word	0x00001938
    18c4:	00001938 	.word	0x00001938
    18c8:	00001938 	.word	0x00001938
    18cc:	00001938 	.word	0x00001938
    18d0:	00001938 	.word	0x00001938
    18d4:	00001938 	.word	0x00001938
    18d8:	00001938 	.word	0x00001938
    18dc:	00001938 	.word	0x00001938
    18e0:	00001938 	.word	0x00001938
    18e4:	00001938 	.word	0x00001938
    18e8:	00001938 	.word	0x00001938
    18ec:	00001938 	.word	0x00001938
    18f0:	00001938 	.word	0x00001938
    18f4:	00001938 	.word	0x00001938
    18f8:	00001938 	.word	0x00001938
    18fc:	00001938 	.word	0x00001938
    1900:	000019a4 	.word	0x000019a4
    1904:	000019a4 	.word	0x000019a4
    1908:	000019a4 	.word	0x000019a4
    190c:	000019a4 	.word	0x000019a4
    1910:	00001a14 	.word	0x00001a14
    1914:	000019a4 	.word	0x000019a4
    1918:	000019a4 	.word	0x000019a4
    191c:	000019a4 	.word	0x000019a4
    1920:	000019a4 	.word	0x000019a4
    1924:	000019a4 	.word	0x000019a4
    1928:	000019a4 	.word	0x000019a4
    192c:	000019a4 	.word	0x000019a4
    1930:	00001a14 	.word	0x00001a14
    1934:	000019a4 	.word	0x000019a4
        case PCLKINDX_DAC:
        case PCLKINDX_ADC:
        case PCLKINDX_CAN1:
        case PCLKINDX_CAN2:
        case PCLKINDX_ACF:
             selection = ((SCB_READREG32(PCLKSEL0) >> (pclk * 2)) & 0x03);
    1938:	e59f30e8 	ldr	r3, [pc, #232]	; 1a28 <BSP_CPU_PclkFreq+0x190>
    193c:	e59321a8 	ldr	r2, [r3, #424]	; 0x1a8
    1940:	e5dd3007 	ldrb	r3, [sp, #7]
    1944:	e1a03083 	lsl	r3, r3, #1
    1948:	e1a03332 	lsr	r3, r2, r3
    194c:	e2033003 	and	r3, r3, #3
    1950:	e58d3008 	str	r3, [sp, #8]
             if (selection == 0) {
    1954:	e59d3008 	ldr	r3, [sp, #8]
    1958:	e3530000 	cmp	r3, #0
    195c:	1a000002 	bne	196c <BSP_CPU_PclkFreq+0xd4>
                 return (clk_freq / 4);
    1960:	e59d300c 	ldr	r3, [sp, #12]
    1964:	e1a03123 	lsr	r3, r3, #2
    1968:	ea00002a 	b	1a18 <BSP_CPU_PclkFreq+0x180>
             } else if (selection == 1) {
    196c:	e59d3008 	ldr	r3, [sp, #8]
    1970:	e3530001 	cmp	r3, #1
    1974:	1a000001 	bne	1980 <BSP_CPU_PclkFreq+0xe8>
                 return (clk_freq);
    1978:	e59d300c 	ldr	r3, [sp, #12]
    197c:	ea000025 	b	1a18 <BSP_CPU_PclkFreq+0x180>
             } else if (selection == 2) {
    1980:	e59d3008 	ldr	r3, [sp, #8]
    1984:	e3530002 	cmp	r3, #2
    1988:	1a000002 	bne	1998 <BSP_CPU_PclkFreq+0x100>
                 return (clk_freq / 2);
    198c:	e59d300c 	ldr	r3, [sp, #12]
    1990:	e1a030a3 	lsr	r3, r3, #1
    1994:	ea00001f 	b	1a18 <BSP_CPU_PclkFreq+0x180>
             } else {
                 return (clk_freq / 8);
    1998:	e59d300c 	ldr	r3, [sp, #12]
    199c:	e1a031a3 	lsr	r3, r3, #3
    19a0:	ea00001c 	b	1a18 <BSP_CPU_PclkFreq+0x180>
        case PCLKINDX_UART2:
        case PCLKINDX_UART3:
        case PCLKINDX_I2C2:
        case PCLKINDX_MCI:
        case PCLKINDX_SYSCON:
             selection = ((SCB_READREG32(PCLKSEL1) >> ((pclk - 16) * 2)) & 0x03);
    19a4:	e59f307c 	ldr	r3, [pc, #124]	; 1a28 <BSP_CPU_PclkFreq+0x190>
    19a8:	e59321ac 	ldr	r2, [r3, #428]	; 0x1ac
    19ac:	e5dd3007 	ldrb	r3, [sp, #7]
    19b0:	e2433010 	sub	r3, r3, #16
    19b4:	e1a03083 	lsl	r3, r3, #1
    19b8:	e1a03332 	lsr	r3, r2, r3
    19bc:	e2033003 	and	r3, r3, #3
    19c0:	e58d3008 	str	r3, [sp, #8]
             if (selection == 0) {
    19c4:	e59d3008 	ldr	r3, [sp, #8]
    19c8:	e3530000 	cmp	r3, #0
    19cc:	1a000002 	bne	19dc <BSP_CPU_PclkFreq+0x144>
                 return (clk_freq / 4);
    19d0:	e59d300c 	ldr	r3, [sp, #12]
    19d4:	e1a03123 	lsr	r3, r3, #2
    19d8:	ea00000e 	b	1a18 <BSP_CPU_PclkFreq+0x180>
             } else if (selection == 1) {
    19dc:	e59d3008 	ldr	r3, [sp, #8]
    19e0:	e3530001 	cmp	r3, #1
    19e4:	1a000001 	bne	19f0 <BSP_CPU_PclkFreq+0x158>
                 return (clk_freq);
    19e8:	e59d300c 	ldr	r3, [sp, #12]
    19ec:	ea000009 	b	1a18 <BSP_CPU_PclkFreq+0x180>
             } else if (selection == 2) {
    19f0:	e59d3008 	ldr	r3, [sp, #8]
    19f4:	e3530002 	cmp	r3, #2
    19f8:	1a000002 	bne	1a08 <BSP_CPU_PclkFreq+0x170>
                 return (clk_freq / 2);
    19fc:	e59d300c 	ldr	r3, [sp, #12]
    1a00:	e1a030a3 	lsr	r3, r3, #1
    1a04:	ea000003 	b	1a18 <BSP_CPU_PclkFreq+0x180>
             } else {
                 return (clk_freq / 8);
    1a08:	e59d300c 	ldr	r3, [sp, #12]
    1a0c:	e1a031a3 	lsr	r3, r3, #3
    1a10:	ea000000 	b	1a18 <BSP_CPU_PclkFreq+0x180>
             }

        default:
             return (0);
    1a14:	e3a03000 	mov	r3, #0
    }
}
    1a18:	e1a00003 	mov	r0, r3
    1a1c:	e28dd014 	add	sp, sp, #20
    1a20:	e49de004 	pop	{lr}		; (ldr lr, [sp], #4)
    1a24:	e12fff1e 	bx	lr
    1a28:	e01fc000 	.word	0xe01fc000

00001a2c <BSP_IntDisAll>:
*********************************************************************************************************
*/

void  BSP_IntDisAll (void)
{
    WRITEREG32(VICINTENCLEAR, 0xFFFFFFFFL);                                /* Disable ALL interrupts                                   */
    1a2c:	e59f3008 	ldr	r3, [pc, #8]	; 1a3c <BSP_IntDisAll+0x10>
    1a30:	e3e02000 	mvn	r2, #0
    1a34:	e5832000 	str	r2, [r3]
}
    1a38:	e12fff1e 	bx	lr
    1a3c:	fffff014 	.word	0xfffff014

00001a40 <hello_world>:

//
// hello_world with timer reset
//
void hello_world(void)
{
    1a40:	e92d4008 	push	{r3, lr}
	WRITEREG32(T0IR, 0xFF);         // Reset timer
    1a44:	e59f3014 	ldr	r3, [pc, #20]	; 1a60 <hello_world+0x20>
    1a48:	e3a020ff 	mov	r2, #255	; 0xff
    1a4c:	e5832000 	str	r2, [r3]
	printString("Hello world!\n");
    1a50:	e59f000c 	ldr	r0, [pc, #12]	; 1a64 <hello_world+0x24>
    1a54:	ebfffecb 	bl	1588 <printString>
}
    1a58:	e8bd4008 	pop	{r3, lr}
    1a5c:	e12fff1e 	bx	lr
    1a60:	e0004000 	.word	0xe0004000
    1a64:	00001d68 	.word	0x00001d68

00001a68 <taskOne>:
//
// taskOne counts up from 0.
// Never exits.
//
void taskOne(CriticalSection_t cs)
{
    1a68:	e52de004 	push	{lr}		; (str lr, [sp, #-4]!)
    1a6c:	e24dd014 	sub	sp, sp, #20
    1a70:	e58d0004 	str	r0, [sp, #4]
	int count = 0;
    1a74:	e3a03000 	mov	r3, #0
    1a78:	e58d300c 	str	r3, [sp, #12]
	while(1)
	{
        EnterCriticalSection(cs);
    1a7c:	e59d0004 	ldr	r0, [sp, #4]
    1a80:	eb000046 	bl	1ba0 <EnterCriticalSection>
		printString("task one: ");
    1a84:	e59f0050 	ldr	r0, [pc, #80]	; 1adc <taskOne+0x74>
    1a88:	ebfffebe 	bl	1588 <printString>
		print_uint32(count++);
    1a8c:	e59d300c 	ldr	r3, [sp, #12]
    1a90:	e2832001 	add	r2, r3, #1
    1a94:	e58d200c 	str	r2, [sp, #12]
    1a98:	e1a00003 	mov	r0, r3
    1a9c:	ebfffe74 	bl	1474 <print_uint32>
		printString("\n");
    1aa0:	e59f0038 	ldr	r0, [pc, #56]	; 1ae0 <taskOne+0x78>
    1aa4:	ebfffeb7 	bl	1588 <printString>
		int i;
		for(i=0;i<10000;i++);    // delay
    1aa8:	e3a03000 	mov	r3, #0
    1aac:	e58d3008 	str	r3, [sp, #8]
    1ab0:	ea000002 	b	1ac0 <taskOne+0x58>
    1ab4:	e59d3008 	ldr	r3, [sp, #8]
    1ab8:	e2833001 	add	r3, r3, #1
    1abc:	e58d3008 	str	r3, [sp, #8]
    1ac0:	e59d2008 	ldr	r2, [sp, #8]
    1ac4:	e59f3018 	ldr	r3, [pc, #24]	; 1ae4 <taskOne+0x7c>
    1ac8:	e1520003 	cmp	r2, r3
    1acc:	dafffff8 	ble	1ab4 <taskOne+0x4c>
        LeaveCriticalSection(cs);
    1ad0:	e59d0004 	ldr	r0, [sp, #4]
    1ad4:	eb000037 	bl	1bb8 <LeaveCriticalSection>
	}
    1ad8:	eaffffe7 	b	1a7c <taskOne+0x14>
    1adc:	00001d78 	.word	0x00001d78
    1ae0:	00001d84 	.word	0x00001d84
    1ae4:	0000270f 	.word	0x0000270f

00001ae8 <taskTwo>:
//
// taskTwo counts down from 0xFFFFFFFF
// Never exits.
//
void taskTwo(CriticalSection_t cs)
{
    1ae8:	e52de004 	push	{lr}		; (str lr, [sp, #-4]!)
    1aec:	e24dd014 	sub	sp, sp, #20
    1af0:	e58d0004 	str	r0, [sp, #4]
	int count = 0xFFFFFFFF;
    1af4:	e3e03000 	mvn	r3, #0
    1af8:	e58d300c 	str	r3, [sp, #12]
	while(1)
	{
        EnterCriticalSection(cs);
    1afc:	e59d0004 	ldr	r0, [sp, #4]
    1b00:	eb000026 	bl	1ba0 <EnterCriticalSection>
		printString("task two: ");
    1b04:	e59f0050 	ldr	r0, [pc, #80]	; 1b5c <taskTwo+0x74>
    1b08:	ebfffe9e 	bl	1588 <printString>
		print_uint32(count--);
    1b0c:	e59d300c 	ldr	r3, [sp, #12]
    1b10:	e2432001 	sub	r2, r3, #1
    1b14:	e58d200c 	str	r2, [sp, #12]
    1b18:	e1a00003 	mov	r0, r3
    1b1c:	ebfffe54 	bl	1474 <print_uint32>
		printString("\n");
    1b20:	e59f0038 	ldr	r0, [pc, #56]	; 1b60 <taskTwo+0x78>
    1b24:	ebfffe97 	bl	1588 <printString>
		int i;
		for(i=0;i<10000;i++);    // delay
    1b28:	e3a03000 	mov	r3, #0
    1b2c:	e58d3008 	str	r3, [sp, #8]
    1b30:	ea000002 	b	1b40 <taskTwo+0x58>
    1b34:	e59d3008 	ldr	r3, [sp, #8]
    1b38:	e2833001 	add	r3, r3, #1
    1b3c:	e58d3008 	str	r3, [sp, #8]
    1b40:	e59d2008 	ldr	r2, [sp, #8]
    1b44:	e59f3018 	ldr	r3, [pc, #24]	; 1b64 <taskTwo+0x7c>
    1b48:	e1520003 	cmp	r2, r3
    1b4c:	dafffff8 	ble	1b34 <taskTwo+0x4c>
        LeaveCriticalSection(cs);
    1b50:	e59d0004 	ldr	r0, [sp, #4]
    1b54:	eb000017 	bl	1bb8 <LeaveCriticalSection>
	}
    1b58:	eaffffe7 	b	1afc <taskTwo+0x14>
    1b5c:	00001d88 	.word	0x00001d88
    1b60:	00001d84 	.word	0x00001d84
    1b64:	0000270f 	.word	0x0000270f

00001b68 <CreateCriticalSection>:
const int SUCCESS   =   0;
const int BUSY      =   1;
const int RESOURCE  =   2;

int CreateCriticalSection(CriticalSection_t cs)
{
    1b68:	e24dd010 	sub	sp, sp, #16
    1b6c:	e58d0004 	str	r0, [sp, #4]
    cs = SUCCESS;
    1b70:	e3a03000 	mov	r3, #0
    1b74:	e58d300c 	str	r3, [sp, #12]
    return 0;
    1b78:	e3a03000 	mov	r3, #0
}
    1b7c:	e1a00003 	mov	r0, r3
    1b80:	e28dd010 	add	sp, sp, #16
    1b84:	e12fff1e 	bx	lr

00001b88 <DeleteCriticalSection>:

int DeleteCriticalSection(CriticalSection_t cs)
{
    1b88:	e24dd008 	sub	sp, sp, #8
    1b8c:	e58d0004 	str	r0, [sp, #4]
    return 0;
    1b90:	e3a03000 	mov	r3, #0
}
    1b94:	e1a00003 	mov	r0, r3
    1b98:	e28dd008 	add	sp, sp, #8
    1b9c:	e12fff1e 	bx	lr

00001ba0 <EnterCriticalSection>:

int EnterCriticalSection(CriticalSection_t cs)
{
    1ba0:	e24dd008 	sub	sp, sp, #8
    1ba4:	e58d0004 	str	r0, [sp, #4]
    return 0;
    1ba8:	e3a03000 	mov	r3, #0
}
    1bac:	e1a00003 	mov	r0, r3
    1bb0:	e28dd008 	add	sp, sp, #8
    1bb4:	e12fff1e 	bx	lr

00001bb8 <LeaveCriticalSection>:

int LeaveCriticalSection(CriticalSection_t cs)
{
    1bb8:	e24dd008 	sub	sp, sp, #8
    1bbc:	e58d0004 	str	r0, [sp, #4]
    return 0;
    1bc0:	e3a03000 	mov	r3, #0
}
    1bc4:	e1a00003 	mov	r0, r3
    1bc8:	e28dd008 	add	sp, sp, #8
    1bcc:	e12fff1e 	bx	lr

00001bd0 <QueryEnterCriticalSection>:

int QueryEnterCriticalSection(CriticalSection_t cs)
{
    1bd0:	e24dd008 	sub	sp, sp, #8
    1bd4:	e58d0004 	str	r0, [sp, #4]
    return 0;
    1bd8:	e3a03000 	mov	r3, #0
}
    1bdc:	e1a00003 	mov	r0, r3
    1be0:	e28dd008 	add	sp, sp, #8
    1be4:	e12fff1e 	bx	lr

00001be8 <__aeabi_uidiv>:
    1be8:	e2512001 	subs	r2, r1, #1
    1bec:	012fff1e 	bxeq	lr
    1bf0:	3a000036 	bcc	1cd0 <__aeabi_uidiv+0xe8>
    1bf4:	e1500001 	cmp	r0, r1
    1bf8:	9a000022 	bls	1c88 <__aeabi_uidiv+0xa0>
    1bfc:	e1110002 	tst	r1, r2
    1c00:	0a000023 	beq	1c94 <__aeabi_uidiv+0xac>
    1c04:	e311020e 	tst	r1, #-536870912	; 0xe0000000
    1c08:	01a01181 	lsleq	r1, r1, #3
    1c0c:	03a03008 	moveq	r3, #8
    1c10:	13a03001 	movne	r3, #1
    1c14:	e3510201 	cmp	r1, #268435456	; 0x10000000
    1c18:	31510000 	cmpcc	r1, r0
    1c1c:	31a01201 	lslcc	r1, r1, #4
    1c20:	31a03203 	lslcc	r3, r3, #4
    1c24:	3afffffa 	bcc	1c14 <__aeabi_uidiv+0x2c>
    1c28:	e3510102 	cmp	r1, #-2147483648	; 0x80000000
    1c2c:	31510000 	cmpcc	r1, r0
    1c30:	31a01081 	lslcc	r1, r1, #1
    1c34:	31a03083 	lslcc	r3, r3, #1
    1c38:	3afffffa 	bcc	1c28 <__aeabi_uidiv+0x40>
    1c3c:	e3a02000 	mov	r2, #0
    1c40:	e1500001 	cmp	r0, r1
    1c44:	20400001 	subcs	r0, r0, r1
    1c48:	21822003 	orrcs	r2, r2, r3
    1c4c:	e15000a1 	cmp	r0, r1, lsr #1
    1c50:	204000a1 	subcs	r0, r0, r1, lsr #1
    1c54:	218220a3 	orrcs	r2, r2, r3, lsr #1
    1c58:	e1500121 	cmp	r0, r1, lsr #2
    1c5c:	20400121 	subcs	r0, r0, r1, lsr #2
    1c60:	21822123 	orrcs	r2, r2, r3, lsr #2
    1c64:	e15001a1 	cmp	r0, r1, lsr #3
    1c68:	204001a1 	subcs	r0, r0, r1, lsr #3
    1c6c:	218221a3 	orrcs	r2, r2, r3, lsr #3
    1c70:	e3500000 	cmp	r0, #0
    1c74:	11b03223 	lsrsne	r3, r3, #4
    1c78:	11a01221 	lsrne	r1, r1, #4
    1c7c:	1affffef 	bne	1c40 <__aeabi_uidiv+0x58>
    1c80:	e1a00002 	mov	r0, r2
    1c84:	e12fff1e 	bx	lr
    1c88:	03a00001 	moveq	r0, #1
    1c8c:	13a00000 	movne	r0, #0
    1c90:	e12fff1e 	bx	lr
    1c94:	e3510801 	cmp	r1, #65536	; 0x10000
    1c98:	21a01821 	lsrcs	r1, r1, #16
    1c9c:	23a02010 	movcs	r2, #16
    1ca0:	33a02000 	movcc	r2, #0
    1ca4:	e3510c01 	cmp	r1, #256	; 0x100
    1ca8:	21a01421 	lsrcs	r1, r1, #8
    1cac:	22822008 	addcs	r2, r2, #8
    1cb0:	e3510010 	cmp	r1, #16
    1cb4:	21a01221 	lsrcs	r1, r1, #4
    1cb8:	22822004 	addcs	r2, r2, #4
    1cbc:	e3510004 	cmp	r1, #4
    1cc0:	82822003 	addhi	r2, r2, #3
    1cc4:	908220a1 	addls	r2, r2, r1, lsr #1
    1cc8:	e1a00230 	lsr	r0, r0, r2
    1ccc:	e12fff1e 	bx	lr
    1cd0:	e3500000 	cmp	r0, #0
    1cd4:	13e00000 	mvnne	r0, #0
    1cd8:	ea000007 	b	1cfc <__aeabi_idiv0>

00001cdc <__aeabi_uidivmod>:
    1cdc:	e3510000 	cmp	r1, #0
    1ce0:	0afffffa 	beq	1cd0 <__aeabi_uidiv+0xe8>
    1ce4:	e92d4003 	push	{r0, r1, lr}
    1ce8:	ebffffbe 	bl	1be8 <__aeabi_uidiv>
    1cec:	e8bd4006 	pop	{r1, r2, lr}
    1cf0:	e0030092 	mul	r3, r2, r0
    1cf4:	e0411003 	sub	r1, r1, r3
    1cf8:	e12fff1e 	bx	lr

00001cfc <__aeabi_idiv0>:
    1cfc:	e12fff1e 	bx	lr
    1d00:	74697753 	.word	0x74697753
    1d04:	000a6863 	.word	0x000a6863
    1d08:	76696e55 	.word	0x76696e55
    1d0c:	69737265 	.word	0x69737265
    1d10:	6f207974 	.word	0x6f207974
    1d14:	61572066 	.word	0x61572066
    1d18:	6e696873 	.word	0x6e696873
    1d1c:	6e6f7467 	.word	0x6e6f7467
    1d20:	43202d20 	.word	0x43202d20
    1d24:	65746e6f 	.word	0x65746e6f
    1d28:	535f7478 	.word	0x535f7478
    1d2c:	63746977 	.word	0x63746977
    1d30:	20726568 	.word	0x20726568
    1d34:	74736554 	.word	0x74736554
    1d38:	70704120 	.word	0x70704120
    1d3c:	6163696c 	.word	0x6163696c
    1d40:	6e6f6974 	.word	0x6e6f6974
    1d44:	00000a20 	.word	0x00000a20
    1d48:	6e69614d 	.word	0x6e69614d
    1d4c:	6d6f6320 	.word	0x6d6f6320
    1d50:	74656c70 	.word	0x74656c70
    1d54:	0a2e6465 	.word	0x0a2e6465
    1d58:	00000000 	.word	0x00000000
    1d5c:	0001000c 	.word	0x0001000c
    1d60:	112a8800 	.word	0x112a8800
    1d64:	00000106 	.word	0x00000106
    1d68:	6c6c6548 	.word	0x6c6c6548
    1d6c:	6f77206f 	.word	0x6f77206f
    1d70:	21646c72 	.word	0x21646c72
    1d74:	0000000a 	.word	0x0000000a
    1d78:	6b736174 	.word	0x6b736174
    1d7c:	656e6f20 	.word	0x656e6f20
    1d80:	0000203a 	.word	0x0000203a
    1d84:	0000000a 	.word	0x0000000a
    1d88:	6b736174 	.word	0x6b736174
    1d8c:	6f777420 	.word	0x6f777420
    1d90:	0000203a 	.word	0x0000203a

00001d94 <SUCCESS>:
    1d94:	00000000                                ....

00001d98 <BUSY>:
    1d98:	00000001                                ....

00001d9c <RESOURCE>:
    1d9c:	00000002                                ....
