ARM GAS  /tmp/ccyhJT25.s 			page 1


   1              		.cpu arm7tdmi
   2              		.fpu softvfp
   3              		.eabi_attribute 20, 1	@ Tag_ABI_FP_denormal
   4              		.eabi_attribute 21, 1	@ Tag_ABI_FP_exceptions
   5              		.eabi_attribute 23, 3	@ Tag_ABI_FP_number_model
   6              		.eabi_attribute 24, 1	@ Tag_ABI_align8_needed
   7              		.eabi_attribute 25, 1	@ Tag_ABI_align8_preserved
   8              		.eabi_attribute 26, 1	@ Tag_ABI_enum_size
   9              		.eabi_attribute 30, 6	@ Tag_ABI_optimization_goals
  10              		.eabi_attribute 34, 0	@ Tag_CPU_unaligned_access
  11              		.eabi_attribute 18, 4	@ Tag_ABI_PCS_wchar_t
  12              		.file	"bsp.c"
  13              	@ GNU C (GNU Tools for ARM Embedded Processors) version 4.8.4 20140725 (release) [ARM/embedded-4_8-
  14              	@	compiled by GNU C version 4.7.4, GMP version 4.3.2, MPFR version 2.4.2, MPC version 0.8.1
  15              	@ GGC heuristics: --param ggc-min-expand=100 --param ggc-min-heapsize=131072
  16              	@ options passed:  -I . -I ./inc
  17              	@ -iprefix /opt/gcc-arm-none-eabi-4_8-2014q3/bin/../lib/gcc/arm-none-eabi/4.8.4/
  18              	@ -isysroot /opt/gcc-arm-none-eabi-4_8-2014q3/bin/../arm-none-eabi
  19              	@ -MD src/bsp.d -MF .dep/bsp.o.d -MP -MQ src/bsp.o -D__USES_INITFINI__
  20              	@ -D DEBUG=1 src/bsp.c -mcpu=arm7tdmi -marm -auxbase-strip src/bsp.o
  21              	@ -gdwarf-2 -O0 -Wall -Wstrict-prototypes -fomit-frame-pointer
  22              	@ -fverbose-asm
  23              	@ options enabled:  -faggressive-loop-optimizations -fauto-inc-dec
  24              	@ -fbranch-count-reg -fcommon -fdelete-null-pointer-checks -fdwarf2-cfi-asm
  25              	@ -fearly-inlining -feliminate-unused-debug-types -ffunction-cse -fgcse-lm
  26              	@ -fgnu-runtime -fgnu-unique -fident -finline-atomics -fira-hoist-pressure
  27              	@ -fira-share-save-slots -fira-share-spill-slots -fivopts
  28              	@ -fkeep-static-consts -fleading-underscore -fmath-errno
  29              	@ -fmerge-debug-strings -fmove-loop-invariants -fomit-frame-pointer
  30              	@ -fpeephole -fprefetch-loop-arrays -freg-struct-return
  31              	@ -fsched-critical-path-heuristic -fsched-dep-count-heuristic
  32              	@ -fsched-group-heuristic -fsched-interblock -fsched-last-insn-heuristic
  33              	@ -fsched-rank-heuristic -fsched-spec -fsched-spec-insn-heuristic
  34              	@ -fsched-stalled-insns-dep -fshow-column -fsigned-zeros
  35              	@ -fsplit-ivs-in-unroller -fstrict-volatile-bitfields -fsync-libcalls
  36              	@ -ftrapping-math -ftree-coalesce-vars -ftree-cselim -ftree-forwprop
  37              	@ -ftree-loop-if-convert -ftree-loop-im -ftree-loop-ivcanon
  38              	@ -ftree-loop-optimize -ftree-parallelize-loops= -ftree-phiprop -ftree-pta
  39              	@ -ftree-reassoc -ftree-scev-cprop -ftree-slp-vectorize
  40              	@ -ftree-vect-loop-version -funit-at-a-time -fverbose-asm
  41              	@ -fzero-initialized-in-bss -marm -mlittle-endian
  42              	@ -mpic-data-is-text-relative -msched-prolog -mthumb-interwork
  43              	@ -mvectorize-with-neon-quad
  44              	
  45              		.text
  46              	.Ltext0:
  47              		.cfi_sections	.debug_frame
  48              		.global	__aeabi_uidiv
  49              		.align	2
  50              		.global	BSP_CPU_ClkFreq
  51              		.type	BSP_CPU_ClkFreq, %function
  52              	BSP_CPU_ClkFreq:
  53              	.LFB0:
  54              		.file 1 "src/bsp.c"
   1:src/bsp.c     **** 
   2:src/bsp.c     **** #include "lpc2378.h"
   3:src/bsp.c     **** #include "bsp.h"
ARM GAS  /tmp/ccyhJT25.s 			page 2


   4:src/bsp.c     **** 
   5:src/bsp.c     **** /*
   6:src/bsp.c     **** ***************************************************************************************************
   7:src/bsp.c     **** *                                            BSP_CPU_ClkFreq()
   8:src/bsp.c     **** *
   9:src/bsp.c     **** * Description : Get the CPU clock frequency.
  10:src/bsp.c     **** *
  11:src/bsp.c     **** * Argument(s) : none.
  12:src/bsp.c     **** *
  13:src/bsp.c     **** * Return(s)   : The CPU clock frequency, in Hz.
  14:src/bsp.c     **** ***************************************************************************************************
  15:src/bsp.c     **** */
  16:src/bsp.c     **** 
  17:src/bsp.c     **** INT32U  BSP_CPU_ClkFreq (void)
  18:src/bsp.c     **** {
  55              		.loc 1 18 0
  56              		.cfi_startproc
  57              		@ Function supports interworking.
  58              		@ args = 0, pretend = 0, frame = 24
  59              		@ frame_needed = 0, uses_anonymous_args = 0
  60 0000 04E02DE5 		str	lr, [sp, #-4]!	@,
  61              	.LCFI0:
  62              		.cfi_def_cfa_offset 4
  63              		.cfi_offset 14, -4
  64 0004 1CD04DE2 		sub	sp, sp, #28	@,,
  65              	.LCFI1:
  66              		.cfi_def_cfa_offset 32
  19:src/bsp.c     ****     INT32U  msel;
  20:src/bsp.c     ****     INT32U  nsel;
  21:src/bsp.c     ****     INT32U  fin;
  22:src/bsp.c     ****     INT32U  pll_clk_feq;                                    /* When the PLL is enabled, this is Fcc
  23:src/bsp.c     ****     INT32U  clk_div;
  24:src/bsp.c     ****     INT32U  clk_freq;
  25:src/bsp.c     **** 
  26:src/bsp.c     **** 
  27:src/bsp.c     ****     switch (SCB_READREG8(CLKSRCSEL) & 0x03) {                                 /* Determine the curr
  67              		.loc 1 27 0
  68 0008 FC309FE5 		ldr	r3, .L11	@ D.4710,
  69 000c 0C31D3E5 		ldrb	r3, [r3, #268]	@ tmp132, _3->CLKSRCSEL
  70 0010 FF3003E2 		and	r3, r3, #255	@ D.4711, tmp132,
  71 0014 033003E2 		and	r3, r3, #3	@ D.4712, D.4712,
  72 0018 010053E3 		cmp	r3, #1	@ D.4712,
  73 001c 0600000A 		beq	.L3	@,
  74 0020 020053E3 		cmp	r3, #2	@ D.4712,
  75 0024 0700000A 		beq	.L4	@,
  76 0028 000053E3 		cmp	r3, #0	@ D.4712,
  77 002c 0800001A 		bne	.L10	@,
  28:src/bsp.c     ****         case 0:
  29:src/bsp.c     ****              fin = IRC_OSC_FRQ;
  78              		.loc 1 29 0
  79 0030 D8309FE5 		ldr	r3, .L11+4	@ tmp133,
  80 0034 14308DE5 		str	r3, [sp, #20]	@ tmp133, fin
  30:src/bsp.c     ****              break;
  81              		.loc 1 30 0
  82 0038 080000EA 		b	.L6	@
  83              	.L3:
  31:src/bsp.c     **** 
ARM GAS  /tmp/ccyhJT25.s 			page 3


  32:src/bsp.c     ****         case 1:
  33:src/bsp.c     ****              fin = MAIN_OSC_FRQ;
  84              		.loc 1 33 0
  85 003c D0309FE5 		ldr	r3, .L11+8	@ tmp134,
  86 0040 14308DE5 		str	r3, [sp, #20]	@ tmp134, fin
  34:src/bsp.c     ****              break;
  87              		.loc 1 34 0
  88 0044 050000EA 		b	.L6	@
  89              	.L4:
  35:src/bsp.c     **** 
  36:src/bsp.c     ****         case 2:
  37:src/bsp.c     ****              fin = RTC_OSC_FRQ;
  90              		.loc 1 37 0
  91 0048 0239A0E3 		mov	r3, #32768	@ tmp135,
  92 004c 14308DE5 		str	r3, [sp, #20]	@ tmp135, fin
  38:src/bsp.c     ****              break;
  93              		.loc 1 38 0
  94 0050 020000EA 		b	.L6	@
  95              	.L10:
  39:src/bsp.c     **** 
  40:src/bsp.c     ****         default:
  41:src/bsp.c     ****              fin = IRC_OSC_FRQ;
  96              		.loc 1 41 0
  97 0054 B4309FE5 		ldr	r3, .L11+4	@ tmp136,
  98 0058 14308DE5 		str	r3, [sp, #20]	@ tmp136, fin
  42:src/bsp.c     ****              break;
  99              		.loc 1 42 0
 100 005c 0000A0E1 		mov	r0, r0	@ nop
 101              	.L6:
  43:src/bsp.c     ****     }
  44:src/bsp.c     **** 
  45:src/bsp.c     ****     if ((SCB_READREG32(PLLSTAT) & (1 << 25)) > 0) {                                /* If the PLL is
 102              		.loc 1 45 0
 103 0060 A4309FE5 		ldr	r3, .L11	@ D.4710,
 104 0064 883093E5 		ldr	r3, [r3, #136]	@ D.4713, _11->PLLSTAT
 105 0068 023403E2 		and	r3, r3, #33554432	@ D.4713, D.4713,
 106 006c 000053E3 		cmp	r3, #0	@ D.4713,
 107 0070 1400000A 		beq	.L7	@,
  46:src/bsp.c     ****         msel        = (INT32U)(SCB_READREG32(PLLSTAT) & 0x3FFF) + 1;           /* Obtain the PLL mu
 108              		.loc 1 46 0
 109 0074 90309FE5 		ldr	r3, .L11	@ D.4710,
 110 0078 883093E5 		ldr	r3, [r3, #136]	@ D.4713, _14->PLLSTAT
 111 007c 0339A0E1 		mov	r3, r3, asl #18	@ D.4713, D.4713,
 112 0080 2339A0E1 		mov	r3, r3, lsr #18	@ D.4713, D.4713,
 113 0084 013083E2 		add	r3, r3, #1	@ tmp137, D.4713,
 114 0088 0C308DE5 		str	r3, [sp, #12]	@ tmp137, msel
  47:src/bsp.c     ****         nsel        = (INT32U)((SCB_READREG32(PLLSTAT) >>   16) & 0x0F) + 1;   /* Obtain the PLL di
 115              		.loc 1 47 0
 116 008c 78309FE5 		ldr	r3, .L11	@ D.4710,
 117 0090 883093E5 		ldr	r3, [r3, #136]	@ D.4713, _18->PLLSTAT
 118 0094 2338A0E1 		mov	r3, r3, lsr #16	@ D.4713, D.4713,
 119 0098 0F3003E2 		and	r3, r3, #15	@ D.4713, D.4713,
 120 009c 013083E2 		add	r3, r3, #1	@ tmp138, D.4713,
 121 00a0 08308DE5 		str	r3, [sp, #8]	@ tmp138, nsel
  48:src/bsp.c     ****         pll_clk_feq = (2 * msel * (fin / nsel));                    /* Compute the PLL output frequ
 122              		.loc 1 48 0
 123 00a4 14009DE5 		ldr	r0, [sp, #20]	@, fin
ARM GAS  /tmp/ccyhJT25.s 			page 4


 124 00a8 08109DE5 		ldr	r1, [sp, #8]	@, nsel
 125 00ac FEFFFFEB 		bl	__aeabi_uidiv	@
 126 00b0 0030A0E1 		mov	r3, r0	@ tmp141,
 127 00b4 0C209DE5 		ldr	r2, [sp, #12]	@ tmp142, msel
 128 00b8 920303E0 		mul	r3, r2, r3	@ D.4713, tmp142, D.4713
 129 00bc 8330A0E1 		mov	r3, r3, asl #1	@ tmp143, D.4713,
 130 00c0 10308DE5 		str	r3, [sp, #16]	@ tmp143, pll_clk_feq
 131 00c4 010000EA 		b	.L8	@
 132              	.L7:
  49:src/bsp.c     ****     } else {
  50:src/bsp.c     ****         pll_clk_feq = (fin);                                        /* The PLL is bypassed         
 133              		.loc 1 50 0
 134 00c8 14309DE5 		ldr	r3, [sp, #20]	@ tmp144, fin
 135 00cc 10308DE5 		str	r3, [sp, #16]	@ tmp144, pll_clk_feq
 136              	.L8:
  51:src/bsp.c     ****     }
  52:src/bsp.c     **** 
  53:src/bsp.c     ****     clk_div         = (INT32U)(SCB_READREG32(CCLKCFG) & 0xFF) + 1;             /* Obtain the CPU co
 137              		.loc 1 53 0
 138 00d0 34309FE5 		ldr	r3, .L11	@ D.4710,
 139 00d4 0431D3E5 		ldrb	r3, [r3, #260]	@ tmp146, _27->CCLKCFG
 140 00d8 FF3003E2 		and	r3, r3, #255	@ D.4711, tmp146,
 141 00dc 013083E2 		add	r3, r3, #1	@ tmp147, D.4713,
 142 00e0 04308DE5 		str	r3, [sp, #4]	@ tmp147, clk_div
  54:src/bsp.c     ****     clk_freq        = (INT32U)(pll_clk_feq / clk_div);          /* Compute the ARM Core clock frequ
 143              		.loc 1 54 0
 144 00e4 10009DE5 		ldr	r0, [sp, #16]	@, pll_clk_feq
 145 00e8 04109DE5 		ldr	r1, [sp, #4]	@, clk_div
 146 00ec FEFFFFEB 		bl	__aeabi_uidiv	@
 147 00f0 0030A0E1 		mov	r3, r0	@ tmp151,
 148 00f4 00308DE5 		str	r3, [sp]	@ tmp151, clk_freq
  55:src/bsp.c     **** 
  56:src/bsp.c     ****     return (clk_freq);
 149              		.loc 1 56 0
 150 00f8 00309DE5 		ldr	r3, [sp]	@ D.4713, clk_freq
  57:src/bsp.c     **** }
 151              		.loc 1 57 0
 152 00fc 0300A0E1 		mov	r0, r3	@, <retval>
 153 0100 1CD08DE2 		add	sp, sp, #28	@,,
 154              		@ sp needed	@
 155 0104 04E09DE4 		ldr	lr, [sp], #4	@,
 156 0108 1EFF2FE1 		bx	lr	@
 157              	.L12:
 158              		.align	2
 159              	.L11:
 160 010c 00C01FE0 		.word	-534790144
 161 0110 00093D00 		.word	4000000
 162 0114 001BB700 		.word	12000000
 163              		.cfi_endproc
 164              	.LFE0:
 165              		.size	BSP_CPU_ClkFreq, .-BSP_CPU_ClkFreq
 166              		.align	2
 167              		.global	BSP_CPU_PclkFreq
 168              		.type	BSP_CPU_PclkFreq, %function
 169              	BSP_CPU_PclkFreq:
 170              	.LFB1:
  58:src/bsp.c     **** 
ARM GAS  /tmp/ccyhJT25.s 			page 5


  59:src/bsp.c     **** /*
  60:src/bsp.c     **** ***************************************************************************************************
  61:src/bsp.c     **** *                                            BSP_CPU_PclkFreq()
  62:src/bsp.c     **** *
  63:src/bsp.c     **** * Description : Get the peripheral clock frequency for a specific peripheral.
  64:src/bsp.c     **** *
  65:src/bsp.c     **** * Argument(s) : pclk        The peripheral clock ID, one of PCLK_??? defined in bsp.h.
  66:src/bsp.c     **** *
  67:src/bsp.c     **** * Return(s)   : The peripheral's clock in Hz
  68:src/bsp.c     **** ***************************************************************************************************
  69:src/bsp.c     **** */
  70:src/bsp.c     **** 
  71:src/bsp.c     **** 
  72:src/bsp.c     **** INT32U  BSP_CPU_PclkFreq (INT8U  pclk)
  73:src/bsp.c     **** {
 171              		.loc 1 73 0
 172              		.cfi_startproc
 173              		@ Function supports interworking.
 174              		@ args = 0, pretend = 0, frame = 16
 175              		@ frame_needed = 0, uses_anonymous_args = 0
 176 0118 04E02DE5 		str	lr, [sp, #-4]!	@,
 177              	.LCFI2:
 178              		.cfi_def_cfa_offset 4
 179              		.cfi_offset 14, -4
 180 011c 14D04DE2 		sub	sp, sp, #20	@,,
 181              	.LCFI3:
 182              		.cfi_def_cfa_offset 24
 183 0120 0030A0E1 		mov	r3, r0	@ tmp124, pclk
 184 0124 0730CDE5 		strb	r3, [sp, #7]	@ tmp125, pclk
  74:src/bsp.c     ****     INT32U  clk_freq;
  75:src/bsp.c     ****     INT32U  selection;
  76:src/bsp.c     **** 
  77:src/bsp.c     **** 
  78:src/bsp.c     ****     clk_freq = BSP_CPU_ClkFreq();
 185              		.loc 1 78 0
 186 0128 FEFFFFEB 		bl	BSP_CPU_ClkFreq	@
 187 012c 0C008DE5 		str	r0, [sp, #12]	@, clk_freq
  79:src/bsp.c     **** 
  80:src/bsp.c     ****     switch (pclk) {
 188              		.loc 1 80 0
 189 0130 0730DDE5 		ldrb	r3, [sp, #7]	@ zero_extendqisi2	@ D.4715, pclk
 190 0134 1D0053E3 		cmp	r3, #29	@ D.4715,
 191 0138 03F19F97 		ldrls	pc, [pc, r3, asl #2]	@ D.4715
 192 013c 540000EA 		b	.L14	@
 193              	.L16:
 194 0140 B8010000 		.word	.L15
 195 0144 B8010000 		.word	.L15
 196 0148 B8010000 		.word	.L15
 197 014c B8010000 		.word	.L15
 198 0150 B8010000 		.word	.L15
 199 0154 B8010000 		.word	.L15
 200 0158 B8010000 		.word	.L15
 201 015c B8010000 		.word	.L15
 202 0160 B8010000 		.word	.L15
 203 0164 B8010000 		.word	.L15
 204 0168 B8010000 		.word	.L15
 205 016c B8010000 		.word	.L15
ARM GAS  /tmp/ccyhJT25.s 			page 6


 206 0170 B8010000 		.word	.L15
 207 0174 B8010000 		.word	.L15
 208 0178 B8010000 		.word	.L15
 209 017c B8010000 		.word	.L15
 210 0180 24020000 		.word	.L17
 211 0184 24020000 		.word	.L17
 212 0188 24020000 		.word	.L17
 213 018c 24020000 		.word	.L17
 214 0190 94020000 		.word	.L14
 215 0194 24020000 		.word	.L17
 216 0198 24020000 		.word	.L17
 217 019c 24020000 		.word	.L17
 218 01a0 24020000 		.word	.L17
 219 01a4 24020000 		.word	.L17
 220 01a8 24020000 		.word	.L17
 221 01ac 24020000 		.word	.L17
 222 01b0 94020000 		.word	.L14
 223 01b4 24020000 		.word	.L17
 224              	.L15:
  81:src/bsp.c     ****         case PCLKINDX_WDT:
  82:src/bsp.c     ****         case PCLKINDX_TIMER0:
  83:src/bsp.c     ****         case PCLKINDX_TIMER1:
  84:src/bsp.c     ****         case PCLKINDX_UART0:
  85:src/bsp.c     ****         case PCLKINDX_UART1:
  86:src/bsp.c     ****         case PCLKINDX_PWM0:
  87:src/bsp.c     ****         case PCLKINDX_PWM1:
  88:src/bsp.c     ****         case PCLKINDX_I2C0:
  89:src/bsp.c     ****         case PCLKINDX_SPI:
  90:src/bsp.c     ****         case PCLKINDX_RTC:
  91:src/bsp.c     ****         case PCLKINDX_SSP1:
  92:src/bsp.c     ****         case PCLKINDX_DAC:
  93:src/bsp.c     ****         case PCLKINDX_ADC:
  94:src/bsp.c     ****         case PCLKINDX_CAN1:
  95:src/bsp.c     ****         case PCLKINDX_CAN2:
  96:src/bsp.c     ****         case PCLKINDX_ACF:
  97:src/bsp.c     ****              selection = ((SCB_READREG32(PCLKSEL0) >> (pclk * 2)) & 0x03);
 225              		.loc 1 97 0
 226 01b8 E8309FE5 		ldr	r3, .L25	@ D.4716,
 227 01bc A82193E5 		ldr	r2, [r3, #424]	@ D.4714, _5->PCLKSEL0
 228 01c0 0730DDE5 		ldrb	r3, [sp, #7]	@ zero_extendqisi2	@ D.4715, pclk
 229 01c4 8330A0E1 		mov	r3, r3, asl #1	@ D.4715, D.4715,
 230 01c8 3233A0E1 		mov	r3, r2, lsr r3	@ D.4714, D.4714,
 231 01cc 033003E2 		and	r3, r3, #3	@ tmp126, D.4714,
 232 01d0 08308DE5 		str	r3, [sp, #8]	@ tmp126, selection
  98:src/bsp.c     ****              if (selection == 0) {
 233              		.loc 1 98 0
 234 01d4 08309DE5 		ldr	r3, [sp, #8]	@ tmp127, selection
 235 01d8 000053E3 		cmp	r3, #0	@ tmp127,
 236 01dc 0200001A 		bne	.L18	@,
  99:src/bsp.c     ****                  return (clk_freq / 4);
 237              		.loc 1 99 0
 238 01e0 0C309DE5 		ldr	r3, [sp, #12]	@ tmp128, clk_freq
 239 01e4 2331A0E1 		mov	r3, r3, lsr #2	@ D.4714, tmp128,
 240 01e8 2A0000EA 		b	.L19	@
 241              	.L18:
 100:src/bsp.c     ****              } else if (selection == 1) {
 242              		.loc 1 100 0
ARM GAS  /tmp/ccyhJT25.s 			page 7


 243 01ec 08309DE5 		ldr	r3, [sp, #8]	@ tmp129, selection
 244 01f0 010053E3 		cmp	r3, #1	@ tmp129,
 245 01f4 0100001A 		bne	.L20	@,
 101:src/bsp.c     ****                  return (clk_freq);
 246              		.loc 1 101 0
 247 01f8 0C309DE5 		ldr	r3, [sp, #12]	@ D.4714, clk_freq
 248 01fc 250000EA 		b	.L19	@
 249              	.L20:
 102:src/bsp.c     ****              } else if (selection == 2) {
 250              		.loc 1 102 0
 251 0200 08309DE5 		ldr	r3, [sp, #8]	@ tmp130, selection
 252 0204 020053E3 		cmp	r3, #2	@ tmp130,
 253 0208 0200001A 		bne	.L21	@,
 103:src/bsp.c     ****                  return (clk_freq / 2);
 254              		.loc 1 103 0
 255 020c 0C309DE5 		ldr	r3, [sp, #12]	@ tmp131, clk_freq
 256 0210 A330A0E1 		mov	r3, r3, lsr #1	@ D.4714, tmp131,
 257 0214 1F0000EA 		b	.L19	@
 258              	.L21:
 104:src/bsp.c     ****              } else {
 105:src/bsp.c     ****                  return (clk_freq / 8);
 259              		.loc 1 105 0
 260 0218 0C309DE5 		ldr	r3, [sp, #12]	@ tmp132, clk_freq
 261 021c A331A0E1 		mov	r3, r3, lsr #3	@ D.4714, tmp132,
 262 0220 1C0000EA 		b	.L19	@
 263              	.L17:
 106:src/bsp.c     ****              }
 107:src/bsp.c     **** 
 108:src/bsp.c     ****         case PCLKINDX_BAT_RAM:
 109:src/bsp.c     ****         case PCLKINDX_GPIO:
 110:src/bsp.c     ****         case PCLKINDX_PCB:
 111:src/bsp.c     ****         case PCLKINDX_I2C1:
 112:src/bsp.c     ****         case PCLKINDX_SSP0:
 113:src/bsp.c     ****         case PCLKINDX_TIMER2:
 114:src/bsp.c     ****         case PCLKINDX_TIMER3:
 115:src/bsp.c     ****         case PCLKINDX_UART2:
 116:src/bsp.c     ****         case PCLKINDX_UART3:
 117:src/bsp.c     ****         case PCLKINDX_I2C2:
 118:src/bsp.c     ****         case PCLKINDX_MCI:
 119:src/bsp.c     ****         case PCLKINDX_SYSCON:
 120:src/bsp.c     ****              selection = ((SCB_READREG32(PCLKSEL1) >> ((pclk - 16) * 2)) & 0x03);
 264              		.loc 1 120 0
 265 0224 7C309FE5 		ldr	r3, .L25	@ D.4716,
 266 0228 AC2193E5 		ldr	r2, [r3, #428]	@ D.4714, _15->PCLKSEL1
 267 022c 0730DDE5 		ldrb	r3, [sp, #7]	@ zero_extendqisi2	@ D.4715, pclk
 268 0230 103043E2 		sub	r3, r3, #16	@ D.4715, D.4715,
 269 0234 8330A0E1 		mov	r3, r3, asl #1	@ D.4715, D.4715,
 270 0238 3233A0E1 		mov	r3, r2, lsr r3	@ D.4714, D.4714,
 271 023c 033003E2 		and	r3, r3, #3	@ tmp133, D.4714,
 272 0240 08308DE5 		str	r3, [sp, #8]	@ tmp133, selection
 121:src/bsp.c     ****              if (selection == 0) {
 273              		.loc 1 121 0
 274 0244 08309DE5 		ldr	r3, [sp, #8]	@ tmp134, selection
 275 0248 000053E3 		cmp	r3, #0	@ tmp134,
 276 024c 0200001A 		bne	.L22	@,
 122:src/bsp.c     ****                  return (clk_freq / 4);
 277              		.loc 1 122 0
ARM GAS  /tmp/ccyhJT25.s 			page 8


 278 0250 0C309DE5 		ldr	r3, [sp, #12]	@ tmp135, clk_freq
 279 0254 2331A0E1 		mov	r3, r3, lsr #2	@ D.4714, tmp135,
 280 0258 0E0000EA 		b	.L19	@
 281              	.L22:
 123:src/bsp.c     ****              } else if (selection == 1) {
 282              		.loc 1 123 0
 283 025c 08309DE5 		ldr	r3, [sp, #8]	@ tmp136, selection
 284 0260 010053E3 		cmp	r3, #1	@ tmp136,
 285 0264 0100001A 		bne	.L23	@,
 124:src/bsp.c     ****                  return (clk_freq);
 286              		.loc 1 124 0
 287 0268 0C309DE5 		ldr	r3, [sp, #12]	@ D.4714, clk_freq
 288 026c 090000EA 		b	.L19	@
 289              	.L23:
 125:src/bsp.c     ****              } else if (selection == 2) {
 290              		.loc 1 125 0
 291 0270 08309DE5 		ldr	r3, [sp, #8]	@ tmp137, selection
 292 0274 020053E3 		cmp	r3, #2	@ tmp137,
 293 0278 0200001A 		bne	.L24	@,
 126:src/bsp.c     ****                  return (clk_freq / 2);
 294              		.loc 1 126 0
 295 027c 0C309DE5 		ldr	r3, [sp, #12]	@ tmp138, clk_freq
 296 0280 A330A0E1 		mov	r3, r3, lsr #1	@ D.4714, tmp138,
 297 0284 030000EA 		b	.L19	@
 298              	.L24:
 127:src/bsp.c     ****              } else {
 128:src/bsp.c     ****                  return (clk_freq / 8);
 299              		.loc 1 128 0
 300 0288 0C309DE5 		ldr	r3, [sp, #12]	@ tmp139, clk_freq
 301 028c A331A0E1 		mov	r3, r3, lsr #3	@ D.4714, tmp139,
 302 0290 000000EA 		b	.L19	@
 303              	.L14:
 129:src/bsp.c     ****              }
 130:src/bsp.c     **** 
 131:src/bsp.c     ****         default:
 132:src/bsp.c     ****              return (0);
 304              		.loc 1 132 0
 305 0294 0030A0E3 		mov	r3, #0	@ D.4714,
 306              	.L19:
 133:src/bsp.c     ****     }
 134:src/bsp.c     **** }
 307              		.loc 1 134 0
 308 0298 0300A0E1 		mov	r0, r3	@, <retval>
 309 029c 14D08DE2 		add	sp, sp, #20	@,,
 310              		@ sp needed	@
 311 02a0 04E09DE4 		ldr	lr, [sp], #4	@,
 312 02a4 1EFF2FE1 		bx	lr	@
 313              	.L26:
 314              		.align	2
 315              	.L25:
 316 02a8 00C01FE0 		.word	-534790144
 317              		.cfi_endproc
 318              	.LFE1:
 319              		.size	BSP_CPU_PclkFreq, .-BSP_CPU_PclkFreq
 320              		.align	2
 321              		.global	BSP_IntDisAll
 322              		.type	BSP_IntDisAll, %function
ARM GAS  /tmp/ccyhJT25.s 			page 9


 323              	BSP_IntDisAll:
 324              	.LFB2:
 135:src/bsp.c     **** 
 136:src/bsp.c     **** 
 137:src/bsp.c     **** /*
 138:src/bsp.c     **** ***************************************************************************************************
 139:src/bsp.c     **** *                                           BSP_IntDisAll()
 140:src/bsp.c     **** *
 141:src/bsp.c     **** * Description : Disable ALL interrupts.
 142:src/bsp.c     **** *
 143:src/bsp.c     **** * Argument(s) : none.
 144:src/bsp.c     **** *
 145:src/bsp.c     **** * Return(s)   : none.
 146:src/bsp.c     **** ***************************************************************************************************
 147:src/bsp.c     **** */
 148:src/bsp.c     **** 
 149:src/bsp.c     **** void  BSP_IntDisAll (void)
 150:src/bsp.c     **** {
 325              		.loc 1 150 0
 326              		.cfi_startproc
 327              		@ Function supports interworking.
 328              		@ args = 0, pretend = 0, frame = 0
 329              		@ frame_needed = 0, uses_anonymous_args = 0
 330              		@ link register save eliminated.
 151:src/bsp.c     ****     WRITEREG32(VICINTENCLEAR, 0xFFFFFFFFL);                                /* Disable ALL interrupt
 331              		.loc 1 151 0
 332 02ac 08309FE5 		ldr	r3, .L28	@ D.4717,
 333 02b0 0020E0E3 		mvn	r2, #0	@ tmp111,
 334 02b4 002083E5 		str	r2, [r3]	@ tmp111, *_1
 152:src/bsp.c     **** }
 335              		.loc 1 152 0
 336 02b8 1EFF2FE1 		bx	lr	@
 337              	.L29:
 338              		.align	2
 339              	.L28:
 340 02bc 14F0FFFF 		.word	-4076
 341              		.cfi_endproc
 342              	.LFE2:
 343              		.size	BSP_IntDisAll, .-BSP_IntDisAll
 344              	.Letext0:
 345              		.file 2 "./inc/lpc2378.h"