ARM GAS  /tmp/ccQ9uJCa.s 			page 1


   1              		.cpu arm7tdmi
   2              		.fpu softvfp
   3              		.eabi_attribute 20, 1	@ Tag_ABI_FP_denormal
   4              		.eabi_attribute 21, 1	@ Tag_ABI_FP_exceptions
   5              		.eabi_attribute 23, 3	@ Tag_ABI_FP_number_model
   6              		.eabi_attribute 24, 1	@ Tag_ABI_align8_needed
   7              		.eabi_attribute 25, 1	@ Tag_ABI_align8_preserved
   8              		.eabi_attribute 26, 1	@ Tag_ABI_enum_size
   9              		.eabi_attribute 30, 6	@ Tag_ABI_optimization_goals
  10              		.eabi_attribute 34, 0	@ Tag_CPU_unaligned_access
  11              		.eabi_attribute 18, 4	@ Tag_ABI_PCS_wchar_t
  12              		.file	"critical_section.c"
  13              	@ GNU C (GNU Tools for ARM Embedded Processors) version 4.8.4 20140725 (release) [ARM/embedded-4_8-
  14              	@	compiled by GNU C version 4.7.4, GMP version 4.3.2, MPFR version 2.4.2, MPC version 0.8.1
  15              	@ GGC heuristics: --param ggc-min-expand=100 --param ggc-min-heapsize=131072
  16              	@ options passed:  -I . -I ./inc
  17              	@ -iprefix /opt/gcc-arm-none-eabi-4_8-2014q3/bin/../lib/gcc/arm-none-eabi/4.8.4/
  18              	@ -isysroot /opt/gcc-arm-none-eabi-4_8-2014q3/bin/../arm-none-eabi
  19              	@ -MD src/critical_section.d -MF .dep/critical_section.o.d -MP
  20              	@ -MQ src/critical_section.o -D__USES_INITFINI__ -D DEBUG=1
  21              	@ src/critical_section.c -mcpu=arm7tdmi -marm
  22              	@ -auxbase-strip src/critical_section.o -gdwarf-2 -O0 -Wall
  23              	@ -Wstrict-prototypes -fomit-frame-pointer -fverbose-asm
  24              	@ options enabled:  -faggressive-loop-optimizations -fauto-inc-dec
  25              	@ -fbranch-count-reg -fcommon -fdelete-null-pointer-checks -fdwarf2-cfi-asm
  26              	@ -fearly-inlining -feliminate-unused-debug-types -ffunction-cse -fgcse-lm
  27              	@ -fgnu-runtime -fgnu-unique -fident -finline-atomics -fira-hoist-pressure
  28              	@ -fira-share-save-slots -fira-share-spill-slots -fivopts
  29              	@ -fkeep-static-consts -fleading-underscore -fmath-errno
  30              	@ -fmerge-debug-strings -fmove-loop-invariants -fomit-frame-pointer
  31              	@ -fpeephole -fprefetch-loop-arrays -freg-struct-return
  32              	@ -fsched-critical-path-heuristic -fsched-dep-count-heuristic
  33              	@ -fsched-group-heuristic -fsched-interblock -fsched-last-insn-heuristic
  34              	@ -fsched-rank-heuristic -fsched-spec -fsched-spec-insn-heuristic
  35              	@ -fsched-stalled-insns-dep -fshow-column -fsigned-zeros
  36              	@ -fsplit-ivs-in-unroller -fstrict-volatile-bitfields -fsync-libcalls
  37              	@ -ftrapping-math -ftree-coalesce-vars -ftree-cselim -ftree-forwprop
  38              	@ -ftree-loop-if-convert -ftree-loop-im -ftree-loop-ivcanon
  39              	@ -ftree-loop-optimize -ftree-parallelize-loops= -ftree-phiprop -ftree-pta
  40              	@ -ftree-reassoc -ftree-scev-cprop -ftree-slp-vectorize
  41              	@ -ftree-vect-loop-version -funit-at-a-time -fverbose-asm
  42              	@ -fzero-initialized-in-bss -marm -mlittle-endian
  43              	@ -mpic-data-is-text-relative -msched-prolog -mthumb-interwork
  44              	@ -mvectorize-with-neon-quad
  45              	
  46              		.text
  47              	.Ltext0:
  48              		.cfi_sections	.debug_frame
  49              		.global	SUCCESS
  50              		.section	.rodata
  51              		.align	2
  52              		.type	SUCCESS, %object
  53              		.size	SUCCESS, 4
  54              	SUCCESS:
  55 0000 00000000 		.space	4
  56              		.global	BUSY
  57              		.align	2
ARM GAS  /tmp/ccQ9uJCa.s 			page 2


  58              		.type	BUSY, %object
  59              		.size	BUSY, 4
  60              	BUSY:
  61 0004 01000000 		.word	1
  62              		.global	RESOURCE
  63              		.align	2
  64              		.type	RESOURCE, %object
  65              		.size	RESOURCE, 4
  66              	RESOURCE:
  67 0008 02000000 		.word	2
  68              		.text
  69              		.align	2
  70              		.global	CreateCriticalSection
  71              		.type	CreateCriticalSection, %function
  72              	CreateCriticalSection:
  73              	.LFB0:
  74              		.file 1 "src/critical_section.c"
   1:src/critical_section.c **** #include "critical_section.h"
   2:src/critical_section.c **** 
   3:src/critical_section.c **** const int SUCCESS   =   0;
   4:src/critical_section.c **** const int BUSY      =   1;
   5:src/critical_section.c **** const int RESOURCE  =   2;
   6:src/critical_section.c **** 
   7:src/critical_section.c **** int CreateCriticalSection(CriticalSection_t cs)
   8:src/critical_section.c **** {
  75              		.loc 1 8 0
  76              		.cfi_startproc
  77              		@ Function supports interworking.
  78              		@ args = 0, pretend = 0, frame = 16
  79              		@ frame_needed = 0, uses_anonymous_args = 0
  80              		@ link register save eliminated.
  81 0000 10D04DE2 		sub	sp, sp, #16	@,,
  82              	.LCFI0:
  83              		.cfi_def_cfa_offset 16
  84 0004 04008DE5 		str	r0, [sp, #4]	@ cs, cs
   9:src/critical_section.c ****     cs = SUCCESS;
  85              		.loc 1 9 0
  86 0008 0030A0E3 		mov	r3, #0	@ tmp112,
  87 000c 0C308DE5 		str	r3, [sp, #12]	@ tmp112, cs
  10:src/critical_section.c ****     return 0;
  88              		.loc 1 10 0
  89 0010 0030A0E3 		mov	r3, #0	@ D.4110,
  11:src/critical_section.c **** }
  90              		.loc 1 11 0
  91 0014 0300A0E1 		mov	r0, r3	@, <retval>
  92 0018 10D08DE2 		add	sp, sp, #16	@,,
  93              		@ sp needed	@
  94 001c 1EFF2FE1 		bx	lr	@
  95              		.cfi_endproc
  96              	.LFE0:
  97              		.size	CreateCriticalSection, .-CreateCriticalSection
  98              		.align	2
  99              		.global	DeleteCriticalSection
 100              		.type	DeleteCriticalSection, %function
 101              	DeleteCriticalSection:
 102              	.LFB1:
  12:src/critical_section.c **** 
ARM GAS  /tmp/ccQ9uJCa.s 			page 3


  13:src/critical_section.c **** int DeleteCriticalSection(CriticalSection_t cs)
  14:src/critical_section.c **** {
 103              		.loc 1 14 0
 104              		.cfi_startproc
 105              		@ Function supports interworking.
 106              		@ args = 0, pretend = 0, frame = 8
 107              		@ frame_needed = 0, uses_anonymous_args = 0
 108              		@ link register save eliminated.
 109 0020 08D04DE2 		sub	sp, sp, #8	@,,
 110              	.LCFI1:
 111              		.cfi_def_cfa_offset 8
 112 0024 04008DE5 		str	r0, [sp, #4]	@ cs, cs
  15:src/critical_section.c ****     return 0;
 113              		.loc 1 15 0
 114 0028 0030A0E3 		mov	r3, #0	@ D.4111,
  16:src/critical_section.c **** }
 115              		.loc 1 16 0
 116 002c 0300A0E1 		mov	r0, r3	@, <retval>
 117 0030 08D08DE2 		add	sp, sp, #8	@,,
 118              		@ sp needed	@
 119 0034 1EFF2FE1 		bx	lr	@
 120              		.cfi_endproc
 121              	.LFE1:
 122              		.size	DeleteCriticalSection, .-DeleteCriticalSection
 123              		.align	2
 124              		.global	EnterCriticalSection
 125              		.type	EnterCriticalSection, %function
 126              	EnterCriticalSection:
 127              	.LFB2:
  17:src/critical_section.c **** 
  18:src/critical_section.c **** int EnterCriticalSection(CriticalSection_t cs)
  19:src/critical_section.c **** {
 128              		.loc 1 19 0
 129              		.cfi_startproc
 130              		@ Function supports interworking.
 131              		@ args = 0, pretend = 0, frame = 8
 132              		@ frame_needed = 0, uses_anonymous_args = 0
 133              		@ link register save eliminated.
 134 0038 08D04DE2 		sub	sp, sp, #8	@,,
 135              	.LCFI2:
 136              		.cfi_def_cfa_offset 8
 137 003c 04008DE5 		str	r0, [sp, #4]	@ cs, cs
  20:src/critical_section.c ****     return 0;
 138              		.loc 1 20 0
 139 0040 0030A0E3 		mov	r3, #0	@ D.4112,
  21:src/critical_section.c **** }
 140              		.loc 1 21 0
 141 0044 0300A0E1 		mov	r0, r3	@, <retval>
 142 0048 08D08DE2 		add	sp, sp, #8	@,,
 143              		@ sp needed	@
 144 004c 1EFF2FE1 		bx	lr	@
 145              		.cfi_endproc
 146              	.LFE2:
 147              		.size	EnterCriticalSection, .-EnterCriticalSection
 148              		.align	2
 149              		.global	LeaveCriticalSection
 150              		.type	LeaveCriticalSection, %function
ARM GAS  /tmp/ccQ9uJCa.s 			page 4


 151              	LeaveCriticalSection:
 152              	.LFB3:
  22:src/critical_section.c **** 
  23:src/critical_section.c **** int LeaveCriticalSection(CriticalSection_t cs)
  24:src/critical_section.c **** {
 153              		.loc 1 24 0
 154              		.cfi_startproc
 155              		@ Function supports interworking.
 156              		@ args = 0, pretend = 0, frame = 8
 157              		@ frame_needed = 0, uses_anonymous_args = 0
 158              		@ link register save eliminated.
 159 0050 08D04DE2 		sub	sp, sp, #8	@,,
 160              	.LCFI3:
 161              		.cfi_def_cfa_offset 8
 162 0054 04008DE5 		str	r0, [sp, #4]	@ cs, cs
  25:src/critical_section.c ****     return 0;
 163              		.loc 1 25 0
 164 0058 0030A0E3 		mov	r3, #0	@ D.4113,
  26:src/critical_section.c **** }
 165              		.loc 1 26 0
 166 005c 0300A0E1 		mov	r0, r3	@, <retval>
 167 0060 08D08DE2 		add	sp, sp, #8	@,,
 168              		@ sp needed	@
 169 0064 1EFF2FE1 		bx	lr	@
 170              		.cfi_endproc
 171              	.LFE3:
 172              		.size	LeaveCriticalSection, .-LeaveCriticalSection
 173              		.align	2
 174              		.global	QueryEnterCriticalSection
 175              		.type	QueryEnterCriticalSection, %function
 176              	QueryEnterCriticalSection:
 177              	.LFB4:
  27:src/critical_section.c **** 
  28:src/critical_section.c **** int QueryEnterCriticalSection(CriticalSection_t cs)
  29:src/critical_section.c **** {
 178              		.loc 1 29 0
 179              		.cfi_startproc
 180              		@ Function supports interworking.
 181              		@ args = 0, pretend = 0, frame = 8
 182              		@ frame_needed = 0, uses_anonymous_args = 0
 183              		@ link register save eliminated.
 184 0068 08D04DE2 		sub	sp, sp, #8	@,,
 185              	.LCFI4:
 186              		.cfi_def_cfa_offset 8
 187 006c 04008DE5 		str	r0, [sp, #4]	@ cs, cs
  30:src/critical_section.c ****     return 0;
 188              		.loc 1 30 0
 189 0070 0030A0E3 		mov	r3, #0	@ D.4114,
  31:src/critical_section.c **** }
 190              		.loc 1 31 0
 191 0074 0300A0E1 		mov	r0, r3	@, <retval>
 192 0078 08D08DE2 		add	sp, sp, #8	@,,
 193              		@ sp needed	@
 194 007c 1EFF2FE1 		bx	lr	@
 195              		.cfi_endproc
 196              	.LFE4:
 197              		.size	QueryEnterCriticalSection, .-QueryEnterCriticalSection
ARM GAS  /tmp/ccQ9uJCa.s 			page 5


 198              	.Letext0:
 199              		.file 2 "./inc/critical_section.h"