ARM GAS  /tmp/ccjXaC2Q.s 			page 1


   1              		.cpu arm7tdmi
   2              		.fpu softvfp
   3              		.eabi_attribute 20, 1	@ Tag_ABI_FP_denormal
   4              		.eabi_attribute 21, 1	@ Tag_ABI_FP_exceptions
   5              		.eabi_attribute 23, 3	@ Tag_ABI_FP_number_model
   6              		.eabi_attribute 24, 1	@ Tag_ABI_align8_needed
   7              		.eabi_attribute 25, 1	@ Tag_ABI_align8_preserved
   8              		.eabi_attribute 26, 1	@ Tag_ABI_enum_size
   9              		.eabi_attribute 30, 6	@ Tag_ABI_optimization_goals
  10              		.eabi_attribute 34, 0	@ Tag_CPU_unaligned_access
  11              		.eabi_attribute 18, 4	@ Tag_ABI_PCS_wchar_t
  12              		.file	"init.c"
  13              	@ GNU C (GNU Tools for ARM Embedded Processors) version 4.8.4 20140725 (release) [ARM/embedded-4_8-
  14              	@	compiled by GNU C version 4.7.4, GMP version 4.3.2, MPFR version 2.4.2, MPC version 0.8.1
  15              	@ GGC heuristics: --param ggc-min-expand=100 --param ggc-min-heapsize=131072
  16              	@ options passed:  -I . -I ./inc
  17              	@ -iprefix /opt/gcc-arm-none-eabi-4_8-2014q3/bin/../lib/gcc/arm-none-eabi/4.8.4/
  18              	@ -isysroot /opt/gcc-arm-none-eabi-4_8-2014q3/bin/../arm-none-eabi
  19              	@ -MD src/init.d -MF .dep/init.o.d -MP -MQ src/init.o -D__USES_INITFINI__
  20              	@ -D DEBUG=1 src/init.c -mcpu=arm7tdmi -marm -auxbase-strip src/init.o
  21              	@ -gdwarf-2 -O0 -Wall -Wstrict-prototypes -fomit-frame-pointer
  22              	@ -fverbose-asm
  23              	@ options enabled:  -faggressive-loop-optimizations -fauto-inc-dec
  24              	@ -fbranch-count-reg -fcommon -fdelete-null-pointer-checks -fdwarf2-cfi-asm
  25              	@ -fearly-inlining -feliminate-unused-debug-types -ffunction-cse -fgcse-lm
  26              	@ -fgnu-runtime -fgnu-unique -fident -finline-atomics -fira-hoist-pressure
  27              	@ -fira-share-save-slots -fira-share-spill-slots -fivopts
  28              	@ -fkeep-static-consts -fleading-underscore -fmath-errno
  29              	@ -fmerge-debug-strings -fmove-loop-invariants -fomit-frame-pointer
  30              	@ -fpeephole -fprefetch-loop-arrays -freg-struct-return
  31              	@ -fsched-critical-path-heuristic -fsched-dep-count-heuristic
  32              	@ -fsched-group-heuristic -fsched-interblock -fsched-last-insn-heuristic
  33              	@ -fsched-rank-heuristic -fsched-spec -fsched-spec-insn-heuristic
  34              	@ -fsched-stalled-insns-dep -fshow-column -fsigned-zeros
  35              	@ -fsplit-ivs-in-unroller -fstrict-volatile-bitfields -fsync-libcalls
  36              	@ -ftrapping-math -ftree-coalesce-vars -ftree-cselim -ftree-forwprop
  37              	@ -ftree-loop-if-convert -ftree-loop-im -ftree-loop-ivcanon
  38              	@ -ftree-loop-optimize -ftree-parallelize-loops= -ftree-phiprop -ftree-pta
  39              	@ -ftree-reassoc -ftree-scev-cprop -ftree-slp-vectorize
  40              	@ -ftree-vect-loop-version -funit-at-a-time -fverbose-asm
  41              	@ -fzero-initialized-in-bss -marm -mlittle-endian
  42              	@ -mpic-data-is-text-relative -msched-prolog -mthumb-interwork
  43              	@ -mvectorize-with-neon-quad
  44              	
  45              		.text
  46              	.Ltext0:
  47              		.cfi_sections	.debug_frame
  48              		.global	mcuPins
  49              		.data
  50              		.align	2
  51              		.type	mcuPins, %object
  52              		.size	mcuPins, 396
  53              	mcuPins:
  54              	@ pinSelect:
  55 0000 00C002E0 		.word	-536690688
  56              	@ pin:
  57              	@ position:
ARM GAS  /tmp/ccjXaC2Q.s 			page 2


  58 0004 00       		.byte	0
  59              	@ multiplex:
  60 0005 00       		.byte	0
  61              	@ position:
  62 0006 01       		.byte	1
  63              	@ multiplex:
  64 0007 00       		.byte	0
  65              	@ position:
  66 0008 02       		.byte	2
  67              	@ multiplex:
  68 0009 01       		.byte	1
  69              	@ position:
  70 000a 03       		.byte	3
  71              	@ multiplex:
  72 000b 01       		.byte	1
  73              	@ position:
  74 000c 04       		.byte	4
  75              	@ multiplex:
  76 000d 00       		.byte	0
  77              	@ position:
  78 000e 05       		.byte	5
  79              	@ multiplex:
  80 000f 00       		.byte	0
  81              	@ position:
  82 0010 06       		.byte	6
  83              	@ multiplex:
  84 0011 00       		.byte	0
  85              	@ position:
  86 0012 07       		.byte	7
  87              	@ multiplex:
  88 0013 00       		.byte	0
  89              	@ position:
  90 0014 08       		.byte	8
  91              	@ multiplex:
  92 0015 00       		.byte	0
  93              	@ position:
  94 0016 09       		.byte	9
  95              	@ multiplex:
  96 0017 00       		.byte	0
  97              	@ position:
  98 0018 0A       		.byte	10
  99              	@ multiplex:
 100 0019 00       		.byte	0
 101              	@ position:
 102 001a 0B       		.byte	11
 103              	@ multiplex:
 104 001b 00       		.byte	0
 105              	@ position:
 106 001c 0C       		.byte	12
 107              	@ multiplex:
 108 001d 00       		.byte	0
 109              	@ position:
 110 001e 0D       		.byte	13
 111              	@ multiplex:
 112 001f 00       		.byte	0
 113              	@ position:
 114 0020 0E       		.byte	14
ARM GAS  /tmp/ccjXaC2Q.s 			page 3


 115              	@ multiplex:
 116 0021 00       		.byte	0
 117              	@ position:
 118 0022 0F       		.byte	15
 119              	@ multiplex:
 120 0023 00       		.byte	0
 121              	@ pinSelect:
 122 0024 04C002E0 		.word	-536690684
 123              	@ pin:
 124              	@ position:
 125 0028 00       		.byte	0
 126              	@ multiplex:
 127 0029 00       		.byte	0
 128              	@ position:
 129 002a 01       		.byte	1
 130              	@ multiplex:
 131 002b 00       		.byte	0
 132              	@ position:
 133 002c 02       		.byte	2
 134              	@ multiplex:
 135 002d 00       		.byte	0
 136              	@ position:
 137 002e 03       		.byte	3
 138              	@ multiplex:
 139 002f 00       		.byte	0
 140              	@ position:
 141 0030 04       		.byte	4
 142              	@ multiplex:
 143 0031 00       		.byte	0
 144              	@ position:
 145 0032 05       		.byte	5
 146              	@ multiplex:
 147 0033 00       		.byte	0
 148              	@ position:
 149 0034 06       		.byte	6
 150              	@ multiplex:
 151 0035 00       		.byte	0
 152              	@ position:
 153 0036 07       		.byte	7
 154              	@ multiplex:
 155 0037 00       		.byte	0
 156              	@ position:
 157 0038 08       		.byte	8
 158              	@ multiplex:
 159 0039 00       		.byte	0
 160              	@ position:
 161 003a 09       		.byte	9
 162              	@ multiplex:
 163 003b 00       		.byte	0
 164              	@ position:
 165 003c 0A       		.byte	10
 166              	@ multiplex:
 167 003d 00       		.byte	0
 168              	@ position:
 169 003e 0B       		.byte	11
 170              	@ multiplex:
 171 003f 00       		.byte	0
ARM GAS  /tmp/ccjXaC2Q.s 			page 4


 172              	@ position:
 173 0040 0C       		.byte	12
 174              	@ multiplex:
 175 0041 00       		.byte	0
 176              	@ position:
 177 0042 0D       		.byte	13
 178              	@ multiplex:
 179 0043 00       		.byte	0
 180              	@ position:
 181 0044 0E       		.byte	14
 182              	@ multiplex:
 183 0045 00       		.byte	0
 184              	@ position:
 185 0046 0F       		.byte	15
 186              	@ multiplex:
 187 0047 00       		.byte	0
 188              	@ pinSelect:
 189 0048 08C002E0 		.word	-536690680
 190              	@ pin:
 191              	@ position:
 192 004c 00       		.byte	0
 193              	@ multiplex:
 194 004d 00       		.byte	0
 195              	@ position:
 196 004e 01       		.byte	1
 197              	@ multiplex:
 198 004f 00       		.byte	0
 199              	@ position:
 200 0050 02       		.byte	2
 201              	@ multiplex:
 202 0051 00       		.byte	0
 203              	@ position:
 204 0052 03       		.byte	3
 205              	@ multiplex:
 206 0053 00       		.byte	0
 207              	@ position:
 208 0054 04       		.byte	4
 209              	@ multiplex:
 210 0055 00       		.byte	0
 211              	@ position:
 212 0056 05       		.byte	5
 213              	@ multiplex:
 214 0057 00       		.byte	0
 215              	@ position:
 216 0058 06       		.byte	6
 217              	@ multiplex:
 218 0059 00       		.byte	0
 219              	@ position:
 220 005a 07       		.byte	7
 221              	@ multiplex:
 222 005b 00       		.byte	0
 223              	@ position:
 224 005c 08       		.byte	8
 225              	@ multiplex:
 226 005d 00       		.byte	0
 227              	@ position:
 228 005e 09       		.byte	9
ARM GAS  /tmp/ccjXaC2Q.s 			page 5


 229              	@ multiplex:
 230 005f 00       		.byte	0
 231              	@ position:
 232 0060 0A       		.byte	10
 233              	@ multiplex:
 234 0061 00       		.byte	0
 235              	@ position:
 236 0062 0B       		.byte	11
 237              	@ multiplex:
 238 0063 00       		.byte	0
 239              	@ position:
 240 0064 0C       		.byte	12
 241              	@ multiplex:
 242 0065 00       		.byte	0
 243              	@ position:
 244 0066 0D       		.byte	13
 245              	@ multiplex:
 246 0067 00       		.byte	0
 247              	@ position:
 248 0068 0E       		.byte	14
 249              	@ multiplex:
 250 0069 00       		.byte	0
 251              	@ position:
 252 006a 0F       		.byte	15
 253              	@ multiplex:
 254 006b 00       		.byte	0
 255              	@ pinSelect:
 256 006c 0CC002E0 		.word	-536690676
 257              	@ pin:
 258              	@ position:
 259 0070 00       		.byte	0
 260              	@ multiplex:
 261 0071 00       		.byte	0
 262              	@ position:
 263 0072 01       		.byte	1
 264              	@ multiplex:
 265 0073 00       		.byte	0
 266              	@ position:
 267 0074 02       		.byte	2
 268              	@ multiplex:
 269 0075 00       		.byte	0
 270              	@ position:
 271 0076 03       		.byte	3
 272              	@ multiplex:
 273 0077 00       		.byte	0
 274              	@ position:
 275 0078 04       		.byte	4
 276              	@ multiplex:
 277 0079 00       		.byte	0
 278              	@ position:
 279 007a 05       		.byte	5
 280              	@ multiplex:
 281 007b 00       		.byte	0
 282              	@ position:
 283 007c 06       		.byte	6
 284              	@ multiplex:
 285 007d 00       		.byte	0
ARM GAS  /tmp/ccjXaC2Q.s 			page 6


 286              	@ position:
 287 007e 07       		.byte	7
 288              	@ multiplex:
 289 007f 00       		.byte	0
 290              	@ position:
 291 0080 08       		.byte	8
 292              	@ multiplex:
 293 0081 00       		.byte	0
 294              	@ position:
 295 0082 09       		.byte	9
 296              	@ multiplex:
 297 0083 00       		.byte	0
 298              	@ position:
 299 0084 0A       		.byte	10
 300              	@ multiplex:
 301 0085 00       		.byte	0
 302              	@ position:
 303 0086 0B       		.byte	11
 304              	@ multiplex:
 305 0087 00       		.byte	0
 306              	@ position:
 307 0088 0C       		.byte	12
 308              	@ multiplex:
 309 0089 00       		.byte	0
 310              	@ position:
 311 008a 0D       		.byte	13
 312              	@ multiplex:
 313 008b 00       		.byte	0
 314              	@ position:
 315 008c 0E       		.byte	14
 316              	@ multiplex:
 317 008d 00       		.byte	0
 318              	@ position:
 319 008e 0F       		.byte	15
 320              	@ multiplex:
 321 008f 00       		.byte	0
 322              	@ pinSelect:
 323 0090 10C002E0 		.word	-536690672
 324              	@ pin:
 325              	@ position:
 326 0094 00       		.byte	0
 327              	@ multiplex:
 328 0095 00       		.byte	0
 329              	@ position:
 330 0096 01       		.byte	1
 331              	@ multiplex:
 332 0097 00       		.byte	0
 333              	@ position:
 334 0098 02       		.byte	2
 335              	@ multiplex:
 336 0099 00       		.byte	0
 337              	@ position:
 338 009a 03       		.byte	3
 339              	@ multiplex:
 340 009b 00       		.byte	0
 341              	@ position:
 342 009c 04       		.byte	4
ARM GAS  /tmp/ccjXaC2Q.s 			page 7


 343              	@ multiplex:
 344 009d 00       		.byte	0
 345              	@ position:
 346 009e 05       		.byte	5
 347              	@ multiplex:
 348 009f 00       		.byte	0
 349              	@ position:
 350 00a0 06       		.byte	6
 351              	@ multiplex:
 352 00a1 00       		.byte	0
 353              	@ position:
 354 00a2 07       		.byte	7
 355              	@ multiplex:
 356 00a3 00       		.byte	0
 357              	@ position:
 358 00a4 08       		.byte	8
 359              	@ multiplex:
 360 00a5 00       		.byte	0
 361              	@ position:
 362 00a6 09       		.byte	9
 363              	@ multiplex:
 364 00a7 00       		.byte	0
 365              	@ position:
 366 00a8 0A       		.byte	10
 367              	@ multiplex:
 368 00a9 00       		.byte	0
 369              	@ position:
 370 00aa 0B       		.byte	11
 371              	@ multiplex:
 372 00ab 00       		.byte	0
 373              	@ position:
 374 00ac 0C       		.byte	12
 375              	@ multiplex:
 376 00ad 00       		.byte	0
 377              	@ position:
 378 00ae 0D       		.byte	13
 379              	@ multiplex:
 380 00af 00       		.byte	0
 381              	@ position:
 382 00b0 0E       		.byte	14
 383              	@ multiplex:
 384 00b1 00       		.byte	0
 385              	@ position:
 386 00b2 0F       		.byte	15
 387              	@ multiplex:
 388 00b3 00       		.byte	0
 389              	@ pinSelect:
 390 00b4 14C002E0 		.word	-536690668
 391              	@ pin:
 392              	@ position:
 393 00b8 00       		.byte	0
 394              	@ multiplex:
 395 00b9 00       		.byte	0
 396              	@ position:
 397 00ba 01       		.byte	1
 398              	@ multiplex:
 399 00bb 00       		.byte	0
ARM GAS  /tmp/ccjXaC2Q.s 			page 8


 400              	@ position:
 401 00bc 02       		.byte	2
 402              	@ multiplex:
 403 00bd 00       		.byte	0
 404              	@ position:
 405 00be 03       		.byte	3
 406              	@ multiplex:
 407 00bf 00       		.byte	0
 408              	@ position:
 409 00c0 04       		.byte	4
 410              	@ multiplex:
 411 00c1 00       		.byte	0
 412              	@ position:
 413 00c2 05       		.byte	5
 414              	@ multiplex:
 415 00c3 00       		.byte	0
 416              	@ position:
 417 00c4 06       		.byte	6
 418              	@ multiplex:
 419 00c5 00       		.byte	0
 420              	@ position:
 421 00c6 07       		.byte	7
 422              	@ multiplex:
 423 00c7 00       		.byte	0
 424              	@ position:
 425 00c8 08       		.byte	8
 426              	@ multiplex:
 427 00c9 00       		.byte	0
 428              	@ position:
 429 00ca 09       		.byte	9
 430              	@ multiplex:
 431 00cb 00       		.byte	0
 432              	@ position:
 433 00cc 0A       		.byte	10
 434              	@ multiplex:
 435 00cd 00       		.byte	0
 436              	@ position:
 437 00ce 0B       		.byte	11
 438              	@ multiplex:
 439 00cf 00       		.byte	0
 440              	@ position:
 441 00d0 0C       		.byte	12
 442              	@ multiplex:
 443 00d1 00       		.byte	0
 444              	@ position:
 445 00d2 0D       		.byte	13
 446              	@ multiplex:
 447 00d3 00       		.byte	0
 448              	@ position:
 449 00d4 0E       		.byte	14
 450              	@ multiplex:
 451 00d5 00       		.byte	0
 452              	@ position:
 453 00d6 0F       		.byte	15
 454              	@ multiplex:
 455 00d7 00       		.byte	0
 456              	@ pinSelect:
ARM GAS  /tmp/ccjXaC2Q.s 			page 9


 457 00d8 18C002E0 		.word	-536690664
 458              	@ pin:
 459              	@ position:
 460 00dc 00       		.byte	0
 461              	@ multiplex:
 462 00dd 00       		.byte	0
 463              	@ position:
 464 00de 01       		.byte	1
 465              	@ multiplex:
 466 00df 00       		.byte	0
 467              	@ position:
 468 00e0 02       		.byte	2
 469              	@ multiplex:
 470 00e1 00       		.byte	0
 471              	@ position:
 472 00e2 03       		.byte	3
 473              	@ multiplex:
 474 00e3 00       		.byte	0
 475              	@ position:
 476 00e4 04       		.byte	4
 477              	@ multiplex:
 478 00e5 00       		.byte	0
 479              	@ position:
 480 00e6 05       		.byte	5
 481              	@ multiplex:
 482 00e7 00       		.byte	0
 483              	@ position:
 484 00e8 06       		.byte	6
 485              	@ multiplex:
 486 00e9 00       		.byte	0
 487              	@ position:
 488 00ea 07       		.byte	7
 489              	@ multiplex:
 490 00eb 00       		.byte	0
 491              	@ position:
 492 00ec 08       		.byte	8
 493              	@ multiplex:
 494 00ed 00       		.byte	0
 495              	@ position:
 496 00ee 09       		.byte	9
 497              	@ multiplex:
 498 00ef 00       		.byte	0
 499              	@ position:
 500 00f0 0A       		.byte	10
 501              	@ multiplex:
 502 00f1 00       		.byte	0
 503              	@ position:
 504 00f2 0B       		.byte	11
 505              	@ multiplex:
 506 00f3 00       		.byte	0
 507              	@ position:
 508 00f4 0C       		.byte	12
 509              	@ multiplex:
 510 00f5 00       		.byte	0
 511              	@ position:
 512 00f6 0D       		.byte	13
 513              	@ multiplex:
ARM GAS  /tmp/ccjXaC2Q.s 			page 10


 514 00f7 00       		.byte	0
 515              	@ position:
 516 00f8 0E       		.byte	14
 517              	@ multiplex:
 518 00f9 00       		.byte	0
 519              	@ position:
 520 00fa 0F       		.byte	15
 521              	@ multiplex:
 522 00fb 00       		.byte	0
 523              	@ pinSelect:
 524 00fc 1CC002E0 		.word	-536690660
 525              	@ pin:
 526              	@ position:
 527 0100 00       		.byte	0
 528              	@ multiplex:
 529 0101 00       		.byte	0
 530              	@ position:
 531 0102 01       		.byte	1
 532              	@ multiplex:
 533 0103 00       		.byte	0
 534              	@ position:
 535 0104 02       		.byte	2
 536              	@ multiplex:
 537 0105 00       		.byte	0
 538              	@ position:
 539 0106 03       		.byte	3
 540              	@ multiplex:
 541 0107 00       		.byte	0
 542              	@ position:
 543 0108 04       		.byte	4
 544              	@ multiplex:
 545 0109 00       		.byte	0
 546              	@ position:
 547 010a 05       		.byte	5
 548              	@ multiplex:
 549 010b 00       		.byte	0
 550              	@ position:
 551 010c 06       		.byte	6
 552              	@ multiplex:
 553 010d 00       		.byte	0
 554              	@ position:
 555 010e 07       		.byte	7
 556              	@ multiplex:
 557 010f 00       		.byte	0
 558              	@ position:
 559 0110 08       		.byte	8
 560              	@ multiplex:
 561 0111 00       		.byte	0
 562              	@ position:
 563 0112 09       		.byte	9
 564              	@ multiplex:
 565 0113 00       		.byte	0
 566              	@ position:
 567 0114 0A       		.byte	10
 568              	@ multiplex:
 569 0115 00       		.byte	0
 570              	@ position:
ARM GAS  /tmp/ccjXaC2Q.s 			page 11


 571 0116 0B       		.byte	11
 572              	@ multiplex:
 573 0117 00       		.byte	0
 574              	@ position:
 575 0118 0C       		.byte	12
 576              	@ multiplex:
 577 0119 00       		.byte	0
 578              	@ position:
 579 011a 0D       		.byte	13
 580              	@ multiplex:
 581 011b 00       		.byte	0
 582              	@ position:
 583 011c 0E       		.byte	14
 584              	@ multiplex:
 585 011d 00       		.byte	0
 586              	@ position:
 587 011e 0F       		.byte	15
 588              	@ multiplex:
 589 011f 00       		.byte	0
 590              	@ pinSelect:
 591 0120 20C002E0 		.word	-536690656
 592              	@ pin:
 593              	@ position:
 594 0124 00       		.byte	0
 595              	@ multiplex:
 596 0125 00       		.byte	0
 597              	@ position:
 598 0126 01       		.byte	1
 599              	@ multiplex:
 600 0127 00       		.byte	0
 601              	@ position:
 602 0128 02       		.byte	2
 603              	@ multiplex:
 604 0129 00       		.byte	0
 605              	@ position:
 606 012a 03       		.byte	3
 607              	@ multiplex:
 608 012b 00       		.byte	0
 609              	@ position:
 610 012c 04       		.byte	4
 611              	@ multiplex:
 612 012d 00       		.byte	0
 613              	@ position:
 614 012e 05       		.byte	5
 615              	@ multiplex:
 616 012f 00       		.byte	0
 617              	@ position:
 618 0130 06       		.byte	6
 619              	@ multiplex:
 620 0131 00       		.byte	0
 621              	@ position:
 622 0132 07       		.byte	7
 623              	@ multiplex:
 624 0133 00       		.byte	0
 625              	@ position:
 626 0134 08       		.byte	8
 627              	@ multiplex:
ARM GAS  /tmp/ccjXaC2Q.s 			page 12


 628 0135 00       		.byte	0
 629              	@ position:
 630 0136 09       		.byte	9
 631              	@ multiplex:
 632 0137 00       		.byte	0
 633              	@ position:
 634 0138 0A       		.byte	10
 635              	@ multiplex:
 636 0139 00       		.byte	0
 637              	@ position:
 638 013a 0B       		.byte	11
 639              	@ multiplex:
 640 013b 00       		.byte	0
 641              	@ position:
 642 013c 0C       		.byte	12
 643              	@ multiplex:
 644 013d 00       		.byte	0
 645              	@ position:
 646 013e 0D       		.byte	13
 647              	@ multiplex:
 648 013f 00       		.byte	0
 649              	@ position:
 650 0140 0E       		.byte	14
 651              	@ multiplex:
 652 0141 00       		.byte	0
 653              	@ position:
 654 0142 0F       		.byte	15
 655              	@ multiplex:
 656 0143 00       		.byte	0
 657              	@ pinSelect:
 658 0144 24C002E0 		.word	-536690652
 659              	@ pin:
 660              	@ position:
 661 0148 00       		.byte	0
 662              	@ multiplex:
 663 0149 00       		.byte	0
 664              	@ position:
 665 014a 01       		.byte	1
 666              	@ multiplex:
 667 014b 00       		.byte	0
 668              	@ position:
 669 014c 02       		.byte	2
 670              	@ multiplex:
 671 014d 00       		.byte	0
 672              	@ position:
 673 014e 03       		.byte	3
 674              	@ multiplex:
 675 014f 00       		.byte	0
 676              	@ position:
 677 0150 04       		.byte	4
 678              	@ multiplex:
 679 0151 00       		.byte	0
 680              	@ position:
 681 0152 05       		.byte	5
 682              	@ multiplex:
 683 0153 00       		.byte	0
 684              	@ position:
ARM GAS  /tmp/ccjXaC2Q.s 			page 13


 685 0154 06       		.byte	6
 686              	@ multiplex:
 687 0155 00       		.byte	0
 688              	@ position:
 689 0156 07       		.byte	7
 690              	@ multiplex:
 691 0157 00       		.byte	0
 692              	@ position:
 693 0158 08       		.byte	8
 694              	@ multiplex:
 695 0159 00       		.byte	0
 696              	@ position:
 697 015a 09       		.byte	9
 698              	@ multiplex:
 699 015b 00       		.byte	0
 700              	@ position:
 701 015c 0A       		.byte	10
 702              	@ multiplex:
 703 015d 00       		.byte	0
 704              	@ position:
 705 015e 0B       		.byte	11
 706              	@ multiplex:
 707 015f 00       		.byte	0
 708              	@ position:
 709 0160 0C       		.byte	12
 710              	@ multiplex:
 711 0161 00       		.byte	0
 712              	@ position:
 713 0162 0D       		.byte	13
 714              	@ multiplex:
 715 0163 00       		.byte	0
 716              	@ position:
 717 0164 0E       		.byte	14
 718              	@ multiplex:
 719 0165 00       		.byte	0
 720              	@ position:
 721 0166 0F       		.byte	15
 722              	@ multiplex:
 723 0167 00       		.byte	0
 724              	@ pinSelect:
 725 0168 00000000 		.word	0
 726              	@ pin:
 727              	@ position:
 728 016c 00       		.byte	0
 729              	@ multiplex:
 730 016d 00       		.byte	0
 731              	@ position:
 732 016e 00       		.byte	0
 733              	@ multiplex:
 734 016f 00       		.byte	0
 735              	@ position:
 736 0170 00       		.byte	0
 737              	@ multiplex:
 738 0171 00       		.byte	0
 739              	@ position:
 740 0172 00       		.byte	0
 741              	@ multiplex:
ARM GAS  /tmp/ccjXaC2Q.s 			page 14


 742 0173 00       		.byte	0
 743              	@ position:
 744 0174 00       		.byte	0
 745              	@ multiplex:
 746 0175 00       		.byte	0
 747              	@ position:
 748 0176 00       		.byte	0
 749              	@ multiplex:
 750 0177 00       		.byte	0
 751              	@ position:
 752 0178 00       		.byte	0
 753              	@ multiplex:
 754 0179 00       		.byte	0
 755              	@ position:
 756 017a 00       		.byte	0
 757              	@ multiplex:
 758 017b 00       		.byte	0
 759              	@ position:
 760 017c 00       		.byte	0
 761              	@ multiplex:
 762 017d 00       		.byte	0
 763              	@ position:
 764 017e 00       		.byte	0
 765              	@ multiplex:
 766 017f 00       		.byte	0
 767              	@ position:
 768 0180 00       		.byte	0
 769              	@ multiplex:
 770 0181 00       		.byte	0
 771              	@ position:
 772 0182 00       		.byte	0
 773              	@ multiplex:
 774 0183 00       		.byte	0
 775              	@ position:
 776 0184 00       		.byte	0
 777              	@ multiplex:
 778 0185 00       		.byte	0
 779              	@ position:
 780 0186 00       		.byte	0
 781              	@ multiplex:
 782 0187 00       		.byte	0
 783              	@ position:
 784 0188 00       		.byte	0
 785              	@ multiplex:
 786 0189 00       		.byte	0
 787              	@ position:
 788 018a 00       		.byte	0
 789              	@ multiplex:
 790 018b 00       		.byte	0
 791              		.comm	VIC_SpuriousInt,4,4
 792              		.global	__aeabi_uidiv
 793              		.section	.rodata
 794              		.align	2
 795              	.LC0:
 796              	@ PLL_M_Mul:
 797 0000 0C00     		.short	12
 798              	@ PLL_N_Div:
ARM GAS  /tmp/ccjXaC2Q.s 			page 15


 799 0002 01       		.byte	1
 800              	@ PLL_Fcco:
 801 0003 00       		.space	1
 802 0004 00882A11 		.word	288000000
 803              	@ CCLK_Div:
 804 0008 06       		.byte	6
 805              	@ MAMMode:
 806 0009 01       		.byte	1
 807              	@ MAMTim:
 808 000a 00       		.byte	0
 809 000b 00       		.space	1
 810              		.text
 811              		.align	2
 812              		.global	initHardware
 813              		.type	initHardware, %function
 814              	initHardware:
 815              	.LFB0:
 816              		.file 1 "src/init.c"
   1:src/init.c    **** /*
   2:src/init.c    ****  * MODULE
   3:src/init.c    ****  *
   4:src/init.c    ****  *   init.c
   5:src/init.c    ****  *
   6:src/init.c    ****  * DESCRIPTION
   7:src/init.c    ****  *
   8:src/init.c    ****  *  Hardware Initialization Routines
   9:src/init.c    ****  *
  10:src/init.c    ****  * PLATFORM
  11:src/init.c    ****  *
  12:src/init.c    ****  *  Olimex LPC-2378-STK
  13:src/init.c    ****  *
  14:src/init.c    ****  * HISTORY
  15:src/init.c    ****  *
  16:src/init.c    ****  *   2007/10/31: Mitch Ishihara:
  17:src/init.c    ****  *     changed PINSEL10 setting to just write the value instead
  18:src/init.c    ****  *       of read-modify-write.
  19:src/init.c    ****  *   2007/10/01: Mitch Ishihara:
  20:src/init.c    ****  *     split init routines from main.c
  21:src/init.c    ****  *     changed MEMMAP to USERRAMMODE to run completely from RAM
  22:src/init.c    ****  *   2007/09/12: Andrew N. Sloss:
  23:src/init.c    ****  *     convert the main.c to use VOLATILExx(<address>) format
  24:src/init.c    ****  *     added 1st draft comments
  25:src/init.c    ****  *   2007/08/21: Andrew N. Sloss:
  26:src/init.c    ****  *     inspired from James Lynch's example code demo2106_blink_flash.
  27:src/init.c    ****  *
  28:src/init.c    ****  * NOTES
  29:src/init.c    ****  *
  30:src/init.c    ****  */
  31:src/init.c    **** 
  32:src/init.c    **** 
  33:src/init.c    **** //#include <cpu.h>
  34:src/init.c    **** #include "lpc2378.h"
  35:src/init.c    **** #include "pins.h"
  36:src/init.c    **** #include "uarts.h"
  37:src/init.c    **** #include "init.h"
  38:src/init.c    **** 
  39:src/init.c    **** 
ARM GAS  /tmp/ccjXaC2Q.s 			page 16


  40:src/init.c    **** /* local functions */
  41:src/init.c    **** static void initPLL(scb2300_t * pSCBParams);
  42:src/init.c    **** static void initPCLK(void);
  43:src/init.c    **** static void initGPIO(void);
  44:src/init.c    **** static void initMAM(INT32U cclk, INT8U mamcr, INT8U mamtim_override);
  45:src/init.c    **** 
  46:src/init.c    **** INT32U  VIC_SpuriousInt;
  47:src/init.c    **** 
  48:src/init.c    **** static void VIC_Init(void);
  49:src/init.c    **** static  void  VIC_Dummy        (void);                          /* Prototypes for dummy interrupt h
  50:src/init.c    **** static  void  VIC_DummyWDT     (void);
  51:src/init.c    **** static  void  VIC_DummySW      (void);
  52:src/init.c    **** static  void  VIC_DummyDEBUGRX (void);
  53:src/init.c    **** static  void  VIC_DummyDEBUGTX (void);
  54:src/init.c    **** static  void  VIC_DummyTIMER0  (void);
  55:src/init.c    **** static  void  VIC_DummyTIMER1  (void);
  56:src/init.c    **** static  void  VIC_DummyUART0   (void);
  57:src/init.c    **** static  void  VIC_DummyUART1   (void);
  58:src/init.c    **** static  void  VIC_DummyPWM01   (void);
  59:src/init.c    **** static  void  VIC_DummyI2C0    (void);
  60:src/init.c    **** static  void  VIC_DummySPI     (void);
  61:src/init.c    **** static  void  VIC_DummySSP1    (void);
  62:src/init.c    **** static  void  VIC_DummyPLL     (void);
  63:src/init.c    **** static  void  VIC_DummyRTC     (void);
  64:src/init.c    **** static  void  VIC_DummyEINT0   (void);
  65:src/init.c    **** static  void  VIC_DummyEINT1   (void);
  66:src/init.c    **** static  void  VIC_DummyEINT2   (void);
  67:src/init.c    **** static  void  VIC_DummyEINT3   (void);
  68:src/init.c    **** static  void  VIC_DummyAD0     (void);
  69:src/init.c    **** static  void  VIC_DummyI2C1    (void);
  70:src/init.c    **** static  void  VIC_DummyBOD     (void);
  71:src/init.c    **** static  void  VIC_DummyETHERNET(void);
  72:src/init.c    **** static  void  VIC_DummyUSB     (void);
  73:src/init.c    **** static  void  VIC_DummyCAN01   (void);
  74:src/init.c    **** static  void  VIC_DummyMMC     (void);
  75:src/init.c    **** static  void  VIC_DummyGP_DMA  (void);
  76:src/init.c    **** static  void  VIC_DummyTIMER2  (void);
  77:src/init.c    **** static  void  VIC_DummyTIMER3  (void);
  78:src/init.c    **** static  void  VIC_DummyUART2   (void);
  79:src/init.c    **** static  void  VIC_DummyUART3   (void);
  80:src/init.c    **** static  void  VIC_DummyI2C2    (void);
  81:src/init.c    **** static  void  VIC_DummyI2S     (void);
  82:src/init.c    **** 
  83:src/init.c    **** /*
  84:src/init.c    ****  * DESCRIPTION:
  85:src/init.c    ****  *
  86:src/init.c    ****  *  initializes all the hardware components.
  87:src/init.c    ****  */
  88:src/init.c    **** void initHardware(void)
  89:src/init.c    **** {
 817              		.loc 1 89 0
 818              		.cfi_startproc
 819              		@ Function supports interworking.
 820              		@ args = 0, pretend = 0, frame = 24
 821              		@ frame_needed = 0, uses_anonymous_args = 0
 822 0000 04E02DE5 		str	lr, [sp, #-4]!	@,
 823              	.LCFI0:
ARM GAS  /tmp/ccjXaC2Q.s 			page 17


 824              		.cfi_def_cfa_offset 4
 825              		.cfi_offset 14, -4
 826 0004 1CD04DE2 		sub	sp, sp, #28	@,,
 827              	.LCFI1:
 828              		.cfi_def_cfa_offset 32
  90:src/init.c    ****     /* Initial SCB Parameters */
  91:src/init.c    ****     scb2300_t SCBParams = {
 829              		.loc 1 91 0
 830 0008 A4209FE5 		ldr	r2, .L2	@ tmp116,
 831 000c 04308DE2 		add	r3, sp, #4	@ tmp117,,
 832 0010 070092E8 		ldmia	r2, {r0, r1, r2}	@ tmp118,,,
 833 0014 070083E8 		stmia	r3, {r0, r1, r2}	@ tmp117,,,
  92:src/init.c    ****         .PLL_M_Mul = 12,           /* PLL Multiplier. Valid values 6 through 512*/
  93:src/init.c    ****         .PLL_N_Div = 1,            /* PLL Divider. Valid values 1 through 32 */
  94:src/init.c    ****         .PLL_Fcco = 288000000,     /* Frequency (Hz) of PLL output */
  95:src/init.c    ****         .CCLK_Div = 6,             /* CPU Clock divider, cclk */
  96:src/init.c    ****         .MAMMode = MAMCR_PARTIAL,  /* MAM mode Partial is the preferred setting for Rev -,A parts *
  97:src/init.c    ****         .MAMTim = MAMTIM_AUTOCFG   /* Let initMAM calculate the optimal MAM timing */
  98:src/init.c    ****     };
  99:src/init.c    **** 
 100:src/init.c    ****     scb2300_t *pSCBParams = &SCBParams;
 834              		.loc 1 100 0
 835 0018 04308DE2 		add	r3, sp, #4	@ tmp119,,
 836 001c 14308DE5 		str	r3, [sp, #20]	@ tmp119, pSCBParams
 101:src/init.c    **** 
 102:src/init.c    **** 	INT32U cclk = pSCBParams->PLL_Fcco/pSCBParams->CCLK_Div;
 837              		.loc 1 102 0
 838 0020 14309DE5 		ldr	r3, [sp, #20]	@ tmp120, pSCBParams
 839 0024 042093E5 		ldr	r2, [r3, #4]	@ D.5212, pSCBParams_1->PLL_Fcco
 840 0028 14309DE5 		ldr	r3, [sp, #20]	@ tmp121, pSCBParams
 841 002c 0830D3E5 		ldrb	r3, [r3, #8]	@ zero_extendqisi2	@ D.5213, pSCBParams_1->CCLK_Div
 842 0030 0200A0E1 		mov	r0, r2	@, D.5212
 843 0034 0310A0E1 		mov	r1, r3	@, D.5212
 844 0038 FEFFFFEB 		bl	__aeabi_uidiv	@
 845 003c 0030A0E1 		mov	r3, r0	@ tmp124,
 846 0040 10308DE5 		str	r3, [sp, #16]	@ tmp124, cclk
 103:src/init.c    **** 	/*
 104:src/init.c    ****      * intialize main hardware components
 105:src/init.c    ****      */
 106:src/init.c    **** 	/* Must turn off MAM before increasing frequency */
 107:src/init.c    ****     initMAM(cclk, MAMCR_OFF, MAMTIM_7_CLK);
 847              		.loc 1 107 0
 848 0044 10009DE5 		ldr	r0, [sp, #16]	@, cclk
 849 0048 0010A0E3 		mov	r1, #0	@,
 850 004c 0720A0E3 		mov	r2, #7	@,
 851 0050 810000EB 		bl	initMAM	@
 108:src/init.c    **** 
 109:src/init.c    ****     initPLL(pSCBParams);
 852              		.loc 1 109 0
 853 0054 14009DE5 		ldr	r0, [sp, #20]	@, pSCBParams
 854 0058 170000EB 		bl	initPLL	@
 110:src/init.c    ****     initMAM(cclk, pSCBParams->MAMMode, pSCBParams->MAMTim);
 855              		.loc 1 110 0
 856 005c 14309DE5 		ldr	r3, [sp, #20]	@ tmp125, pSCBParams
 857 0060 0920D3E5 		ldrb	r2, [r3, #9]	@ zero_extendqisi2	@ D.5213, pSCBParams_1->MAMMode
 858 0064 14309DE5 		ldr	r3, [sp, #20]	@ tmp126, pSCBParams
 859 0068 0A30D3E5 		ldrb	r3, [r3, #10]	@ zero_extendqisi2	@ D.5213, pSCBParams_1->MAMTim
ARM GAS  /tmp/ccjXaC2Q.s 			page 18


 860 006c 10009DE5 		ldr	r0, [sp, #16]	@, cclk
 861 0070 0210A0E1 		mov	r1, r2	@, D.5213
 862 0074 0320A0E1 		mov	r2, r3	@, D.5213
 863 0078 770000EB 		bl	initMAM	@
 111:src/init.c    ****     initPCLK();
 864              		.loc 1 111 0
 865 007c 090100EB 		bl	initPCLK	@
 112:src/init.c    **** 
 113:src/init.c    ****     initGPIO();
 866              		.loc 1 113 0
 867 0080 5D0100EB 		bl	initGPIO	@
 114:src/init.c    **** 
 115:src/init.c    ****     /* intialize specific hardware components for UART0 */
 116:src/init.c    ****     initUART0(38400, UART_8N1, UART_FIFO_OFF, cclk);
 868              		.loc 1 116 0
 869 0084 960CA0E3 		mov	r0, #38400	@,
 870 0088 0310A0E3 		mov	r1, #3	@,
 871 008c 0020A0E3 		mov	r2, #0	@,
 872 0090 10309DE5 		ldr	r3, [sp, #16]	@, cclk
 873 0094 FEFFFFEB 		bl	initUART0	@
 117:src/init.c    **** 
 118:src/init.c    ****     /* MEMMAP Choices are:
 119:src/init.c    ****     BOOTLOADERMODE      0x00
 120:src/init.c    ****     USERFLASHMODE       0x01
 121:src/init.c    ****     USERRAMMODE         0x02
 122:src/init.c    ****     EXTERNALMEMORYMODE  0x03
 123:src/init.c    ****     */
 124:src/init.c    ****     //DMI VOLATILE32(MEMMAP) = USERRAMMODE;
 125:src/init.c    ****     P_SCB_REGS->MEMMAP = USERFLASHMODE;
 874              		.loc 1 125 0
 875 0098 18309FE5 		ldr	r3, .L2+4	@ D.5214,
 876 009c 0120A0E3 		mov	r2, #1	@ tmp127,
 877 00a0 4020C3E5 		strb	r2, [r3, #64]	@ tmp128, _8->MEMMAP
 126:src/init.c    **** 
 127:src/init.c    ****     VIC_Init();
 878              		.loc 1 127 0
 879 00a4 DA0100EB 		bl	VIC_Init	@
 128:src/init.c    **** }
 880              		.loc 1 128 0
 881 00a8 1CD08DE2 		add	sp, sp, #28	@,,
 882              		@ sp needed	@
 883 00ac 04E09DE4 		ldr	lr, [sp], #4	@,
 884 00b0 1EFF2FE1 		bx	lr	@
 885              	.L3:
 886              		.align	2
 887              	.L2:
 888 00b4 00000000 		.word	.LC0
 889 00b8 00C01FE0 		.word	-534790144
 890              		.cfi_endproc
 891              	.LFE0:
 892              		.size	initHardware, .-initHardware
 893              		.align	2
 894              		.type	initPLL, %function
 895              	initPLL:
 896              	.LFB1:
 129:src/init.c    **** 
 130:src/init.c    **** 
ARM GAS  /tmp/ccjXaC2Q.s 			page 19


 131:src/init.c    **** /******************************************************************************
 132:src/init.c    ****  *
 133:src/init.c    ****  * DESCRIPTION
 134:src/init.c    ****  *
 135:src/init.c    ****  *  This init is specific to the 2300 family of devices.
 136:src/init.c    ****  *
 137:src/init.c    ****  * NOTES
 138:src/init.c    ****  *
 139:src/init.c    ****  *  Taken from the LPC2378 User Manual:
 140:src/init.c    ****  *
 141:src/init.c    ****  *   5.14 PLL setup sequence
 142:src/init.c    ****  *
 143:src/init.c    ****  *   The following sequence must be followed step by step in order to
 144:src/init.c    ****  *   have the PLL initialized an running:
 145:src/init.c    ****  *
 146:src/init.c    ****  *   1. Disconnect the PLL with one feed sequence if PLL is already
 147:src/init.c    ****  *      connected.
 148:src/init.c    ****  *   2. Disable the PLL with one feed sequence.
 149:src/init.c    ****  *   3. Change the CPU Clock Divider setting to speed up operation without
 150:src/init.c    ****  *      the PLL, if desired.
 151:src/init.c    ****  *   4. Write to the Clock Source Selection Control register to change the
 152:src/init.c    ****  *      clock source.
 153:src/init.c    ****  *   5. Write to the PLLCFG and make it effective with one feed sequence.
 154:src/init.c    ****  *      The PLLCFG can only be updated when the PLL is disabled.
 155:src/init.c    ****  *   6. Enable the PLL with one feed sequence.
 156:src/init.c    ****  *   7. Change the CPU Clock Divider setting for the operation with the
 157:src/init.c    ****  *      PLL. It's critical to do this before connecting the PLL.
 158:src/init.c    ****  *   8. Wait for the PLL to achieve lock by monitoring the PLOCK bit in the
 159:src/init.c    ****  *      PLLSTAT register, or using the PLOCK interrupt, or wait for a fixed
 160:src/init.c    ****  *      time when the input clock to PLL is slow (i.e. 32 kHz). The value of
 161:src/init.c    ****  *      PLOCK may not be stable when the PLL reference frequency (FREF, the
 162:src/init.c    ****  *      frequency of REFCLK, which is equal to the PLL input frequency divided
 163:src/init.c    ****  *      by the pre-divider value) is less than 100 kHz or greater than 20
 164:src/init.c    ****  *      MHz. In these cases, the PLL may be assumed to be stable after a
 165:src/init.c    ****  *      start-up time has passed. This time is 500 us when FREF is
 166:src/init.c    ****  *      greater than 400 kHz and 200 / FREF seconds when FREF is less than
 167:src/init.c    ****  *      400kHz.
 168:src/init.c    ****  *   9. Connect the PLL with one feed sequence.
 169:src/init.c    ****  *
 170:src/init.c    ****  *   It's very important not to merge any steps above. For example, don't
 171:src/init.c    ****  *   update the PLLCFG and enable the PLL simultaneously with the same feed
 172:src/init.c    ****  *   sequence.
 173:src/init.c    ****  *
 174:src/init.c    ****  *
 175:src/init.c    ****  *  This implementation is fixed as follows:
 176:src/init.c    ****  * 1. Uses the main oscillator
 177:src/init.c    ****  * 2. PLL Fcco is fixed at compile time at 288 MHz using external defines
 178:src/init.c    ****  * 3. It also sets the CCLK to a known stable 48 MHz
 179:src/init.c    ****  */
 180:src/init.c    **** static void initPLL(scb2300_t * pSCBParams)
 181:src/init.c    **** {
 897              		.loc 1 181 0
 898              		.cfi_startproc
 899              		@ Function supports interworking.
 900              		@ args = 0, pretend = 0, frame = 16
 901              		@ frame_needed = 0, uses_anonymous_args = 0
 902              		@ link register save eliminated.
ARM GAS  /tmp/ccjXaC2Q.s 			page 20


 903 00bc 10D04DE2 		sub	sp, sp, #16	@,,
 904              	.LCFI2:
 905              		.cfi_def_cfa_offset 16
 906 00c0 04008DE5 		str	r0, [sp, #4]	@ pSCBParams, pSCBParams
 182:src/init.c    **** 	INT32U pllcfg;
 183:src/init.c    **** 
 184:src/init.c    **** 	/* [1] Check if PLL connected, disconnect if yes. */
 185:src/init.c    ****     if ((P_SCB_REGS->PLLSTAT) & PLLSTAT_PLLC)
 907              		.loc 1 185 0
 908 00c4 8C319FE5 		ldr	r3, .L11	@ D.5215,
 909 00c8 883093E5 		ldr	r3, [r3, #136]	@ D.5216, _1->PLLSTAT
 910 00cc 023403E2 		and	r3, r3, #33554432	@ D.5216, D.5216,
 911 00d0 000053E3 		cmp	r3, #0	@ D.5216,
 912 00d4 0800000A 		beq	.L5	@,
 186:src/init.c    ****     {
 187:src/init.c    ****     	P_SCB_REGS->PLLCON = PLLCON_PLLE;
 913              		.loc 1 187 0
 914 00d8 78319FE5 		ldr	r3, .L11	@ D.5215,
 915 00dc 0120A0E3 		mov	r2, #1	@ tmp157,
 916 00e0 8020C3E5 		strb	r2, [r3, #128]	@ tmp158, _4->PLLCON
 188:src/init.c    ****         /* Enable PLL, disconnected ( PLLC = 0)*/
 189:src/init.c    ****     	P_SCB_REGS->PLLFEED = 0xAA;
 917              		.loc 1 189 0
 918 00e4 6C319FE5 		ldr	r3, .L11	@ D.5215,
 919 00e8 5520E0E3 		mvn	r2, #85	@ tmp159,
 920 00ec 8C20C3E5 		strb	r2, [r3, #140]	@ tmp160, _5->PLLFEED
 190:src/init.c    ****     	P_SCB_REGS->PLLFEED = 0x55;
 921              		.loc 1 190 0
 922 00f0 60319FE5 		ldr	r3, .L11	@ D.5215,
 923 00f4 5520A0E3 		mov	r2, #85	@ tmp161,
 924 00f8 8C20C3E5 		strb	r2, [r3, #140]	@ tmp162, _6->PLLFEED
 925              	.L5:
 191:src/init.c    ****     }
 192:src/init.c    **** 
 193:src/init.c    ****     /* [2] Disable the PLL once it has been disconnected. */
 194:src/init.c    ****     P_SCB_REGS->PLLCON  = 0;
 926              		.loc 1 194 0
 927 00fc 54319FE5 		ldr	r3, .L11	@ D.5215,
 928 0100 0020A0E3 		mov	r2, #0	@ tmp163,
 929 0104 8020C3E5 		strb	r2, [r3, #128]	@ tmp164, _7->PLLCON
 195:src/init.c    ****     P_SCB_REGS->PLLFEED = 0xAA;
 930              		.loc 1 195 0
 931 0108 48319FE5 		ldr	r3, .L11	@ D.5215,
 932 010c 5520E0E3 		mvn	r2, #85	@ tmp165,
 933 0110 8C20C3E5 		strb	r2, [r3, #140]	@ tmp166, _8->PLLFEED
 196:src/init.c    ****     P_SCB_REGS->PLLFEED = 0x55;
 934              		.loc 1 196 0
 935 0114 3C319FE5 		ldr	r3, .L11	@ D.5215,
 936 0118 5520A0E3 		mov	r2, #85	@ tmp167,
 937 011c 8C20C3E5 		strb	r2, [r3, #140]	@ tmp168, _9->PLLFEED
 197:src/init.c    **** 
 198:src/init.c    ****     /* [3] Change the CPU Clock Divider setting
 199:src/init.c    ****      * to speed up operation without the PLL, if desired.
 200:src/init.c    ****      * We're going to divide by 1 for maximum non-PLL clock speed.
 201:src/init.c    ****      * NOTE: CCLKCFG adds one internally so we must subtract one */
 202:src/init.c    ****     P_SCB_REGS->CCLKCFG = (CCLK_DIV_1 - 1);
 938              		.loc 1 202 0
ARM GAS  /tmp/ccjXaC2Q.s 			page 21


 939 0120 30319FE5 		ldr	r3, .L11	@ D.5215,
 940 0124 0020A0E3 		mov	r2, #0	@ tmp169,
 941 0128 0421C3E5 		strb	r2, [r3, #260]	@ tmp170, _10->CCLKCFG
 203:src/init.c    **** 
 204:src/init.c    ****     /* [4] Enable the main oscillator, select clock source  */
 205:src/init.c    ****     P_SCB_REGS->SCS |= SCS_OSCEN;
 942              		.loc 1 205 0
 943 012c 24319FE5 		ldr	r3, .L11	@ D.5215,
 944 0130 20219FE5 		ldr	r2, .L11	@ D.5215,
 945 0134 A02192E5 		ldr	r2, [r2, #416]	@ D.5216, _12->SCS
 946 0138 202082E3 		orr	r2, r2, #32	@ D.5216, D.5216,
 947 013c A02183E5 		str	r2, [r3, #416]	@ D.5216, _11->SCS
 948              	.L6:
 206:src/init.c    **** 
 207:src/init.c    ****     /* Wait until main OSC is usable */
 208:src/init.c    ****     do {} while ((P_SCB_REGS->SCS & SCS_OSCSTAT) == 0);
 949              		.loc 1 208 0 discriminator 1
 950 0140 10319FE5 		ldr	r3, .L11	@ D.5215,
 951 0144 A03193E5 		ldr	r3, [r3, #416]	@ D.5216, _15->SCS
 952 0148 403003E2 		and	r3, r3, #64	@ D.5216, D.5216,
 953 014c 000053E3 		cmp	r3, #0	@ D.5216,
 954 0150 FAFFFF0A 		beq	.L6	@,
 209:src/init.c    **** 
 210:src/init.c    ****     /* Select the main osc as the PLL clk source. */
 211:src/init.c    ****     P_SCB_REGS->CLKSRCSEL = CLKSRC_MAIN_OSC;
 955              		.loc 1 211 0
 956 0154 FC309FE5 		ldr	r3, .L11	@ D.5215,
 957 0158 0120A0E3 		mov	r2, #1	@ tmp171,
 958 015c 0C21C3E5 		strb	r2, [r3, #268]	@ tmp172, _18->CLKSRCSEL
 212:src/init.c    **** 
 213:src/init.c    ****     /*
 214:src/init.c    ****      * NOTES:
 215:src/init.c    ****      *
 216:src/init.c    ****      * Set multiplier and divider values.
 217:src/init.c    ****      *
 218:src/init.c    ****      *  PLLCFG = ((N - 1) << 16) + (M - 1)
 219:src/init.c    ****      *
 220:src/init.c    ****      *  F_cco = (2 * M *F_in)/N
 221:src/init.c    ****      *      M = 12, N = 1, F_in = 12.000 MHz -> F_cco = 288.000 MHz
 222:src/init.c    ****      *
 223:src/init.c    ****      */
 224:src/init.c    ****     /* [5] Write to the PLLCFG and make it effective with feed sequence */
 225:src/init.c    ****     pllcfg = (((pSCBParams->PLL_N_Div - 1) << 16) + ((pSCBParams->PLL_M_Mul - 1) << 0));
 959              		.loc 1 225 0
 960 0160 04309DE5 		ldr	r3, [sp, #4]	@ tmp173, pSCBParams
 961 0164 0230D3E5 		ldrb	r3, [r3, #2]	@ zero_extendqisi2	@ D.5217, pSCBParams_19(D)->PLL_N_Div
 962 0168 013043E2 		sub	r3, r3, #1	@ D.5218, D.5218,
 963 016c 0328A0E1 		mov	r2, r3, asl #16	@ D.5218, D.5218,
 964 0170 04309DE5 		ldr	r3, [sp, #4]	@ tmp174, pSCBParams
 965 0174 B030D3E1 		ldrh	r3, [r3]	@ D.5219, pSCBParams_19(D)->PLL_M_Mul
 966 0178 013043E2 		sub	r3, r3, #1	@ D.5218, D.5218,
 967 017c 033082E0 		add	r3, r2, r3	@ D.5218, D.5218, D.5218
 968 0180 0C308DE5 		str	r3, [sp, #12]	@ D.5218, pllcfg
 226:src/init.c    ****     P_SCB_REGS->PLLCFG = pllcfg;
 969              		.loc 1 226 0
 970 0184 CC309FE5 		ldr	r3, .L11	@ D.5215,
 971 0188 0C209DE5 		ldr	r2, [sp, #12]	@ tmp175, pllcfg
ARM GAS  /tmp/ccjXaC2Q.s 			page 22


 972 018c 842083E5 		str	r2, [r3, #132]	@ tmp175, _29->PLLCFG
 227:src/init.c    ****     P_SCB_REGS->PLLFEED = 0xAA;
 973              		.loc 1 227 0
 974 0190 C0309FE5 		ldr	r3, .L11	@ D.5215,
 975 0194 5520E0E3 		mvn	r2, #85	@ tmp176,
 976 0198 8C20C3E5 		strb	r2, [r3, #140]	@ tmp177, _30->PLLFEED
 228:src/init.c    ****     P_SCB_REGS->PLLFEED = 0x55;
 977              		.loc 1 228 0
 978 019c B4309FE5 		ldr	r3, .L11	@ D.5215,
 979 01a0 5520A0E3 		mov	r2, #85	@ tmp178,
 980 01a4 8C20C3E5 		strb	r2, [r3, #140]	@ tmp179, _31->PLLFEED
 229:src/init.c    **** 
 230:src/init.c    ****     /* [6] Enable the PLL and make it effective with feed sequence */
 231:src/init.c    ****     P_SCB_REGS->PLLCON  = PLLCON_PLLE;
 981              		.loc 1 231 0
 982 01a8 A8309FE5 		ldr	r3, .L11	@ D.5215,
 983 01ac 0120A0E3 		mov	r2, #1	@ tmp180,
 984 01b0 8020C3E5 		strb	r2, [r3, #128]	@ tmp181, _32->PLLCON
 232:src/init.c    ****     P_SCB_REGS->PLLFEED = 0xAA;
 985              		.loc 1 232 0
 986 01b4 9C309FE5 		ldr	r3, .L11	@ D.5215,
 987 01b8 5520E0E3 		mvn	r2, #85	@ tmp182,
 988 01bc 8C20C3E5 		strb	r2, [r3, #140]	@ tmp183, _33->PLLFEED
 233:src/init.c    ****     P_SCB_REGS->PLLFEED = 0x55;
 989              		.loc 1 233 0
 990 01c0 90309FE5 		ldr	r3, .L11	@ D.5215,
 991 01c4 5520A0E3 		mov	r2, #85	@ tmp184,
 992 01c8 8C20C3E5 		strb	r2, [r3, #140]	@ tmp185, _34->PLLFEED
 234:src/init.c    **** 
 235:src/init.c    ****     /* [7] Change the CPU Clock Divider setting for the operation with the PLL.
 236:src/init.c    ****      *     It's critical to do this before connecting the PLL.
 237:src/init.c    ****      * NOTE: CCLKCFG adds one internally so we must subtract one
 238:src/init.c    ****      * Divide F_cco down to get the CCLK output. */
 239:src/init.c    ****     P_SCB_REGS->CCLKCFG = (pSCBParams->CCLK_Div - 1);
 993              		.loc 1 239 0
 994 01cc 84309FE5 		ldr	r3, .L11	@ D.5215,
 995 01d0 04209DE5 		ldr	r2, [sp, #4]	@ tmp186, pSCBParams
 996 01d4 0820D2E5 		ldrb	r2, [r2, #8]	@ zero_extendqisi2	@ D.5217, pSCBParams_19(D)->CCLK_Div
 997 01d8 012042E2 		sub	r2, r2, #1	@ tmp187, D.5217,
 998 01dc FF2002E2 		and	r2, r2, #255	@ D.5217, tmp187,
 999 01e0 0421C3E5 		strb	r2, [r3, #260]	@ tmp188, _35->CCLKCFG
 1000              	.L7:
 240:src/init.c    **** 
 241:src/init.c    ****     /* [8] Wait for the PLL to lock to set frequency
 242:src/init.c    ****      * TODO: Add timeout for slow FREF */
 243:src/init.c    ****     do {} while(((P_SCB_REGS->PLLSTAT) & PLLSTAT_PLOCK) == 0);
 1001              		.loc 1 243 0 discriminator 1
 1002 01e4 6C309FE5 		ldr	r3, .L11	@ D.5215,
 1003 01e8 883093E5 		ldr	r3, [r3, #136]	@ D.5216, _38->PLLSTAT
 1004 01ec 013303E2 		and	r3, r3, #67108864	@ D.5216, D.5216,
 1005 01f0 000053E3 		cmp	r3, #0	@ D.5216,
 1006 01f4 FAFFFF0A 		beq	.L7	@,
 1007              	.L8:
 244:src/init.c    ****     do {} while(((P_SCB_REGS->PLLSTAT) & 0x00FF7FFF) != pllcfg);
 1008              		.loc 1 244 0 discriminator 1
 1009 01f8 58309FE5 		ldr	r3, .L11	@ D.5215,
 1010 01fc 883093E5 		ldr	r3, [r3, #136]	@ D.5216, _41->PLLSTAT
ARM GAS  /tmp/ccjXaC2Q.s 			page 23


 1011 0200 FF34C3E3 		bic	r3, r3, #-16777216	@ D.5216, D.5216,
 1012 0204 0239C3E3 		bic	r3, r3, #32768	@ D.5216, D.5216,
 1013 0208 0C209DE5 		ldr	r2, [sp, #12]	@ tmp189, pllcfg
 1014 020c 020053E1 		cmp	r3, r2	@ D.5216, tmp189
 1015 0210 F8FFFF1A 		bne	.L8	@,
 245:src/init.c    **** 
 246:src/init.c    ****     /* [9] Enable and connect the PLL as the clock source */
 247:src/init.c    ****     P_SCB_REGS->PLLCON = (PLLCON_PLLE | PLLCON_PLLC);
 1016              		.loc 1 247 0
 1017 0214 3C309FE5 		ldr	r3, .L11	@ D.5215,
 1018 0218 0320A0E3 		mov	r2, #3	@ tmp190,
 1019 021c 8020C3E5 		strb	r2, [r3, #128]	@ tmp191, _44->PLLCON
 248:src/init.c    ****     P_SCB_REGS->PLLFEED = 0xAA;
 1020              		.loc 1 248 0
 1021 0220 30309FE5 		ldr	r3, .L11	@ D.5215,
 1022 0224 5520E0E3 		mvn	r2, #85	@ tmp192,
 1023 0228 8C20C3E5 		strb	r2, [r3, #140]	@ tmp193, _45->PLLFEED
 249:src/init.c    ****     P_SCB_REGS->PLLFEED = 0x55;
 1024              		.loc 1 249 0
 1025 022c 24309FE5 		ldr	r3, .L11	@ D.5215,
 1026 0230 5520A0E3 		mov	r2, #85	@ tmp194,
 1027 0234 8C20C3E5 		strb	r2, [r3, #140]	@ tmp195, _46->PLLFEED
 1028              	.L9:
 250:src/init.c    **** 
 251:src/init.c    ****     /* Check connect bit status and wait for connection. */
 252:src/init.c    ****     do {} while(((P_SCB_REGS->PLLSTAT) & PLLSTAT_PLLC) == 0);
 1029              		.loc 1 252 0 discriminator 1
 1030 0238 18309FE5 		ldr	r3, .L11	@ D.5215,
 1031 023c 883093E5 		ldr	r3, [r3, #136]	@ D.5216, _47->PLLSTAT
 1032 0240 023403E2 		and	r3, r3, #33554432	@ D.5216, D.5216,
 1033 0244 000053E3 		cmp	r3, #0	@ D.5216,
 1034 0248 FAFFFF0A 		beq	.L9	@,
 253:src/init.c    **** 
 254:src/init.c    ****     return;
 1035              		.loc 1 254 0
 1036 024c 0000A0E1 		mov	r0, r0	@ nop
 255:src/init.c    **** }
 1037              		.loc 1 255 0
 1038 0250 10D08DE2 		add	sp, sp, #16	@,,
 1039              		@ sp needed	@
 1040 0254 1EFF2FE1 		bx	lr	@
 1041              	.L12:
 1042              		.align	2
 1043              	.L11:
 1044 0258 00C01FE0 		.word	-534790144
 1045              		.cfi_endproc
 1046              	.LFE1:
 1047              		.size	initPLL, .-initPLL
 1048              		.align	2
 1049              		.type	initMAM, %function
 1050              	initMAM:
 1051              	.LFB2:
 256:src/init.c    **** 
 257:src/init.c    **** /*
 258:src/init.c    ****  * DESCRIPTION
 259:src/init.c    ****  *
 260:src/init.c    ****  * enable the MAM accelerator and sets number of clocks used for
ARM GAS  /tmp/ccjXaC2Q.s 			page 24


 261:src/init.c    ****  * flash memory fetch.
 262:src/init.c    ****  *
 263:src/init.c    ****  * PARAMETERS
 264:src/init.c    ****  * cclk : CPU Clock Frequency
 265:src/init.c    ****  * mamcr: MAM mode MAMCR_OFF, MAMCR_PARTIAL, or MAMCR_FULL
 266:src/init.c    ****  *
 267:src/init.c    ****  * EXAMPLE
 268:src/init.c    ****  *
 269:src/init.c    ****  *   initMAM(12000000, MAMCR_PARTIAL);
 270:src/init.c    ****  */
 271:src/init.c    **** 
 272:src/init.c    **** static void initMAM(INT32U cclk, INT8U mamcr, INT8U mamtim_override)
 273:src/init.c    **** {
 1052              		.loc 1 273 0
 1053              		.cfi_startproc
 1054              		@ Function supports interworking.
 1055              		@ args = 0, pretend = 0, frame = 8
 1056              		@ frame_needed = 0, uses_anonymous_args = 0
 1057              		@ link register save eliminated.
 1058 025c 08D04DE2 		sub	sp, sp, #8	@,,
 1059              	.LCFI3:
 1060              		.cfi_def_cfa_offset 8
 1061 0260 04008DE5 		str	r0, [sp, #4]	@ cclk, cclk
 1062 0264 0230A0E1 		mov	r3, r2	@ tmp119, mamtim_override
 1063 0268 0120A0E1 		mov	r2, r1	@ tmp118, tmp117
 1064 026c 0320CDE5 		strb	r2, [sp, #3]	@ tmp118, mamcr
 1065 0270 0230CDE5 		strb	r3, [sp, #2]	@ tmp120, mamtim_override
 274:src/init.c    ****     /* disable MAM */
 275:src/init.c    **** 	P_SCB_REGS->MAMCR	= MAMCR_OFF;
 1066              		.loc 1 275 0
 1067 0274 64309FE5 		ldr	r3, .L16	@ D.5220,
 1068 0278 0020A0E3 		mov	r2, #0	@ tmp121,
 1069 027c 0020C3E5 		strb	r2, [r3]	@ tmp122, _1->MAMCR
 276:src/init.c    **** 
 277:src/init.c    **** 	/* Either set according to override parameter or optimally calculate */
 278:src/init.c    **** 	if( (0 < mamtim_override) && (mamtim_override <= MAMTIM_MAX_CLK) )
 1070              		.loc 1 278 0
 1071 0280 0230DDE5 		ldrb	r3, [sp, #2]	@ zero_extendqisi2	@ tmp123, mamtim_override
 1072 0284 000053E3 		cmp	r3, #0	@ tmp123,
 1073 0288 0600000A 		beq	.L14	@,
 1074              		.loc 1 278 0 is_stmt 0 discriminator 1
 1075 028c 0230DDE5 		ldrb	r3, [sp, #2]	@ zero_extendqisi2	@ tmp124, mamtim_override
 1076 0290 070053E3 		cmp	r3, #7	@ tmp124,
 1077 0294 0300008A 		bhi	.L14	@,
 279:src/init.c    **** 	{
 280:src/init.c    **** 		P_SCB_REGS->MAMTIM	= mamtim_override;
 1078              		.loc 1 280 0 is_stmt 1
 1079 0298 40309FE5 		ldr	r3, .L16	@ D.5220,
 1080 029c 0220DDE5 		ldrb	r2, [sp, #2]	@ tmp125, mamtim_override
 1081 02a0 0420C3E5 		strb	r2, [r3, #4]	@ tmp125, _3->MAMTIM
 1082 02a4 080000EA 		b	.L15	@
 1083              	.L14:
 281:src/init.c    **** 	}
 282:src/init.c    **** 	else /* if( (mamtim_override == 0) || MAMTIM_MAX_CLK < mamtim_override  ) */
 283:src/init.c    **** 	{
 284:src/init.c    **** 		P_SCB_REGS->MAMTIM	= (((cclk)+19999999)/20000000); /* stable setting */
 1084              		.loc 1 284 0
ARM GAS  /tmp/ccjXaC2Q.s 			page 25


 1085 02a8 30209FE5 		ldr	r2, .L16	@ D.5220,
 1086 02ac 04109DE5 		ldr	r1, [sp, #4]	@ tmp126, cclk
 1087 02b0 2C309FE5 		ldr	r3, .L16+4	@ D.5221,
 1088 02b4 033081E0 		add	r3, r1, r3	@ D.5221, tmp126, D.5221
 1089 02b8 28109FE5 		ldr	r1, .L16+8	@ tmp128,
 1090 02bc 910383E0 		umull	r0, r3, r1, r3	@, tmp127, tmp128, D.5221
 1091 02c0 A33BA0E1 		mov	r3, r3, lsr #23	@ D.5221, tmp127,
 1092 02c4 FF3003E2 		and	r3, r3, #255	@ D.5222, D.5221,
 1093 02c8 0430C2E5 		strb	r3, [r2, #4]	@ tmp129, _4->MAMTIM
 1094              	.L15:
 285:src/init.c    **** 	}
 286:src/init.c    **** 
 287:src/init.c    **** 	P_SCB_REGS->MAMCR	= mamcr;
 1095              		.loc 1 287 0
 1096 02cc 0C309FE5 		ldr	r3, .L16	@ D.5220,
 1097 02d0 0320DDE5 		ldrb	r2, [sp, #3]	@ tmp130, mamcr
 1098 02d4 0020C3E5 		strb	r2, [r3]	@ tmp130, _9->MAMCR
 288:src/init.c    **** }
 1099              		.loc 1 288 0
 1100 02d8 08D08DE2 		add	sp, sp, #8	@,,
 1101              		@ sp needed	@
 1102 02dc 1EFF2FE1 		bx	lr	@
 1103              	.L17:
 1104              		.align	2
 1105              	.L16:
 1106 02e0 00C01FE0 		.word	-534790144
 1107 02e4 FF2C3101 		.word	19999999
 1108 02e8 6BCA5F6B 		.word	1801439851
 1109              		.cfi_endproc
 1110              	.LFE2:
 1111              		.size	initMAM, .-initMAM
 1112              		.align	2
 1113              		.global	initCCLK
 1114              		.type	initCCLK, %function
 1115              	initCCLK:
 1116              	.LFB3:
 289:src/init.c    **** 
 290:src/init.c    **** /*
 291:src/init.c    ****  * NAME
 292:src/init.c    ****  *
 293:src/init.c    ****  * initCCLK
 294:src/init.c    ****  *
 295:src/init.c    ****  * DESCRIPTION
 296:src/init.c    ****  *
 297:src/init.c    ****  * Set the cclk for CPU sub-system.
 298:src/init.c    ****  *
 299:src/init.c    ****  * PARAMETER
 300:src/init.c    ****  *
 301:src/init.c    ****  * none...
 302:src/init.c    ****  *
 303:src/init.c    ****  * EXAMPLE
 304:src/init.c    ****  *
 305:src/init.c    ****  *   initCCLK();
 306:src/init.c    ****  *
 307:src/init.c    ****  * NOTES
 308:src/init.c    ****  *
 309:src/init.c    ****  *  none...
ARM GAS  /tmp/ccjXaC2Q.s 			page 26


 310:src/init.c    ****  *
 311:src/init.c    ****  */
 312:src/init.c    **** 
 313:src/init.c    **** void initCCLK( scb2300_t * pSCBParams )
 314:src/init.c    **** {
 1117              		.loc 1 314 0
 1118              		.cfi_startproc
 1119              		@ Function supports interworking.
 1120              		@ args = 0, pretend = 0, frame = 8
 1121              		@ frame_needed = 0, uses_anonymous_args = 0
 1122 02ec 10402DE9 		stmfd	sp!, {r4, lr}	@,
 1123              	.LCFI4:
 1124              		.cfi_def_cfa_offset 8
 1125              		.cfi_offset 4, -8
 1126              		.cfi_offset 14, -4
 1127 02f0 08D04DE2 		sub	sp, sp, #8	@,,
 1128              	.LCFI5:
 1129              		.cfi_def_cfa_offset 16
 1130 02f4 04008DE5 		str	r0, [sp, #4]	@ pSCBParams, pSCBParams
 315:src/init.c    ****     /* Divide F_cco down to get the cclk Divider. (Fcco / cclk = clock divider)
 316:src/init.c    ****      * NOTE: CCLKCFG adds one internally so we must subtract one */
 317:src/init.c    **** 	P_SCB_REGS->CCLKCFG = ((pSCBParams->PLL_Fcco/pSCBParams->CCLK_Div) - 1);
 1131              		.loc 1 317 0
 1132 02f8 3C409FE5 		ldr	r4, .L20	@ D.5223,
 1133 02fc 04309DE5 		ldr	r3, [sp, #4]	@ tmp117, pSCBParams
 1134 0300 042093E5 		ldr	r2, [r3, #4]	@ D.5224, pSCBParams_2(D)->PLL_Fcco
 1135 0304 04309DE5 		ldr	r3, [sp, #4]	@ tmp118, pSCBParams
 1136 0308 0830D3E5 		ldrb	r3, [r3, #8]	@ zero_extendqisi2	@ D.5225, pSCBParams_2(D)->CCLK_Div
 1137 030c 0200A0E1 		mov	r0, r2	@, D.5224
 1138 0310 0310A0E1 		mov	r1, r3	@, D.5224
 1139 0314 FEFFFFEB 		bl	__aeabi_uidiv	@
 1140 0318 0030A0E1 		mov	r3, r0	@ tmp121,
 1141 031c FF3003E2 		and	r3, r3, #255	@ D.5225, D.5224,
 1142 0320 013043E2 		sub	r3, r3, #1	@ tmp122, D.5225,
 1143 0324 FF3003E2 		and	r3, r3, #255	@ D.5225, tmp122,
 1144 0328 0431C4E5 		strb	r3, [r4, #260]	@ tmp123, _1->CCLKCFG
 318:src/init.c    **** 
 319:src/init.c    ****     return;
 1145              		.loc 1 319 0
 1146 032c 0000A0E1 		mov	r0, r0	@ nop
 320:src/init.c    **** }
 1147              		.loc 1 320 0
 1148 0330 08D08DE2 		add	sp, sp, #8	@,,
 1149              		@ sp needed	@
 1150 0334 1040BDE8 		ldmfd	sp!, {r4, lr}	@
 1151 0338 1EFF2FE1 		bx	lr	@
 1152              	.L21:
 1153              		.align	2
 1154              	.L20:
 1155 033c 00C01FE0 		.word	-534790144
 1156              		.cfi_endproc
 1157              	.LFE3:
 1158              		.size	initCCLK, .-initCCLK
 1159              		.align	2
 1160              		.global	getFcclk
 1161              		.type	getFcclk, %function
 1162              	getFcclk:
ARM GAS  /tmp/ccjXaC2Q.s 			page 27


 1163              	.LFB4:
 321:src/init.c    **** 
 322:src/init.c    **** 
 323:src/init.c    **** INT32U getFcclk( void )
 324:src/init.c    **** {
 1164              		.loc 1 324 0
 1165              		.cfi_startproc
 1166              		@ Function supports interworking.
 1167              		@ args = 0, pretend = 0, frame = 32
 1168              		@ frame_needed = 0, uses_anonymous_args = 0
 1169 0340 04E02DE5 		str	lr, [sp, #-4]!	@,
 1170              	.LCFI6:
 1171              		.cfi_def_cfa_offset 4
 1172              		.cfi_offset 14, -4
 1173 0344 24D04DE2 		sub	sp, sp, #36	@,,
 1174              	.LCFI7:
 1175              		.cfi_def_cfa_offset 40
 325:src/init.c    ****     INT32U Fosc;
 326:src/init.c    ****     INT32U Fpllclk;
 327:src/init.c    ****     INT32U Fcclk;
 328:src/init.c    ****     INT8U  clksrcsel;
 329:src/init.c    ****     INT32U pllstat;
 330:src/init.c    ****     INT16U M_mul;
 331:src/init.c    ****     INT8U  N_div;
 332:src/init.c    ****     INT8U  plle;
 333:src/init.c    ****     INT8U  pllc;
 334:src/init.c    **** 
 335:src/init.c    **** 	/* Determine Fosc from configured clock source */
 336:src/init.c    ****     clksrcsel = P_SCB_REGS->CLKSRCSEL;
 1176              		.loc 1 336 0
 1177 0348 4C319FE5 		ldr	r3, .L30	@ D.5227,
 1178 034c 0C31D3E5 		ldrb	r3, [r3, #268]	@ tmp138, _4->CLKSRCSEL
 1179 0350 1730CDE5 		strb	r3, [sp, #23]	@ tmp138, clksrcsel
 337:src/init.c    ****     if( (clksrcsel & CLKSRCSEL_MASK) == CLKSRC_INT_RC )
 1180              		.loc 1 337 0
 1181 0354 1730DDE5 		ldrb	r3, [sp, #23]	@ zero_extendqisi2	@ D.5228, clksrcsel
 1182 0358 033003E2 		and	r3, r3, #3	@ D.5228, D.5228,
 1183 035c 000053E3 		cmp	r3, #0	@ D.5228,
 1184 0360 0200001A 		bne	.L23	@,
 338:src/init.c    ****     {
 339:src/init.c    ****     	Fosc = FOSC_INT_RC;
 1185              		.loc 1 339 0
 1186 0364 34319FE5 		ldr	r3, .L30+4	@ tmp139,
 1187 0368 1C308DE5 		str	r3, [sp, #28]	@ tmp139, Fosc
 1188 036c 0F0000EA 		b	.L24	@
 1189              	.L23:
 340:src/init.c    ****     }
 341:src/init.c    ****     else if( (clksrcsel & CLKSRCSEL_MASK) == CLKSRC_MAIN_OSC )
 1190              		.loc 1 341 0
 1191 0370 1730DDE5 		ldrb	r3, [sp, #23]	@ zero_extendqisi2	@ D.5228, clksrcsel
 1192 0374 033003E2 		and	r3, r3, #3	@ D.5228, D.5228,
 1193 0378 010053E3 		cmp	r3, #1	@ D.5228,
 1194 037c 0200001A 		bne	.L25	@,
 342:src/init.c    ****     {
 343:src/init.c    ****     	Fosc = FOSC_MAIN;
 1195              		.loc 1 343 0
 1196 0380 1C319FE5 		ldr	r3, .L30+8	@ tmp140,
ARM GAS  /tmp/ccjXaC2Q.s 			page 28


 1197 0384 1C308DE5 		str	r3, [sp, #28]	@ tmp140, Fosc
 1198 0388 080000EA 		b	.L24	@
 1199              	.L25:
 344:src/init.c    ****     }
 345:src/init.c    ****     else if( (clksrcsel & CLKSRCSEL_MASK) == CLKSRC_MIN_RTC )
 1200              		.loc 1 345 0
 1201 038c 1730DDE5 		ldrb	r3, [sp, #23]	@ zero_extendqisi2	@ D.5228, clksrcsel
 1202 0390 033003E2 		and	r3, r3, #3	@ D.5228, D.5228,
 1203 0394 020053E3 		cmp	r3, #2	@ D.5228,
 1204 0398 0200001A 		bne	.L26	@,
 346:src/init.c    ****     {
 347:src/init.c    ****     	Fosc = FOSC_RTC;
 1205              		.loc 1 347 0
 1206 039c 0239A0E3 		mov	r3, #32768	@ tmp141,
 1207 03a0 1C308DE5 		str	r3, [sp, #28]	@ tmp141, Fosc
 1208 03a4 010000EA 		b	.L24	@
 1209              	.L26:
 348:src/init.c    ****     }
 349:src/init.c    ****     else /* Invalid clock source */
 350:src/init.c    ****     {
 351:src/init.c    ****     	return -1;
 1210              		.loc 1 351 0
 1211 03a8 0030E0E3 		mvn	r3, #0	@ D.5226,
 1212 03ac 360000EA 		b	.L27	@
 1213              	.L24:
 352:src/init.c    ****     }
 353:src/init.c    **** 
 354:src/init.c    ****     /* Determine Fpllclk based on PLL configuration */
 355:src/init.c    ****     pllstat = P_SCB_REGS->PLLSTAT;
 1214              		.loc 1 355 0
 1215 03b0 E4309FE5 		ldr	r3, .L30	@ D.5227,
 1216 03b4 883093E5 		ldr	r3, [r3, #136]	@ tmp142, _16->PLLSTAT
 1217 03b8 10308DE5 		str	r3, [sp, #16]	@ tmp142, pllstat
 356:src/init.c    ****     M_mul = (pllstat & PLLSTAT_MSEL_MASK) + 1;
 1218              		.loc 1 356 0
 1219 03bc 10309DE5 		ldr	r3, [sp, #16]	@ tmp143, pllstat
 1220 03c0 0338A0E1 		mov	r3, r3, asl #16	@ tmp144, tmp143,
 1221 03c4 2338A0E1 		mov	r3, r3, lsr #16	@ D.5229, tmp144,
 1222 03c8 8338A0E1 		mov	r3, r3, asl #17	@ tmp145, D.5229,
 1223 03cc A338A0E1 		mov	r3, r3, lsr #17	@ tmp145, tmp145,
 1224 03d0 0338A0E1 		mov	r3, r3, asl #16	@ tmp146, tmp145,
 1225 03d4 2338A0E1 		mov	r3, r3, lsr #16	@ D.5229, tmp146,
 1226 03d8 013083E2 		add	r3, r3, #1	@ tmp147, D.5229,
 1227 03dc BE30CDE1 		strh	r3, [sp, #14]	@ movhi	@ tmp147, M_mul
 357:src/init.c    ****     N_div = ((pllstat & PLLSTAT_NSEL_MASK) >> 16) + 1;
 1228              		.loc 1 357 0
 1229 03e0 10309DE5 		ldr	r3, [sp, #16]	@ tmp148, pllstat
 1230 03e4 FF3803E2 		and	r3, r3, #16711680	@ D.5226, tmp148,
 1231 03e8 2338A0E1 		mov	r3, r3, lsr #16	@ D.5226, D.5226,
 1232 03ec FF3003E2 		and	r3, r3, #255	@ D.5230, D.5226,
 1233 03f0 013083E2 		add	r3, r3, #1	@ tmp149, D.5230,
 1234 03f4 0D30CDE5 		strb	r3, [sp, #13]	@ tmp150, N_div
 358:src/init.c    ****     plle  = (pllstat & PLLSTAT_PLLE) >> 24;
 1235              		.loc 1 358 0
 1236 03f8 10309DE5 		ldr	r3, [sp, #16]	@ tmp151, pllstat
 1237 03fc 013403E2 		and	r3, r3, #16777216	@ D.5226, tmp151,
 1238 0400 233CA0E1 		mov	r3, r3, lsr #24	@ D.5226, D.5226,
ARM GAS  /tmp/ccjXaC2Q.s 			page 29


 1239 0404 0C30CDE5 		strb	r3, [sp, #12]	@ tmp152, plle
 359:src/init.c    ****     pllc  = (pllstat & PLLSTAT_PLLC) >> 25;
 1240              		.loc 1 359 0
 1241 0408 10309DE5 		ldr	r3, [sp, #16]	@ tmp153, pllstat
 1242 040c 023403E2 		and	r3, r3, #33554432	@ D.5226, tmp153,
 1243 0410 A33CA0E1 		mov	r3, r3, lsr #25	@ D.5226, D.5226,
 1244 0414 0B30CDE5 		strb	r3, [sp, #11]	@ tmp154, pllc
 360:src/init.c    **** 
 361:src/init.c    ****     if( plle && pllc )
 1245              		.loc 1 361 0
 1246 0418 0C30DDE5 		ldrb	r3, [sp, #12]	@ zero_extendqisi2	@ tmp155, plle
 1247 041c 000053E3 		cmp	r3, #0	@ tmp155,
 1248 0420 0D00000A 		beq	.L28	@,
 1249              		.loc 1 361 0 is_stmt 0 discriminator 1
 1250 0424 0B30DDE5 		ldrb	r3, [sp, #11]	@ zero_extendqisi2	@ tmp156, pllc
 1251 0428 000053E3 		cmp	r3, #0	@ tmp156,
 1252 042c 0A00000A 		beq	.L28	@,
 362:src/init.c    ****     {
 363:src/init.c    ****     	Fpllclk = (2 * M_mul * Fosc) / N_div;
 1253              		.loc 1 363 0 is_stmt 1
 1254 0430 BE30DDE1 		ldrh	r3, [sp, #14]	@ D.5226, M_mul
 1255 0434 1C209DE5 		ldr	r2, [sp, #28]	@ tmp157, Fosc
 1256 0438 920303E0 		mul	r3, r2, r3	@ D.5226, tmp157, D.5226
 1257 043c 8320A0E1 		mov	r2, r3, asl #1	@ D.5226, D.5226,
 1258 0440 0D30DDE5 		ldrb	r3, [sp, #13]	@ zero_extendqisi2	@ D.5226, N_div
 1259 0444 0200A0E1 		mov	r0, r2	@, D.5226
 1260 0448 0310A0E1 		mov	r1, r3	@, D.5226
 1261 044c FEFFFFEB 		bl	__aeabi_uidiv	@
 1262 0450 0030A0E1 		mov	r3, r0	@ tmp160,
 1263 0454 18308DE5 		str	r3, [sp, #24]	@ tmp160, Fpllclk
 1264 0458 010000EA 		b	.L29	@
 1265              	.L28:
 364:src/init.c    ****     }
 365:src/init.c    ****     else
 366:src/init.c    ****     {
 367:src/init.c    ****     	Fpllclk = Fosc;
 1266              		.loc 1 367 0
 1267 045c 1C309DE5 		ldr	r3, [sp, #28]	@ tmp161, Fosc
 1268 0460 18308DE5 		str	r3, [sp, #24]	@ tmp161, Fpllclk
 1269              	.L29:
 368:src/init.c    ****     }
 369:src/init.c    **** 
 370:src/init.c    ****     /* Find out cclk frequency based on CCLKCFG */
 371:src/init.c    ****     Fcclk = Fpllclk/(P_SCB_REGS->CCLKCFG + 1);
 1270              		.loc 1 371 0
 1271 0464 30309FE5 		ldr	r3, .L30	@ D.5227,
 1272 0468 0431D3E5 		ldrb	r3, [r3, #260]	@ tmp163, _37->CCLKCFG
 1273 046c FF3003E2 		and	r3, r3, #255	@ D.5230, tmp163,
 1274 0470 013083E2 		add	r3, r3, #1	@ D.5228, D.5228,
 1275 0474 18009DE5 		ldr	r0, [sp, #24]	@, Fpllclk
 1276 0478 0310A0E1 		mov	r1, r3	@, D.5226
 1277 047c FEFFFFEB 		bl	__aeabi_uidiv	@
 1278 0480 0030A0E1 		mov	r3, r0	@ tmp166,
 1279 0484 04308DE5 		str	r3, [sp, #4]	@ tmp166, Fcclk
 372:src/init.c    **** 
 373:src/init.c    ****     return Fcclk;
 1280              		.loc 1 373 0
ARM GAS  /tmp/ccjXaC2Q.s 			page 30


 1281 0488 04309DE5 		ldr	r3, [sp, #4]	@ D.5226, Fcclk
 1282              	.L27:
 374:src/init.c    **** }
 1283              		.loc 1 374 0
 1284 048c 0300A0E1 		mov	r0, r3	@, <retval>
 1285 0490 24D08DE2 		add	sp, sp, #36	@,,
 1286              		@ sp needed	@
 1287 0494 04E09DE4 		ldr	lr, [sp], #4	@,
 1288 0498 1EFF2FE1 		bx	lr	@
 1289              	.L31:
 1290              		.align	2
 1291              	.L30:
 1292 049c 00C01FE0 		.word	-534790144
 1293 04a0 00093D00 		.word	4000000
 1294 04a4 001BB700 		.word	12000000
 1295              		.cfi_endproc
 1296              	.LFE4:
 1297              		.size	getFcclk, .-getFcclk
 1298              		.align	2
 1299              		.type	initPCLK, %function
 1300              	initPCLK:
 1301              	.LFB5:
 375:src/init.c    **** 
 376:src/init.c    **** /*
 377:src/init.c    ****  * NAME
 378:src/init.c    ****  *
 379:src/init.c    ****  * initPCLK
 380:src/init.c    ****  *
 381:src/init.c    ****  * DESCRIPTION
 382:src/init.c    ****  *
 383:src/init.c    ****  * Set the pclk for each peripheral. The default PDIV_4, but we do that
 384:src/init.c    ****  * explicitly here to make it easier to change them later.
 385:src/init.c    ****  *
 386:src/init.c    ****  * PARAMETER
 387:src/init.c    ****  *
 388:src/init.c    ****  * none...
 389:src/init.c    ****  *
 390:src/init.c    ****  * EXAMPLE
 391:src/init.c    ****  *
 392:src/init.c    ****  *   initPCLK();
 393:src/init.c    ****  *
 394:src/init.c    ****  * NOTES
 395:src/init.c    ****  *
 396:src/init.c    ****  *  none...
 397:src/init.c    ****  *
 398:src/init.c    ****  */
 399:src/init.c    **** 
 400:src/init.c    **** static void initPCLK(void)
 401:src/init.c    **** {
 1302              		.loc 1 401 0
 1303              		.cfi_startproc
 1304              		@ Function supports interworking.
 1305              		@ args = 0, pretend = 0, frame = 0
 1306              		@ frame_needed = 0, uses_anonymous_args = 0
 1307              		@ link register save eliminated.
 402:src/init.c    **** 	P_SCB_REGS->PCLKSEL0 =
 1308              		.loc 1 402 0
ARM GAS  /tmp/ccjXaC2Q.s 			page 31


 1309 04a8 14309FE5 		ldr	r3, .L33	@ D.5231,
 1310 04ac 512FA0E3 		mov	r2, #324	@ tmp112,
 1311 04b0 A82183E5 		str	r2, [r3, #424]	@ tmp112, _1->PCLKSEL0
 403:src/init.c    ****     (
 404:src/init.c    ****           SET_PCLK (PCLK_WDT,     PDIV_4)
 405:src/init.c    ****         | SET_PCLK (PCLK_TIMER0,  PDIV_1)
 406:src/init.c    ****         | SET_PCLK (PCLK_TIMER1,  PDIV_4)
 407:src/init.c    ****         | SET_PCLK (PCLK_UART0,   PDIV_1)
 408:src/init.c    ****         | SET_PCLK (PCLK_UART1,   PDIV_1)
 409:src/init.c    ****         | SET_PCLK (PCLK_PWM1,    PDIV_4)
 410:src/init.c    ****         | SET_PCLK (PCLK_I2C0,    PDIV_4)
 411:src/init.c    ****         | SET_PCLK (PCLK_SPI,     PDIV_4)
 412:src/init.c    ****         | SET_PCLK (PCLK_RTC,     PDIV_4)
 413:src/init.c    ****         | SET_PCLK (PCLK_SSP1,    PDIV_4)
 414:src/init.c    ****         | SET_PCLK (PCLK_DAC,     PDIV_4)
 415:src/init.c    ****         | SET_PCLK (PCLK_ADC,     PDIV_4)
 416:src/init.c    ****         | SET_PCLK (PCLK_CAN1,    PDIV_4)
 417:src/init.c    ****         | SET_PCLK (PCLK_CAN2,    PDIV_4)
 418:src/init.c    ****         | SET_PCLK (PCLK_ACF,     PDIV_4)
 419:src/init.c    ****     );
 420:src/init.c    **** 
 421:src/init.c    **** 	P_SCB_REGS->PCLKSEL1 =
 1312              		.loc 1 421 0
 1313 04b4 08309FE5 		ldr	r3, .L33	@ D.5231,
 1314 04b8 0528A0E3 		mov	r2, #327680	@ tmp113,
 1315 04bc AC2183E5 		str	r2, [r3, #428]	@ tmp113, _2->PCLKSEL1
 422:src/init.c    ****     (
 423:src/init.c    ****           SET_PCLK (PCLK_BAT_RAM, PDIV_4)
 424:src/init.c    ****         | SET_PCLK (PCLK_GPIO,    PDIV_4)
 425:src/init.c    ****         | SET_PCLK (PCLK_PCB,     PDIV_4)
 426:src/init.c    ****         | SET_PCLK (PCLK_I2C1,    PDIV_4)
 427:src/init.c    ****         | SET_PCLK (PCLK_SSP0,    PDIV_4)
 428:src/init.c    ****         | SET_PCLK (PCLK_TIMER2,  PDIV_4)
 429:src/init.c    ****         | SET_PCLK (PCLK_TIMER3,  PDIV_4)
 430:src/init.c    ****         | SET_PCLK (PCLK_UART2,   PDIV_1)
 431:src/init.c    ****         | SET_PCLK (PCLK_UART3,   PDIV_1)
 432:src/init.c    ****         | SET_PCLK (PCLK_I2C2,    PDIV_4)
 433:src/init.c    ****         | SET_PCLK (PCLK_I2S,     PDIV_4)
 434:src/init.c    ****         | SET_PCLK (PCLK_MCI,     PDIV_4)
 435:src/init.c    ****         | SET_PCLK (PCLK_SYSCON,  PDIV_4)
 436:src/init.c    ****     );
 437:src/init.c    **** }
 1316              		.loc 1 437 0
 1317 04c0 1EFF2FE1 		bx	lr	@
 1318              	.L34:
 1319              		.align	2
 1320              	.L33:
 1321 04c4 00C01FE0 		.word	-534790144
 1322              		.cfi_endproc
 1323              	.LFE5:
 1324              		.size	initPCLK, .-initPCLK
 1325              		.align	2
 1326              		.global	pinConfigurator
 1327              		.type	pinConfigurator, %function
 1328              	pinConfigurator:
 1329              	.LFB6:
 438:src/init.c    **** 
ARM GAS  /tmp/ccjXaC2Q.s 			page 32


 439:src/init.c    **** /*
 440:src/init.c    ****  * NAME:
 441:src/init.c    ****  *
 442:src/init.c    ****  *  pinConfigurator
 443:src/init.c    ****  *
 444:src/init.c    ****  * DESCRIPTION:
 445:src/init.c    ****  *
 446:src/init.c    ****  *  setups all the pins of the LPC2378
 447:src/init.c    ****  *
 448:src/init.c    ****  * PARAMETERS:
 449:src/init.c    ****  *
 450:src/init.c    ****  *  none...
 451:src/init.c    ****  *
 452:src/init.c    ****  * RETURN:
 453:src/init.c    ****  *
 454:src/init.c    ****  *  none...
 455:src/init.c    ****  *
 456:src/init.c    ****  * EXAMPLE:
 457:src/init.c    ****  *
 458:src/init.c    ****  *   pinConfigurator();
 459:src/init.c    ****  *
 460:src/init.c    ****  * NOTES:
 461:src/init.c    ****  *
 462:src/init.c    ****  *  experimental
 463:src/init.c    ****  *
 464:src/init.c    ****  */
 465:src/init.c    **** 
 466:src/init.c    **** void pinConfigurator(void)
 467:src/init.c    **** {
 1330              		.loc 1 467 0
 1331              		.cfi_startproc
 1332              		@ Function supports interworking.
 1333              		@ args = 0, pretend = 0, frame = 16
 1334              		@ frame_needed = 0, uses_anonymous_args = 0
 1335              		@ link register save eliminated.
 1336 04c8 10D04DE2 		sub	sp, sp, #16	@,,
 1337              	.LCFI8:
 1338              		.cfi_def_cfa_offset 16
 468:src/init.c    ****     INT32U n;
 469:src/init.c    ****     INT32U i;
 470:src/init.c    ****     INT32U pattern;
 471:src/init.c    **** 
 472:src/init.c    ****     n=0;
 1339              		.loc 1 472 0
 1340 04cc 0030A0E3 		mov	r3, #0	@ tmp121,
 1341 04d0 0C308DE5 		str	r3, [sp, #12]	@ tmp121, n
 473:src/init.c    **** 
 474:src/init.c    ****     while (mcuPins[n].pinSelect != 0)
 1342              		.loc 1 474 0
 1343 04d4 370000EA 		b	.L36	@
 1344              	.L39:
 475:src/init.c    ****     {
 476:src/init.c    ****         pattern=0x00000000;
 1345              		.loc 1 476 0
 1346 04d8 0030A0E3 		mov	r3, #0	@ tmp122,
 1347 04dc 04308DE5 		str	r3, [sp, #4]	@ tmp122, pattern
 477:src/init.c    **** 
ARM GAS  /tmp/ccjXaC2Q.s 			page 33


 478:src/init.c    ****         for (i=0; i<16; i++)
 1348              		.loc 1 478 0
 1349 04e0 0030A0E3 		mov	r3, #0	@ tmp123,
 1350 04e4 08308DE5 		str	r3, [sp, #8]	@ tmp123, i
 1351 04e8 220000EA 		b	.L37	@
 1352              	.L38:
 479:src/init.c    ****         {
 480:src/init.c    ****             pattern |= (mcuPins[n].pin[i].multiplex << (mcuPins[n].pin[i].position*2));
 1353              		.loc 1 480 0 discriminator 2
 1354 04ec 00119FE5 		ldr	r1, .L40	@ tmp124,
 1355 04f0 0C209DE5 		ldr	r2, [sp, #12]	@ tmp125, n
 1356 04f4 0230A0E1 		mov	r3, r2	@ tmp126, tmp125
 1357 04f8 8331A0E1 		mov	r3, r3, asl #3	@ tmp126, tmp126,
 1358 04fc 023083E0 		add	r3, r3, r2	@ tmp126, tmp126, tmp125
 1359 0500 8330A0E1 		mov	r3, r3, asl #1	@ tmp127, tmp126,
 1360 0504 08209DE5 		ldr	r2, [sp, #8]	@ tmp129, i
 1361 0508 022083E0 		add	r2, r3, r2	@ tmp128, tmp126, tmp129
 1362 050c 0530A0E3 		mov	r3, #5	@ tmp130,
 1363 0510 8220A0E1 		mov	r2, r2, asl #1	@ tmp131, tmp128,
 1364 0514 022081E0 		add	r2, r1, r2	@ tmp132, tmp124, tmp131
 1365 0518 033082E0 		add	r3, r2, r3	@ tmp133, tmp132, tmp130
 1366 051c 0030D3E5 		ldrb	r3, [r3]	@ zero_extendqisi2	@ D.5233, mcuPins[n_1].pin[i_2].multiplex
 1367 0520 0310A0E1 		mov	r1, r3	@ D.5234, D.5233
 1368 0524 C8009FE5 		ldr	r0, .L40	@ tmp134,
 1369 0528 0C209DE5 		ldr	r2, [sp, #12]	@ tmp135, n
 1370 052c 0230A0E1 		mov	r3, r2	@ tmp136, tmp135
 1371 0530 8331A0E1 		mov	r3, r3, asl #3	@ tmp136, tmp136,
 1372 0534 023083E0 		add	r3, r3, r2	@ tmp136, tmp136, tmp135
 1373 0538 8330A0E1 		mov	r3, r3, asl #1	@ tmp137, tmp136,
 1374 053c 08209DE5 		ldr	r2, [sp, #8]	@ tmp139, i
 1375 0540 022083E0 		add	r2, r3, r2	@ tmp138, tmp136, tmp139
 1376 0544 0430A0E3 		mov	r3, #4	@ tmp140,
 1377 0548 8220A0E1 		mov	r2, r2, asl #1	@ tmp141, tmp138,
 1378 054c 022080E0 		add	r2, r0, r2	@ tmp142, tmp134, tmp141
 1379 0550 033082E0 		add	r3, r2, r3	@ tmp143, tmp142, tmp140
 1380 0554 0030D3E5 		ldrb	r3, [r3]	@ zero_extendqisi2	@ D.5233, mcuPins[n_1].pin[i_2].position
 1381 0558 8330A0E1 		mov	r3, r3, asl #1	@ D.5234, D.5234,
 1382 055c 1133A0E1 		mov	r3, r1, asl r3	@ D.5234, D.5234,
 1383 0560 04209DE5 		ldr	r2, [sp, #4]	@ tmp145, pattern
 1384 0564 033082E1 		orr	r3, r2, r3	@ tmp144, tmp145, D.5232
 1385 0568 04308DE5 		str	r3, [sp, #4]	@ tmp144, pattern
 478:src/init.c    ****         for (i=0; i<16; i++)
 1386              		.loc 1 478 0 discriminator 2
 1387 056c 08309DE5 		ldr	r3, [sp, #8]	@ tmp147, i
 1388 0570 013083E2 		add	r3, r3, #1	@ tmp146, tmp147,
 1389 0574 08308DE5 		str	r3, [sp, #8]	@ tmp146, i
 1390              	.L37:
 478:src/init.c    ****         for (i=0; i<16; i++)
 1391              		.loc 1 478 0 is_stmt 0 discriminator 1
 1392 0578 08309DE5 		ldr	r3, [sp, #8]	@ tmp148, i
 1393 057c 0F0053E3 		cmp	r3, #15	@ tmp148,
 1394 0580 D9FFFF9A 		bls	.L38	@,
 481:src/init.c    ****         }
 482:src/init.c    **** 
 483:src/init.c    ****         VOLATILE32(mcuPins[n].pinSelect) = pattern; /* set the complete world */
 1395              		.loc 1 483 0 is_stmt 1
 1396 0584 68109FE5 		ldr	r1, .L40	@ tmp149,
ARM GAS  /tmp/ccjXaC2Q.s 			page 34


 1397 0588 0C209DE5 		ldr	r2, [sp, #12]	@ tmp150, n
 1398 058c 0230A0E1 		mov	r3, r2	@ tmp151, tmp150
 1399 0590 8331A0E1 		mov	r3, r3, asl #3	@ tmp151, tmp151,
 1400 0594 023083E0 		add	r3, r3, r2	@ tmp151, tmp151, tmp150
 1401 0598 0331A0E1 		mov	r3, r3, asl #2	@ tmp152, tmp151,
 1402 059c 033081E0 		add	r3, r1, r3	@ tmp153, tmp149, tmp151
 1403 05a0 003093E5 		ldr	r3, [r3]	@ D.5232, mcuPins[n_1].pinSelect
 1404 05a4 04209DE5 		ldr	r2, [sp, #4]	@ tmp154, pattern
 1405 05a8 002083E5 		str	r2, [r3]	@ tmp154, *_18
 484:src/init.c    ****         n ++;
 1406              		.loc 1 484 0
 1407 05ac 0C309DE5 		ldr	r3, [sp, #12]	@ tmp156, n
 1408 05b0 013083E2 		add	r3, r3, #1	@ tmp155, tmp156,
 1409 05b4 0C308DE5 		str	r3, [sp, #12]	@ tmp155, n
 1410              	.L36:
 474:src/init.c    ****     while (mcuPins[n].pinSelect != 0)
 1411              		.loc 1 474 0 discriminator 1
 1412 05b8 34109FE5 		ldr	r1, .L40	@ tmp157,
 1413 05bc 0C209DE5 		ldr	r2, [sp, #12]	@ tmp158, n
 1414 05c0 0230A0E1 		mov	r3, r2	@ tmp159, tmp158
 1415 05c4 8331A0E1 		mov	r3, r3, asl #3	@ tmp159, tmp159,
 1416 05c8 023083E0 		add	r3, r3, r2	@ tmp159, tmp159, tmp158
 1417 05cc 0331A0E1 		mov	r3, r3, asl #2	@ tmp160, tmp159,
 1418 05d0 033081E0 		add	r3, r1, r3	@ tmp161, tmp157, tmp159
 1419 05d4 003093E5 		ldr	r3, [r3]	@ D.5232, mcuPins[n_1].pinSelect
 1420 05d8 000053E3 		cmp	r3, #0	@ D.5232,
 1421 05dc BDFFFF1A 		bne	.L39	@,
 485:src/init.c    ****     }
 486:src/init.c    **** 
 487:src/init.c    ****     /*
 488:src/init.c    ****      * NOTE:
 489:src/init.c    ****      *
 490:src/init.c    ****      * Complete by setting the ETM to be disabled on PINSEL10
 491:src/init.c    ****      *
 492:src/init.c    ****      */
 493:src/init.c    ****     VOLATILE32(PINSEL10) = ~(BIT(3)) & PINSEL10_MASK;   /* disable ETM, mask reserved bit to 0 */
 1422              		.loc 1 493 0
 1423 05e0 10309FE5 		ldr	r3, .L40+4	@ D.5235,
 1424 05e4 0020A0E3 		mov	r2, #0	@ tmp162,
 1425 05e8 002083E5 		str	r2, [r3]	@ tmp162, *_20
 494:src/init.c    **** 
 495:src/init.c    **** }
 1426              		.loc 1 495 0
 1427 05ec 10D08DE2 		add	sp, sp, #16	@,,
 1428              		@ sp needed	@
 1429 05f0 1EFF2FE1 		bx	lr	@
 1430              	.L41:
 1431              		.align	2
 1432              	.L40:
 1433 05f4 00000000 		.word	mcuPins
 1434 05f8 28C002E0 		.word	-536690648
 1435              		.cfi_endproc
 1436              	.LFE6:
 1437              		.size	pinConfigurator, .-pinConfigurator
 1438              		.align	2
 1439              		.type	initGPIO, %function
 1440              	initGPIO:
ARM GAS  /tmp/ccjXaC2Q.s 			page 35


 1441              	.LFB7:
 496:src/init.c    **** 
 497:src/init.c    **** /*
 498:src/init.c    ****  * NAME:
 499:src/init.c    ****  *
 500:src/init.c    ****  *  initGPIO
 501:src/init.c    ****  *
 502:src/init.c    ****  * DESCRIPTION:
 503:src/init.c    ****  *
 504:src/init.c    ****  *  sets up the GPIO pins
 505:src/init.c    ****  *
 506:src/init.c    ****  * PARAMETERS:
 507:src/init.c    ****  *
 508:src/init.c    ****  *  none...
 509:src/init.c    ****  *
 510:src/init.c    ****  * RETURN:
 511:src/init.c    ****  *
 512:src/init.c    ****  *  none...
 513:src/init.c    ****  *
 514:src/init.c    ****  * EXAMPLE:
 515:src/init.c    ****  *
 516:src/init.c    ****  *   initGPIO();
 517:src/init.c    ****  *
 518:src/init.c    ****  * NOTES:
 519:src/init.c    ****  *
 520:src/init.c    ****  *  none...
 521:src/init.c    ****  *
 522:src/init.c    ****  */
 523:src/init.c    **** 
 524:src/init.c    **** static void initGPIO(void)
 525:src/init.c    **** {
 1442              		.loc 1 525 0
 1443              		.cfi_startproc
 1444              		@ Function supports interworking.
 1445              		@ args = 0, pretend = 0, frame = 0
 1446              		@ frame_needed = 0, uses_anonymous_args = 0
 1447 05fc 08402DE9 		stmfd	sp!, {r3, lr}	@,
 1448              	.LCFI9:
 1449              		.cfi_def_cfa_offset 8
 1450              		.cfi_offset 3, -8
 1451              		.cfi_offset 14, -4
 526:src/init.c    ****     pinConfigurator();
 1452              		.loc 1 526 0
 1453 0600 FEFFFFEB 		bl	pinConfigurator	@
 527:src/init.c    **** 
 528:src/init.c    ****     /*
 529:src/init.c    ****      * Old method:
 530:src/init.c    ****      *
 531:src/init.c    ****      * VOLATILE32(U0_TX_PINSEL_REG) = (VOLATILE32(U0_TX_PINSEL_REG) & ~U0_TX_PINMASK ) | U0_TX_PINS
 532:src/init.c    ****      * VOLATILE32(U0_RX_PINSEL_REG) = (VOLATILE32(U0_RX_PINSEL_REG) & ~U0_RX_PINMASK ) | U0_RX_PINS
 533:src/init.c    ****      */
 534:src/init.c    **** 
 535:src/init.c    ****     /*
 536:src/init.c    ****      * NOTE:
 537:src/init.c    ****      *
 538:src/init.c    ****      *  SCS controls whether the LPC2378 is set to use the legancy registers or the new
 539:src/init.c    ****      *  fast GPIO control registers.
ARM GAS  /tmp/ccjXaC2Q.s 			page 36


 540:src/init.c    ****      *
 541:src/init.c    ****      */
 542:src/init.c    **** 
 543:src/init.c    ****     P_SCB_REGS->SCS |= BIT(0);  /* Fast GPIO / new registers */
 1454              		.loc 1 543 0
 1455 0604 64309FE5 		ldr	r3, .L43	@ D.5236,
 1456 0608 60209FE5 		ldr	r2, .L43	@ D.5236,
 1457 060c A02192E5 		ldr	r2, [r2, #416]	@ D.5237, _2->SCS
 1458 0610 012082E3 		orr	r2, r2, #1	@ D.5237, D.5237,
 1459 0614 A02183E5 		str	r2, [r3, #416]	@ D.5237, _1->SCS
 544:src/init.c    **** 
 545:src/init.c    ****     /* Set Port0 Fast GPIO direction register outputs */
 546:src/init.c    ****     VOLATILE32(FIO0DIR) |= ( SD_LED_BIT | USBC_LED_BIT | USB_LINK_LED_BIT );
 1460              		.loc 1 546 0
 1461 0618 54209FE5 		ldr	r2, .L43+4	@ D.5238,
 1462 061c 50309FE5 		ldr	r3, .L43+4	@ D.5238,
 1463 0620 003093E5 		ldr	r3, [r3]	@ D.5237, *_6
 1464 0624 813983E3 		orr	r3, r3, #2113536	@ D.5237, D.5237,
 1465 0628 023A83E3 		orr	r3, r3, #8192	@ D.5237, D.5237,
 1466 062c 003082E5 		str	r3, [r2]	@ D.5237, *_5
 547:src/init.c    **** 
 548:src/init.c    ****     /* Set Port1 Fast GPIO direction register outputs */
 549:src/init.c    ****     VOLATILE32(FIO1DIR) |= ( LCD_BL_BIT );
 1467              		.loc 1 549 0
 1468 0630 40309FE5 		ldr	r3, .L43+8	@ D.5238,
 1469 0634 3C209FE5 		ldr	r2, .L43+8	@ D.5238,
 1470 0638 002092E5 		ldr	r2, [r2]	@ D.5237, *_10
 1471 063c 012382E3 		orr	r2, r2, #67108864	@ D.5237, D.5237,
 1472 0640 002083E5 		str	r2, [r3]	@ D.5237, *_9
 550:src/init.c    **** 
 551:src/init.c    ****     /* Turn off MCIPWR SD LED (near bottom left corner of LCD) */
 552:src/init.c    ****     VOLATILE32(FIO0CLR)  = SD_LED_BIT;
 1473              		.loc 1 552 0
 1474 0644 30309FE5 		ldr	r3, .L43+12	@ D.5238,
 1475 0648 0226A0E3 		mov	r2, #2097152	@ tmp125,
 1476 064c 002083E5 		str	r2, [r3]	@ tmp125, *_13
 553:src/init.c    ****     /* Turn off USBC LED */
 554:src/init.c    ****     VOLATILE32(FIO0SET)  = USBC_LED_BIT;
 1477              		.loc 1 554 0
 1478 0650 28309FE5 		ldr	r3, .L43+16	@ D.5238,
 1479 0654 0129A0E3 		mov	r2, #16384	@ tmp126,
 1480 0658 002083E5 		str	r2, [r3]	@ tmp126, *_14
 555:src/init.c    ****     /* Turn off USB_LINK LED */
 556:src/init.c    ****     VOLATILE32(FIO0SET)  = USB_LINK_LED_BIT;
 1481              		.loc 1 556 0
 1482 065c 1C309FE5 		ldr	r3, .L43+16	@ D.5238,
 1483 0660 022AA0E3 		mov	r2, #8192	@ tmp127,
 1484 0664 002083E5 		str	r2, [r3]	@ tmp127, *_15
 557:src/init.c    **** 
 558:src/init.c    **** }
 1485              		.loc 1 558 0
 1486 0668 0840BDE8 		ldmfd	sp!, {r3, lr}	@
 1487 066c 1EFF2FE1 		bx	lr	@
 1488              	.L44:
 1489              		.align	2
 1490              	.L43:
 1491 0670 00C01FE0 		.word	-534790144
ARM GAS  /tmp/ccjXaC2Q.s 			page 37


 1492 0674 00C0FF3F 		.word	1073725440
 1493 0678 20C0FF3F 		.word	1073725472
 1494 067c 1CC0FF3F 		.word	1073725468
 1495 0680 18C0FF3F 		.word	1073725464
 1496              		.cfi_endproc
 1497              	.LFE7:
 1498              		.size	initGPIO, .-initGPIO
 1499              		.align	2
 1500              		.global	initUART0
 1501              		.type	initUART0, %function
 1502              	initUART0:
 1503              	.LFB8:
 559:src/init.c    **** 
 560:src/init.c    **** /*
 561:src/init.c    ****  * NAME:
 562:src/init.c    ****  *
 563:src/init.c    ****  *  initUART0
 564:src/init.c    ****  *
 565:src/init.c    ****  * DESCRIPTION:
 566:src/init.c    ****  *
 567:src/init.c    ****  *  sets up UART0 to be 38.4 K Baud, 8 data bits, no parity, and no
 568:src/init.c    ****  *  flow control
 569:src/init.c    ****  *
 570:src/init.c    ****  * PARAMETERS:
 571:src/init.c    ****  *
 572:src/init.c    ****  *  none...
 573:src/init.c    ****  *
 574:src/init.c    ****  * RETURN:
 575:src/init.c    ****  *
 576:src/init.c    ****  *  none...
 577:src/init.c    ****  *
 578:src/init.c    ****  * EXAMPLE:
 579:src/init.c    ****  *
 580:src/init.c    ****  *   initUART0();
 581:src/init.c    ****  *
 582:src/init.c    ****  * NOTES:
 583:src/init.c    ****  *
 584:src/init.c    ****  *  experimental
 585:src/init.c    ****  *
 586:src/init.c    ****  */
 587:src/init.c    **** 
 588:src/init.c    **** void initUART0(INT32U baud, INT8U mode, INT8U fmode, INT32U cclk)
 589:src/init.c    **** {
 1504              		.loc 1 589 0
 1505              		.cfi_startproc
 1506              		@ Function supports interworking.
 1507              		@ args = 0, pretend = 0, frame = 32
 1508              		@ frame_needed = 0, uses_anonymous_args = 0
 1509 0684 04E02DE5 		str	lr, [sp, #-4]!	@,
 1510              	.LCFI10:
 1511              		.cfi_def_cfa_offset 4
 1512              		.cfi_offset 14, -4
 1513 0688 24D04DE2 		sub	sp, sp, #36	@,,
 1514              	.LCFI11:
 1515              		.cfi_def_cfa_offset 40
 1516 068c 0C008DE5 		str	r0, [sp, #12]	@ baud, baud
 1517 0690 04308DE5 		str	r3, [sp, #4]	@ cclk, cclk
ARM GAS  /tmp/ccjXaC2Q.s 			page 38


 1518 0694 0130A0E1 		mov	r3, r1	@ tmp138, tmp137
 1519 0698 0B30CDE5 		strb	r3, [sp, #11]	@ tmp138, mode
 1520 069c 0230A0E1 		mov	r3, r2	@ tmp140, tmp139
 1521 06a0 0A30CDE5 		strb	r3, [sp, #10]	@ tmp140, fmode
 590:src/init.c    ****     INT8U pclk_div;
 591:src/init.c    ****     INT8U pclk_sel;
 592:src/init.c    ****     INT32U uart_divisor_latch;
 593:src/init.c    ****     INT8U udl_roundbit;
 594:src/init.c    **** 
 595:src/init.c    ****     /* find out UART0's pclk divider */
 596:src/init.c    ****     pclk_sel = GET_PCLK_SEL( P_SCB_REGS->PCLKSEL0, PCLK_UART0 );
 1522              		.loc 1 596 0
 1523 06a4 60319FE5 		ldr	r3, .L56	@ D.5239,
 1524 06a8 A83193E5 		ldr	r3, [r3, #424]	@ D.5240, _5->PCLKSEL0
 1525 06ac 2333A0E1 		mov	r3, r3, lsr #6	@ D.5240, D.5240,
 1526 06b0 FF3003E2 		and	r3, r3, #255	@ D.5241, D.5240,
 1527 06b4 033003E2 		and	r3, r3, #3	@ tmp141, D.5241,
 1528 06b8 1F30CDE5 		strb	r3, [sp, #31]	@ tmp142, pclk_sel
 597:src/init.c    ****     pclk_div = ( pclk_sel == 0 ? 4 : \
 1529              		.loc 1 597 0
 1530 06bc 1F30DDE5 		ldrb	r3, [sp, #31]	@ zero_extendqisi2	@ tmp143, pclk_sel
 1531 06c0 000053E3 		cmp	r3, #0	@ tmp143,
 1532 06c4 1000000A 		beq	.L46	@,
 1533              		.loc 1 597 0 is_stmt 0 discriminator 1
 1534 06c8 1F30DDE5 		ldrb	r3, [sp, #31]	@ zero_extendqisi2	@ tmp144, pclk_sel
 1535 06cc 010053E3 		cmp	r3, #1	@ tmp144,
 1536 06d0 0B00000A 		beq	.L47	@,
 1537              		.loc 1 597 0 discriminator 3
 1538 06d4 1F30DDE5 		ldrb	r3, [sp, #31]	@ zero_extendqisi2	@ tmp145, pclk_sel
 1539 06d8 020053E3 		cmp	r3, #2	@ tmp145,
 1540 06dc 0600000A 		beq	.L48	@,
 1541              		.loc 1 597 0 discriminator 5
 1542 06e0 1F30DDE5 		ldrb	r3, [sp, #31]	@ zero_extendqisi2	@ tmp146, pclk_sel
 1543 06e4 030053E3 		cmp	r3, #3	@ tmp146,
 1544 06e8 0100001A 		bne	.L49	@,
 1545              		.loc 1 597 0 discriminator 7
 1546 06ec 0830A0E3 		mov	r3, #8	@ iftmp.3,
 1547 06f0 060000EA 		b	.L53	@
 1548              	.L49:
 1549              		.loc 1 597 0 discriminator 8
 1550 06f4 0030A0E3 		mov	r3, #0	@ iftmp.3,
 1551 06f8 040000EA 		b	.L53	@
 1552              	.L48:
 1553              		.loc 1 597 0 discriminator 6
 1554 06fc 0230A0E3 		mov	r3, #2	@ iftmp.2,
 1555 0700 020000EA 		b	.L53	@
 1556              	.L47:
 1557              		.loc 1 597 0 discriminator 4
 1558 0704 0130A0E3 		mov	r3, #1	@ iftmp.1,
 1559 0708 000000EA 		b	.L53	@
 1560              	.L46:
 1561              		.loc 1 597 0 discriminator 2
 1562 070c 0430A0E3 		mov	r3, #4	@ iftmp.0,
 1563              	.L53:
 1564              		.loc 1 597 0 discriminator 9
 1565 0710 1E30CDE5 		strb	r3, [sp, #30]	@ tmp147, pclk_div
 598:src/init.c    ****     		     pclk_sel == 1 ? 1 : \
ARM GAS  /tmp/ccjXaC2Q.s 			page 39


 599:src/init.c    ****     		     pclk_sel == 2 ? 2 : \
 600:src/init.c    ****     		     pclk_sel == 3 ? 8 : \
 601:src/init.c    ****     		     0 ); /* this evaluation should never happen */
 602:src/init.c    ****     if( pclk_div == 0 )
 1566              		.loc 1 602 0 is_stmt 1 discriminator 9
 1567 0714 1E30DDE5 		ldrb	r3, [sp, #30]	@ zero_extendqisi2	@ tmp148, pclk_div
 1568 0718 000053E3 		cmp	r3, #0	@ tmp148,
 1569 071c 0000001A 		bne	.L54	@,
 603:src/init.c    ****     {
 604:src/init.c    ****     	return;
 1570              		.loc 1 604 0
 1571 0720 360000EA 		b	.L45	@
 1572              	.L54:
 605:src/init.c    ****     }
 606:src/init.c    **** 
 607:src/init.c    ****     /* Calculate divsor latch value based on cclk and UART0's pclk divider
 608:src/init.c    ****      * We multiply by 2 to determine if it is odd or even
 609:src/init.c    ****      * If it is even, then there is no round bit
 610:src/init.c    ****      * If it is odd, then there is a round up
 611:src/init.c    ****      * Shift it back */
 612:src/init.c    ****     uart_divisor_latch = ( 2 * ( (cclk/pclk_div) / ( (baud) * 16) ) );
 1573              		.loc 1 612 0
 1574 0724 1E30DDE5 		ldrb	r3, [sp, #30]	@ zero_extendqisi2	@ D.5240, pclk_div
 1575 0728 04009DE5 		ldr	r0, [sp, #4]	@, cclk
 1576 072c 0310A0E1 		mov	r1, r3	@, D.5240
 1577 0730 FEFFFFEB 		bl	__aeabi_uidiv	@
 1578 0734 0030A0E1 		mov	r3, r0	@ tmp151,
 1579 0738 0320A0E1 		mov	r2, r3	@ D.5240, tmp151
 1580 073c 0C309DE5 		ldr	r3, [sp, #12]	@ tmp152, baud
 1581 0740 0332A0E1 		mov	r3, r3, asl #4	@ D.5240, tmp152,
 1582 0744 0200A0E1 		mov	r0, r2	@, D.5240
 1583 0748 0310A0E1 		mov	r1, r3	@, D.5240
 1584 074c FEFFFFEB 		bl	__aeabi_uidiv	@
 1585 0750 0030A0E1 		mov	r3, r0	@ tmp155,
 1586 0754 8330A0E1 		mov	r3, r3, asl #1	@ tmp156, D.5240,
 1587 0758 18308DE5 		str	r3, [sp, #24]	@ tmp156, uart_divisor_latch
 613:src/init.c    ****     udl_roundbit = ( (uart_divisor_latch & 0x1) == 0 ? 0 : 1 );
 1588              		.loc 1 613 0
 1589 075c 18309DE5 		ldr	r3, [sp, #24]	@ tmp157, uart_divisor_latch
 1590 0760 013003E2 		and	r3, r3, #1	@ D.5240, tmp157,
 1591 0764 000053E3 		cmp	r3, #0	@ D.5240,
 1592 0768 0030A003 		moveq	r3, #0	@, tmp159
 1593 076c 0130A013 		movne	r3, #1	@, tmp159
 1594 0770 FF3003E2 		and	r3, r3, #255	@ D.5242, tmp158,
 1595 0774 1730CDE5 		strb	r3, [sp, #23]	@ tmp160, udl_roundbit
 614:src/init.c    ****     uart_divisor_latch /= 2;
 1596              		.loc 1 614 0
 1597 0778 18309DE5 		ldr	r3, [sp, #24]	@ tmp162, uart_divisor_latch
 1598 077c A330A0E1 		mov	r3, r3, lsr #1	@ tmp161, tmp162,
 1599 0780 18308DE5 		str	r3, [sp, #24]	@ tmp161, uart_divisor_latch
 615:src/init.c    **** 
 616:src/init.c    ****     /* stop any transmissions */
 617:src/init.c    ****     P_UART0_REGS->TER = 0;
 1600              		.loc 1 617 0
 1601 0784 84309FE5 		ldr	r3, .L56+4	@ D.5243,
 1602 0788 0020A0E3 		mov	r2, #0	@ tmp163,
 1603 078c 3020C3E5 		strb	r2, [r3, #48]	@ tmp164, _30->TER
ARM GAS  /tmp/ccjXaC2Q.s 			page 40


 618:src/init.c    **** 
 619:src/init.c    ****     P_UART0_REGS->LCR = ULCR_DLAB_ENABLE;
 1604              		.loc 1 619 0
 1605 0790 78309FE5 		ldr	r3, .L56+4	@ D.5243,
 1606 0794 7F20E0E3 		mvn	r2, #127	@ tmp165,
 1607 0798 0C20C3E5 		strb	r2, [r3, #12]	@ tmp166, _31->LCR
 620:src/init.c    ****     P_UART0_REGS->DLL = (uint8_t) uart_divisor_latch + udl_roundbit;
 1608              		.loc 1 620 0
 1609 079c 6C309FE5 		ldr	r3, .L56+4	@ D.5243,
 1610 07a0 18209DE5 		ldr	r2, [sp, #24]	@ tmp167, uart_divisor_latch
 1611 07a4 FF1002E2 		and	r1, r2, #255	@ D.5241, tmp167,
 1612 07a8 1720DDE5 		ldrb	r2, [sp, #23]	@ tmp168, udl_roundbit
 1613 07ac 022081E0 		add	r2, r1, r2	@ tmp169, D.5241, tmp168
 1614 07b0 FF2002E2 		and	r2, r2, #255	@ D.5241, tmp169,
 1615 07b4 0020C3E5 		strb	r2, [r3]	@ tmp170, _32->D.4608.DLL
 621:src/init.c    ****     P_UART0_REGS->DLM = (uint8_t)(uart_divisor_latch >> 8);
 1616              		.loc 1 621 0
 1617 07b8 50309FE5 		ldr	r3, .L56+4	@ D.5243,
 1618 07bc 18209DE5 		ldr	r2, [sp, #24]	@ tmp171, uart_divisor_latch
 1619 07c0 2224A0E1 		mov	r2, r2, lsr #8	@ D.5240, tmp171,
 1620 07c4 FF2002E2 		and	r2, r2, #255	@ D.5241, D.5240,
 1621 07c8 0420C3E5 		strb	r2, [r3, #4]	@ tmp172, _35->D.4616.D.4614.DLM
 622:src/init.c    ****     P_UART0_REGS->LCR = (mode & ~ULCR_DLAB_ENABLE);
 1622              		.loc 1 622 0
 1623 07cc 3C309FE5 		ldr	r3, .L56+4	@ D.5243,
 1624 07d0 0B20DDE5 		ldrb	r2, [sp, #11]	@ tmp173, mode
 1625 07d4 7F2002E2 		and	r2, r2, #127	@ tmp174, tmp173,
 1626 07d8 FF2002E2 		and	r2, r2, #255	@ D.5241, tmp174,
 1627 07dc 0C20C3E5 		strb	r2, [r3, #12]	@ tmp175, _38->LCR
 623:src/init.c    **** 
 624:src/init.c    ****     /* Set FIFO modes and Reset */
 625:src/init.c    ****     P_UART0_REGS->FCR = fmode | UFCR_TXFIFO_RESET | UFCR_RXFIFO_RESET;
 1628              		.loc 1 625 0
 1629 07e0 28309FE5 		ldr	r3, .L56+4	@ D.5243,
 1630 07e4 0A20DDE5 		ldrb	r2, [sp, #10]	@ tmp176, fmode
 1631 07e8 062082E3 		orr	r2, r2, #6	@ tmp177, tmp176,
 1632 07ec FF2002E2 		and	r2, r2, #255	@ D.5241, tmp177,
 1633 07f0 0820C3E5 		strb	r2, [r3, #8]	@ tmp178, _41->D.4623.D.4622.FCR
 626:src/init.c    **** 
 627:src/init.c    ****     /* resume transmissions */
 628:src/init.c    ****     P_UART0_REGS->TER = UTER_TXEN;
 1634              		.loc 1 628 0
 1635 07f4 14309FE5 		ldr	r3, .L56+4	@ D.5243,
 1636 07f8 7F20E0E3 		mvn	r2, #127	@ tmp179,
 1637 07fc 3020C3E5 		strb	r2, [r3, #48]	@ tmp180, _44->TER
 1638              	.L45:
 629:src/init.c    **** }
 1639              		.loc 1 629 0
 1640 0800 24D08DE2 		add	sp, sp, #36	@,,
 1641              		@ sp needed	@
 1642 0804 04E09DE4 		ldr	lr, [sp], #4	@,
 1643 0808 1EFF2FE1 		bx	lr	@
 1644              	.L57:
 1645              		.align	2
 1646              	.L56:
 1647 080c 00C01FE0 		.word	-534790144
 1648 0810 00C000E0 		.word	-536821760
ARM GAS  /tmp/ccjXaC2Q.s 			page 41


 1649              		.cfi_endproc
 1650              	.LFE8:
 1651              		.size	initUART0, .-initUART0
 1652              		.align	2
 1653              		.type	VIC_Init, %function
 1654              	VIC_Init:
 1655              	.LFB9:
 630:src/init.c    **** 
 631:src/init.c    **** 
 632:src/init.c    **** /*
 633:src/init.c    **** ***************************************************************************************************
 634:src/init.c    **** *                                     VIC_Init()
 635:src/init.c    **** *
 636:src/init.c    **** * Description : Initialize the Vectored Interrupt Controller
 637:src/init.c    **** *
 638:src/init.c    **** * Argument(s) : none.
 639:src/init.c    **** *
 640:src/init.c    **** * Return(s)   : none.
 641:src/init.c    **** ***************************************************************************************************
 642:src/init.c    **** */
 643:src/init.c    **** 
 644:src/init.c    **** void VIC_Init(void)
 645:src/init.c    **** {
 1656              		.loc 1 645 0
 1657              		.cfi_startproc
 1658              		@ Function supports interworking.
 1659              		@ args = 0, pretend = 0, frame = 0
 1660              		@ frame_needed = 0, uses_anonymous_args = 0
 1661              		@ link register save eliminated.
 646:src/init.c    ****     WRITEREG32(VICINTENCLEAR, 0xFFFFFFFF);                      /* Disable ALL interrupts          
 1662              		.loc 1 646 0
 1663 0814 A0319FE5 		ldr	r3, .L59	@ D.5244,
 1664 0818 0020E0E3 		mvn	r2, #0	@ tmp177,
 1665 081c 002083E5 		str	r2, [r3]	@ tmp177, *_1
 647:src/init.c    ****     WRITEREG32(VICADDRESS, 0);                                  /* Acknowlege any pending VIC inter
 1666              		.loc 1 647 0
 1667 0820 FF30E0E3 		mvn	r3, #255	@ D.5244,
 1668 0824 0020A0E3 		mov	r2, #0	@ tmp178,
 1669 0828 002083E5 		str	r2, [r3]	@ tmp178, *_2
 648:src/init.c    ****     WRITEREG32(VICPROTECTION, 0);                               /* Allow VIC register access in Use
 1670              		.loc 1 648 0
 1671 082c 8C319FE5 		ldr	r3, .L59+4	@ D.5244,
 1672 0830 0020A0E3 		mov	r2, #0	@ tmp179,
 1673 0834 002083E5 		str	r2, [r3]	@ tmp179, *_3
 649:src/init.c    **** 
 650:src/init.c    ****     WRITEREG32(VICVECTADDR0, (INT32U)VIC_DummyWDT);         /* Set the vector address              
 1674              		.loc 1 650 0
 1675 0838 84319FE5 		ldr	r3, .L59+8	@ D.5244,
 1676 083c 84219FE5 		ldr	r2, .L59+12	@ VIC_DummyWDT.4,
 1677 0840 002083E5 		str	r2, [r3]	@ VIC_DummyWDT.4, *_4
 651:src/init.c    ****     WRITEREG32(VICVECTADDR1, (INT32U)VIC_DummySW);
 1678              		.loc 1 651 0
 1679 0844 80319FE5 		ldr	r3, .L59+16	@ D.5244,
 1680 0848 80219FE5 		ldr	r2, .L59+20	@ VIC_DummySW.5,
 1681 084c 002083E5 		str	r2, [r3]	@ VIC_DummySW.5, *_6
 652:src/init.c    ****     WRITEREG32(VICVECTADDR2, (INT32U)VIC_DummyDEBUGRX);
 1682              		.loc 1 652 0
ARM GAS  /tmp/ccjXaC2Q.s 			page 42


 1683 0850 7C319FE5 		ldr	r3, .L59+24	@ D.5244,
 1684 0854 7C219FE5 		ldr	r2, .L59+28	@ VIC_DummyDEBUGRX.6,
 1685 0858 002083E5 		str	r2, [r3]	@ VIC_DummyDEBUGRX.6, *_8
 653:src/init.c    ****     WRITEREG32(VICVECTADDR3, (INT32U)VIC_DummyDEBUGTX);
 1686              		.loc 1 653 0
 1687 085c 78319FE5 		ldr	r3, .L59+32	@ D.5244,
 1688 0860 78219FE5 		ldr	r2, .L59+36	@ VIC_DummyDEBUGTX.7,
 1689 0864 002083E5 		str	r2, [r3]	@ VIC_DummyDEBUGTX.7, *_10
 654:src/init.c    ****     WRITEREG32(VICVECTADDR4, (INT32U)VIC_DummyTIMER0);
 1690              		.loc 1 654 0
 1691 0868 74319FE5 		ldr	r3, .L59+40	@ D.5244,
 1692 086c 74219FE5 		ldr	r2, .L59+44	@ VIC_DummyTIMER0.8,
 1693 0870 002083E5 		str	r2, [r3]	@ VIC_DummyTIMER0.8, *_12
 655:src/init.c    ****     WRITEREG32(VICVECTADDR5, (INT32U)VIC_DummyTIMER1);
 1694              		.loc 1 655 0
 1695 0874 70319FE5 		ldr	r3, .L59+48	@ D.5244,
 1696 0878 70219FE5 		ldr	r2, .L59+52	@ VIC_DummyTIMER1.9,
 1697 087c 002083E5 		str	r2, [r3]	@ VIC_DummyTIMER1.9, *_14
 656:src/init.c    ****     WRITEREG32(VICVECTADDR6, (INT32U)VIC_DummyUART0);
 1698              		.loc 1 656 0
 1699 0880 6C319FE5 		ldr	r3, .L59+56	@ D.5244,
 1700 0884 6C219FE5 		ldr	r2, .L59+60	@ VIC_DummyUART0.10,
 1701 0888 002083E5 		str	r2, [r3]	@ VIC_DummyUART0.10, *_16
 657:src/init.c    ****     WRITEREG32(VICVECTADDR7, (INT32U)VIC_DummyUART1);
 1702              		.loc 1 657 0
 1703 088c 68319FE5 		ldr	r3, .L59+64	@ D.5244,
 1704 0890 68219FE5 		ldr	r2, .L59+68	@ VIC_DummyUART1.11,
 1705 0894 002083E5 		str	r2, [r3]	@ VIC_DummyUART1.11, *_18
 658:src/init.c    ****     WRITEREG32(VICVECTADDR8, (INT32U)VIC_DummyPWM01);
 1706              		.loc 1 658 0
 1707 0898 64319FE5 		ldr	r3, .L59+72	@ D.5244,
 1708 089c 64219FE5 		ldr	r2, .L59+76	@ VIC_DummyPWM01.12,
 1709 08a0 002083E5 		str	r2, [r3]	@ VIC_DummyPWM01.12, *_20
 659:src/init.c    ****     WRITEREG32(VICVECTADDR9, (INT32U)VIC_DummyI2C0);
 1710              		.loc 1 659 0
 1711 08a4 60319FE5 		ldr	r3, .L59+80	@ D.5244,
 1712 08a8 60219FE5 		ldr	r2, .L59+84	@ VIC_DummyI2C0.13,
 1713 08ac 002083E5 		str	r2, [r3]	@ VIC_DummyI2C0.13, *_22
 660:src/init.c    ****     WRITEREG32(VICVECTADDR10, (INT32U)VIC_DummySPI);
 1714              		.loc 1 660 0
 1715 08b0 5C319FE5 		ldr	r3, .L59+88	@ D.5244,
 1716 08b4 5C219FE5 		ldr	r2, .L59+92	@ VIC_DummySPI.14,
 1717 08b8 002083E5 		str	r2, [r3]	@ VIC_DummySPI.14, *_24
 661:src/init.c    ****     WRITEREG32(VICVECTADDR11, (INT32U)VIC_DummySSP1);
 1718              		.loc 1 661 0
 1719 08bc 58319FE5 		ldr	r3, .L59+96	@ D.5244,
 1720 08c0 58219FE5 		ldr	r2, .L59+100	@ VIC_DummySSP1.15,
 1721 08c4 002083E5 		str	r2, [r3]	@ VIC_DummySSP1.15, *_26
 662:src/init.c    ****     WRITEREG32(VICVECTADDR12, (INT32U)VIC_DummyPLL);
 1722              		.loc 1 662 0
 1723 08c8 54319FE5 		ldr	r3, .L59+104	@ D.5244,
 1724 08cc 54219FE5 		ldr	r2, .L59+108	@ VIC_DummyPLL.16,
 1725 08d0 002083E5 		str	r2, [r3]	@ VIC_DummyPLL.16, *_28
 663:src/init.c    ****     WRITEREG32(VICVECTADDR13, (INT32U)VIC_DummyRTC);
 1726              		.loc 1 663 0
 1727 08d4 50319FE5 		ldr	r3, .L59+112	@ D.5244,
 1728 08d8 50219FE5 		ldr	r2, .L59+116	@ VIC_DummyRTC.17,
ARM GAS  /tmp/ccjXaC2Q.s 			page 43


 1729 08dc 002083E5 		str	r2, [r3]	@ VIC_DummyRTC.17, *_30
 664:src/init.c    ****     WRITEREG32(VICVECTADDR14, (INT32U)VIC_DummyEINT0);
 1730              		.loc 1 664 0
 1731 08e0 4C319FE5 		ldr	r3, .L59+120	@ D.5244,
 1732 08e4 4C219FE5 		ldr	r2, .L59+124	@ VIC_DummyEINT0.18,
 1733 08e8 002083E5 		str	r2, [r3]	@ VIC_DummyEINT0.18, *_32
 665:src/init.c    ****     WRITEREG32(VICVECTADDR15, (INT32U)VIC_DummyEINT1);
 1734              		.loc 1 665 0
 1735 08ec 48319FE5 		ldr	r3, .L59+128	@ D.5244,
 1736 08f0 48219FE5 		ldr	r2, .L59+132	@ VIC_DummyEINT1.19,
 1737 08f4 002083E5 		str	r2, [r3]	@ VIC_DummyEINT1.19, *_34
 666:src/init.c    ****     WRITEREG32(VICVECTADDR16, (INT32U)VIC_DummyEINT2);
 1738              		.loc 1 666 0
 1739 08f8 44319FE5 		ldr	r3, .L59+136	@ D.5244,
 1740 08fc 44219FE5 		ldr	r2, .L59+140	@ VIC_DummyEINT2.20,
 1741 0900 002083E5 		str	r2, [r3]	@ VIC_DummyEINT2.20, *_36
 667:src/init.c    ****     WRITEREG32(VICVECTADDR17, (INT32U)VIC_DummyEINT3);
 1742              		.loc 1 667 0
 1743 0904 40319FE5 		ldr	r3, .L59+144	@ D.5244,
 1744 0908 40219FE5 		ldr	r2, .L59+148	@ VIC_DummyEINT3.21,
 1745 090c 002083E5 		str	r2, [r3]	@ VIC_DummyEINT3.21, *_38
 668:src/init.c    ****     WRITEREG32(VICVECTADDR18, (INT32U)VIC_DummyAD0);
 1746              		.loc 1 668 0
 1747 0910 3C319FE5 		ldr	r3, .L59+152	@ D.5244,
 1748 0914 3C219FE5 		ldr	r2, .L59+156	@ VIC_DummyAD0.22,
 1749 0918 002083E5 		str	r2, [r3]	@ VIC_DummyAD0.22, *_40
 669:src/init.c    ****     WRITEREG32(VICVECTADDR19, (INT32U)VIC_DummyI2C1);
 1750              		.loc 1 669 0
 1751 091c 38319FE5 		ldr	r3, .L59+160	@ D.5244,
 1752 0920 38219FE5 		ldr	r2, .L59+164	@ VIC_DummyI2C1.23,
 1753 0924 002083E5 		str	r2, [r3]	@ VIC_DummyI2C1.23, *_42
 670:src/init.c    ****     WRITEREG32(VICVECTADDR20, (INT32U)VIC_DummyBOD);
 1754              		.loc 1 670 0
 1755 0928 34319FE5 		ldr	r3, .L59+168	@ D.5244,
 1756 092c 34219FE5 		ldr	r2, .L59+172	@ VIC_DummyBOD.24,
 1757 0930 002083E5 		str	r2, [r3]	@ VIC_DummyBOD.24, *_44
 671:src/init.c    ****     WRITEREG32(VICVECTADDR21, (INT32U)VIC_DummyETHERNET);
 1758              		.loc 1 671 0
 1759 0934 30319FE5 		ldr	r3, .L59+176	@ D.5244,
 1760 0938 30219FE5 		ldr	r2, .L59+180	@ VIC_DummyETHERNET.25,
 1761 093c 002083E5 		str	r2, [r3]	@ VIC_DummyETHERNET.25, *_46
 672:src/init.c    ****     WRITEREG32(VICVECTADDR22, (INT32U)VIC_DummyUSB);
 1762              		.loc 1 672 0
 1763 0940 2C319FE5 		ldr	r3, .L59+184	@ D.5244,
 1764 0944 2C219FE5 		ldr	r2, .L59+188	@ VIC_DummyUSB.26,
 1765 0948 002083E5 		str	r2, [r3]	@ VIC_DummyUSB.26, *_48
 673:src/init.c    ****     WRITEREG32(VICVECTADDR23, (INT32U)VIC_DummyCAN01);
 1766              		.loc 1 673 0
 1767 094c 28319FE5 		ldr	r3, .L59+192	@ D.5244,
 1768 0950 28219FE5 		ldr	r2, .L59+196	@ VIC_DummyCAN01.27,
 1769 0954 002083E5 		str	r2, [r3]	@ VIC_DummyCAN01.27, *_50
 674:src/init.c    ****     WRITEREG32(VICVECTADDR24, (INT32U)VIC_DummyMMC);
 1770              		.loc 1 674 0
 1771 0958 24319FE5 		ldr	r3, .L59+200	@ D.5244,
 1772 095c 24219FE5 		ldr	r2, .L59+204	@ VIC_DummyMMC.28,
 1773 0960 002083E5 		str	r2, [r3]	@ VIC_DummyMMC.28, *_52
 675:src/init.c    ****     WRITEREG32(VICVECTADDR25, (INT32U)VIC_DummyGP_DMA);
ARM GAS  /tmp/ccjXaC2Q.s 			page 44


 1774              		.loc 1 675 0
 1775 0964 20319FE5 		ldr	r3, .L59+208	@ D.5244,
 1776 0968 20219FE5 		ldr	r2, .L59+212	@ VIC_DummyGP_DMA.29,
 1777 096c 002083E5 		str	r2, [r3]	@ VIC_DummyGP_DMA.29, *_54
 676:src/init.c    ****     WRITEREG32(VICVECTADDR26, (INT32U)VIC_DummyTIMER2);
 1778              		.loc 1 676 0
 1779 0970 1C319FE5 		ldr	r3, .L59+216	@ D.5244,
 1780 0974 1C219FE5 		ldr	r2, .L59+220	@ VIC_DummyTIMER2.30,
 1781 0978 002083E5 		str	r2, [r3]	@ VIC_DummyTIMER2.30, *_56
 677:src/init.c    ****     WRITEREG32(VICVECTADDR27, (INT32U)VIC_DummyTIMER3);
 1782              		.loc 1 677 0
 1783 097c 18319FE5 		ldr	r3, .L59+224	@ D.5244,
 1784 0980 18219FE5 		ldr	r2, .L59+228	@ VIC_DummyTIMER3.31,
 1785 0984 002083E5 		str	r2, [r3]	@ VIC_DummyTIMER3.31, *_58
 678:src/init.c    ****     WRITEREG32(VICVECTADDR28, (INT32U)VIC_DummyUART2);
 1786              		.loc 1 678 0
 1787 0988 14319FE5 		ldr	r3, .L59+232	@ D.5244,
 1788 098c 14219FE5 		ldr	r2, .L59+236	@ VIC_DummyUART2.32,
 1789 0990 002083E5 		str	r2, [r3]	@ VIC_DummyUART2.32, *_60
 679:src/init.c    ****     WRITEREG32(VICVECTADDR29, (INT32U)VIC_DummyUART3);
 1790              		.loc 1 679 0
 1791 0994 10319FE5 		ldr	r3, .L59+240	@ D.5244,
 1792 0998 10219FE5 		ldr	r2, .L59+244	@ VIC_DummyUART3.33,
 1793 099c 002083E5 		str	r2, [r3]	@ VIC_DummyUART3.33, *_62
 680:src/init.c    ****     WRITEREG32(VICVECTADDR30, (INT32U)VIC_DummyI2C2);
 1794              		.loc 1 680 0
 1795 09a0 0C319FE5 		ldr	r3, .L59+248	@ D.5244,
 1796 09a4 0C219FE5 		ldr	r2, .L59+252	@ VIC_DummyI2C2.34,
 1797 09a8 002083E5 		str	r2, [r3]	@ VIC_DummyI2C2.34, *_64
 681:src/init.c    ****     WRITEREG32(VICVECTADDR31, (INT32U)VIC_DummyI2S);
 1798              		.loc 1 681 0
 1799 09ac 08319FE5 		ldr	r3, .L59+256	@ D.5244,
 1800 09b0 08219FE5 		ldr	r2, .L59+260	@ VIC_DummyI2S.35,
 1801 09b4 002083E5 		str	r2, [r3]	@ VIC_DummyI2S.35, *_66
 682:src/init.c    **** }
 1802              		.loc 1 682 0
 1803 09b8 1EFF2FE1 		bx	lr	@
 1804              	.L60:
 1805              		.align	2
 1806              	.L59:
 1807 09bc 14F0FFFF 		.word	-4076
 1808 09c0 20F0FFFF 		.word	-4064
 1809 09c4 00F1FFFF 		.word	-3840
 1810 09c8 00000000 		.word	VIC_DummyWDT
 1811 09cc 04F1FFFF 		.word	-3836
 1812 09d0 00000000 		.word	VIC_DummySW
 1813 09d4 08F1FFFF 		.word	-3832
 1814 09d8 00000000 		.word	VIC_DummyDEBUGRX
 1815 09dc 0CF1FFFF 		.word	-3828
 1816 09e0 00000000 		.word	VIC_DummyDEBUGTX
 1817 09e4 10F1FFFF 		.word	-3824
 1818 09e8 00000000 		.word	VIC_DummyTIMER0
 1819 09ec 14F1FFFF 		.word	-3820
 1820 09f0 00000000 		.word	VIC_DummyTIMER1
 1821 09f4 18F1FFFF 		.word	-3816
 1822 09f8 00000000 		.word	VIC_DummyUART0
 1823 09fc 1CF1FFFF 		.word	-3812
ARM GAS  /tmp/ccjXaC2Q.s 			page 45


 1824 0a00 00000000 		.word	VIC_DummyUART1
 1825 0a04 20F1FFFF 		.word	-3808
 1826 0a08 00000000 		.word	VIC_DummyPWM01
 1827 0a0c 24F1FFFF 		.word	-3804
 1828 0a10 00000000 		.word	VIC_DummyI2C0
 1829 0a14 28F1FFFF 		.word	-3800
 1830 0a18 00000000 		.word	VIC_DummySPI
 1831 0a1c 2CF1FFFF 		.word	-3796
 1832 0a20 00000000 		.word	VIC_DummySSP1
 1833 0a24 30F1FFFF 		.word	-3792
 1834 0a28 00000000 		.word	VIC_DummyPLL
 1835 0a2c 34F1FFFF 		.word	-3788
 1836 0a30 00000000 		.word	VIC_DummyRTC
 1837 0a34 38F1FFFF 		.word	-3784
 1838 0a38 00000000 		.word	VIC_DummyEINT0
 1839 0a3c 3CF1FFFF 		.word	-3780
 1840 0a40 00000000 		.word	VIC_DummyEINT1
 1841 0a44 40F1FFFF 		.word	-3776
 1842 0a48 00000000 		.word	VIC_DummyEINT2
 1843 0a4c 44F1FFFF 		.word	-3772
 1844 0a50 00000000 		.word	VIC_DummyEINT3
 1845 0a54 48F1FFFF 		.word	-3768
 1846 0a58 00000000 		.word	VIC_DummyAD0
 1847 0a5c 4CF1FFFF 		.word	-3764
 1848 0a60 00000000 		.word	VIC_DummyI2C1
 1849 0a64 50F1FFFF 		.word	-3760
 1850 0a68 00000000 		.word	VIC_DummyBOD
 1851 0a6c 54F1FFFF 		.word	-3756
 1852 0a70 00000000 		.word	VIC_DummyETHERNET
 1853 0a74 58F1FFFF 		.word	-3752
 1854 0a78 00000000 		.word	VIC_DummyUSB
 1855 0a7c 5CF1FFFF 		.word	-3748
 1856 0a80 00000000 		.word	VIC_DummyCAN01
 1857 0a84 60F1FFFF 		.word	-3744
 1858 0a88 00000000 		.word	VIC_DummyMMC
 1859 0a8c 64F1FFFF 		.word	-3740
 1860 0a90 00000000 		.word	VIC_DummyGP_DMA
 1861 0a94 68F1FFFF 		.word	-3736
 1862 0a98 00000000 		.word	VIC_DummyTIMER2
 1863 0a9c 6CF1FFFF 		.word	-3732
 1864 0aa0 00000000 		.word	VIC_DummyTIMER3
 1865 0aa4 70F1FFFF 		.word	-3728
 1866 0aa8 00000000 		.word	VIC_DummyUART2
 1867 0aac 74F1FFFF 		.word	-3724
 1868 0ab0 00000000 		.word	VIC_DummyUART3
 1869 0ab4 78F1FFFF 		.word	-3720
 1870 0ab8 00000000 		.word	VIC_DummyI2C2
 1871 0abc 7CF1FFFF 		.word	-3716
 1872 0ac0 00000000 		.word	VIC_DummyI2S
 1873              		.cfi_endproc
 1874              	.LFE9:
 1875              		.size	VIC_Init, .-VIC_Init
 1876              		.align	2
 1877              		.type	VIC_Dummy, %function
 1878              	VIC_Dummy:
 1879              	.LFB10:
 683:src/init.c    **** 
ARM GAS  /tmp/ccjXaC2Q.s 			page 46


 684:src/init.c    **** 
 685:src/init.c    **** /*
 686:src/init.c    **** ***************************************************************************************************
 687:src/init.c    **** ***************************************************************************************************
 688:src/init.c    **** **                                       DUMMY INTERRUPT HANDLERS
 689:src/init.c    **** ***************************************************************************************************
 690:src/init.c    **** ***************************************************************************************************
 691:src/init.c    **** */
 692:src/init.c    **** 
 693:src/init.c    **** static  void  VIC_Dummy (void)
 694:src/init.c    **** {
 1880              		.loc 1 694 0
 1881              		.cfi_startproc
 1882              		@ Function supports interworking.
 1883              		@ args = 0, pretend = 0, frame = 0
 1884              		@ frame_needed = 0, uses_anonymous_args = 0
 1885              		@ link register save eliminated.
 1886              	.L62:
 695:src/init.c    ****     while (TRUE) {
 696:src/init.c    ****         ;
 697:src/init.c    ****     }
 1887              		.loc 1 697 0 discriminator 1
 1888 0ac4 FEFFFFEA 		b	.L62	@
 1889              		.cfi_endproc
 1890              	.LFE10:
 1891              		.size	VIC_Dummy, .-VIC_Dummy
 1892              		.align	2
 1893              		.type	VIC_DummyWDT, %function
 1894              	VIC_DummyWDT:
 1895              	.LFB11:
 698:src/init.c    **** }
 699:src/init.c    **** 
 700:src/init.c    **** static  void  VIC_DummyWDT (void)
 701:src/init.c    **** {
 1896              		.loc 1 701 0
 1897              		.cfi_startproc
 1898              		@ Function supports interworking.
 1899              		@ args = 0, pretend = 0, frame = 0
 1900              		@ frame_needed = 0, uses_anonymous_args = 0
 1901 0ac8 08402DE9 		stmfd	sp!, {r3, lr}	@,
 1902              	.LCFI12:
 1903              		.cfi_def_cfa_offset 8
 1904              		.cfi_offset 3, -8
 1905              		.cfi_offset 14, -4
 702:src/init.c    ****     VIC_SpuriousInt = VIC_WDT;
 1906              		.loc 1 702 0
 1907 0acc 10309FE5 		ldr	r3, .L64	@ tmp110,
 1908 0ad0 0020A0E3 		mov	r2, #0	@ tmp111,
 1909 0ad4 002083E5 		str	r2, [r3]	@ tmp111, VIC_SpuriousInt
 703:src/init.c    ****     VIC_Dummy();
 1910              		.loc 1 703 0
 1911 0ad8 F9FFFFEB 		bl	VIC_Dummy	@
 704:src/init.c    **** }
 1912              		.loc 1 704 0
 1913 0adc 0840BDE8 		ldmfd	sp!, {r3, lr}	@
 1914 0ae0 1EFF2FE1 		bx	lr	@
 1915              	.L65:
ARM GAS  /tmp/ccjXaC2Q.s 			page 47


 1916              		.align	2
 1917              	.L64:
 1918 0ae4 00000000 		.word	VIC_SpuriousInt
 1919              		.cfi_endproc
 1920              	.LFE11:
 1921              		.size	VIC_DummyWDT, .-VIC_DummyWDT
 1922              		.align	2
 1923              		.type	VIC_DummySW, %function
 1924              	VIC_DummySW:
 1925              	.LFB12:
 705:src/init.c    **** 
 706:src/init.c    **** static  void  VIC_DummySW (void)
 707:src/init.c    **** {
 1926              		.loc 1 707 0
 1927              		.cfi_startproc
 1928              		@ Function supports interworking.
 1929              		@ args = 0, pretend = 0, frame = 0
 1930              		@ frame_needed = 0, uses_anonymous_args = 0
 1931 0ae8 08402DE9 		stmfd	sp!, {r3, lr}	@,
 1932              	.LCFI13:
 1933              		.cfi_def_cfa_offset 8
 1934              		.cfi_offset 3, -8
 1935              		.cfi_offset 14, -4
 708:src/init.c    ****     VIC_SpuriousInt = VIC_SW;
 1936              		.loc 1 708 0
 1937 0aec 10309FE5 		ldr	r3, .L67	@ tmp110,
 1938 0af0 0120A0E3 		mov	r2, #1	@ tmp111,
 1939 0af4 002083E5 		str	r2, [r3]	@ tmp111, VIC_SpuriousInt
 709:src/init.c    ****     VIC_Dummy();
 1940              		.loc 1 709 0
 1941 0af8 F1FFFFEB 		bl	VIC_Dummy	@
 710:src/init.c    **** }
 1942              		.loc 1 710 0
 1943 0afc 0840BDE8 		ldmfd	sp!, {r3, lr}	@
 1944 0b00 1EFF2FE1 		bx	lr	@
 1945              	.L68:
 1946              		.align	2
 1947              	.L67:
 1948 0b04 00000000 		.word	VIC_SpuriousInt
 1949              		.cfi_endproc
 1950              	.LFE12:
 1951              		.size	VIC_DummySW, .-VIC_DummySW
 1952              		.align	2
 1953              		.type	VIC_DummyDEBUGRX, %function
 1954              	VIC_DummyDEBUGRX:
 1955              	.LFB13:
 711:src/init.c    **** 
 712:src/init.c    **** static  void  VIC_DummyDEBUGRX (void)
 713:src/init.c    **** {
 1956              		.loc 1 713 0
 1957              		.cfi_startproc
 1958              		@ Function supports interworking.
 1959              		@ args = 0, pretend = 0, frame = 0
 1960              		@ frame_needed = 0, uses_anonymous_args = 0
 1961 0b08 08402DE9 		stmfd	sp!, {r3, lr}	@,
 1962              	.LCFI14:
 1963              		.cfi_def_cfa_offset 8
ARM GAS  /tmp/ccjXaC2Q.s 			page 48


 1964              		.cfi_offset 3, -8
 1965              		.cfi_offset 14, -4
 714:src/init.c    ****     VIC_SpuriousInt = VIC_DEBUGRX;
 1966              		.loc 1 714 0
 1967 0b0c 10309FE5 		ldr	r3, .L70	@ tmp110,
 1968 0b10 0220A0E3 		mov	r2, #2	@ tmp111,
 1969 0b14 002083E5 		str	r2, [r3]	@ tmp111, VIC_SpuriousInt
 715:src/init.c    ****     VIC_Dummy();
 1970              		.loc 1 715 0
 1971 0b18 E9FFFFEB 		bl	VIC_Dummy	@
 716:src/init.c    **** }
 1972              		.loc 1 716 0
 1973 0b1c 0840BDE8 		ldmfd	sp!, {r3, lr}	@
 1974 0b20 1EFF2FE1 		bx	lr	@
 1975              	.L71:
 1976              		.align	2
 1977              	.L70:
 1978 0b24 00000000 		.word	VIC_SpuriousInt
 1979              		.cfi_endproc
 1980              	.LFE13:
 1981              		.size	VIC_DummyDEBUGRX, .-VIC_DummyDEBUGRX
 1982              		.align	2
 1983              		.type	VIC_DummyDEBUGTX, %function
 1984              	VIC_DummyDEBUGTX:
 1985              	.LFB14:
 717:src/init.c    **** 
 718:src/init.c    **** static  void  VIC_DummyDEBUGTX (void)
 719:src/init.c    **** {
 1986              		.loc 1 719 0
 1987              		.cfi_startproc
 1988              		@ Function supports interworking.
 1989              		@ args = 0, pretend = 0, frame = 0
 1990              		@ frame_needed = 0, uses_anonymous_args = 0
 1991 0b28 08402DE9 		stmfd	sp!, {r3, lr}	@,
 1992              	.LCFI15:
 1993              		.cfi_def_cfa_offset 8
 1994              		.cfi_offset 3, -8
 1995              		.cfi_offset 14, -4
 720:src/init.c    ****     VIC_SpuriousInt = VIC_DEBUGTX;
 1996              		.loc 1 720 0
 1997 0b2c 10309FE5 		ldr	r3, .L73	@ tmp110,
 1998 0b30 0320A0E3 		mov	r2, #3	@ tmp111,
 1999 0b34 002083E5 		str	r2, [r3]	@ tmp111, VIC_SpuriousInt
 721:src/init.c    ****     VIC_Dummy();
 2000              		.loc 1 721 0
 2001 0b38 E1FFFFEB 		bl	VIC_Dummy	@
 722:src/init.c    **** }
 2002              		.loc 1 722 0
 2003 0b3c 0840BDE8 		ldmfd	sp!, {r3, lr}	@
 2004 0b40 1EFF2FE1 		bx	lr	@
 2005              	.L74:
 2006              		.align	2
 2007              	.L73:
 2008 0b44 00000000 		.word	VIC_SpuriousInt
 2009              		.cfi_endproc
 2010              	.LFE14:
 2011              		.size	VIC_DummyDEBUGTX, .-VIC_DummyDEBUGTX
ARM GAS  /tmp/ccjXaC2Q.s 			page 49


 2012              		.align	2
 2013              		.type	VIC_DummyTIMER0, %function
 2014              	VIC_DummyTIMER0:
 2015              	.LFB15:
 723:src/init.c    **** 
 724:src/init.c    **** static  void  VIC_DummyTIMER0 (void)
 725:src/init.c    **** {
 2016              		.loc 1 725 0
 2017              		.cfi_startproc
 2018              		@ Function supports interworking.
 2019              		@ args = 0, pretend = 0, frame = 0
 2020              		@ frame_needed = 0, uses_anonymous_args = 0
 2021 0b48 08402DE9 		stmfd	sp!, {r3, lr}	@,
 2022              	.LCFI16:
 2023              		.cfi_def_cfa_offset 8
 2024              		.cfi_offset 3, -8
 2025              		.cfi_offset 14, -4
 726:src/init.c    ****     VIC_SpuriousInt = VIC_TIMER0;
 2026              		.loc 1 726 0
 2027 0b4c 10309FE5 		ldr	r3, .L76	@ tmp110,
 2028 0b50 0420A0E3 		mov	r2, #4	@ tmp111,
 2029 0b54 002083E5 		str	r2, [r3]	@ tmp111, VIC_SpuriousInt
 727:src/init.c    ****     VIC_Dummy();
 2030              		.loc 1 727 0
 2031 0b58 D9FFFFEB 		bl	VIC_Dummy	@
 728:src/init.c    **** }
 2032              		.loc 1 728 0
 2033 0b5c 0840BDE8 		ldmfd	sp!, {r3, lr}	@
 2034 0b60 1EFF2FE1 		bx	lr	@
 2035              	.L77:
 2036              		.align	2
 2037              	.L76:
 2038 0b64 00000000 		.word	VIC_SpuriousInt
 2039              		.cfi_endproc
 2040              	.LFE15:
 2041              		.size	VIC_DummyTIMER0, .-VIC_DummyTIMER0
 2042              		.align	2
 2043              		.type	VIC_DummyTIMER1, %function
 2044              	VIC_DummyTIMER1:
 2045              	.LFB16:
 729:src/init.c    **** 
 730:src/init.c    **** static  void  VIC_DummyTIMER1 (void)
 731:src/init.c    **** {
 2046              		.loc 1 731 0
 2047              		.cfi_startproc
 2048              		@ Function supports interworking.
 2049              		@ args = 0, pretend = 0, frame = 0
 2050              		@ frame_needed = 0, uses_anonymous_args = 0
 2051 0b68 08402DE9 		stmfd	sp!, {r3, lr}	@,
 2052              	.LCFI17:
 2053              		.cfi_def_cfa_offset 8
 2054              		.cfi_offset 3, -8
 2055              		.cfi_offset 14, -4
 732:src/init.c    ****     VIC_SpuriousInt = VIC_TIMER1;
 2056              		.loc 1 732 0
 2057 0b6c 10309FE5 		ldr	r3, .L79	@ tmp110,
 2058 0b70 0520A0E3 		mov	r2, #5	@ tmp111,
ARM GAS  /tmp/ccjXaC2Q.s 			page 50


 2059 0b74 002083E5 		str	r2, [r3]	@ tmp111, VIC_SpuriousInt
 733:src/init.c    ****     VIC_Dummy();
 2060              		.loc 1 733 0
 2061 0b78 D1FFFFEB 		bl	VIC_Dummy	@
 734:src/init.c    **** }
 2062              		.loc 1 734 0
 2063 0b7c 0840BDE8 		ldmfd	sp!, {r3, lr}	@
 2064 0b80 1EFF2FE1 		bx	lr	@
 2065              	.L80:
 2066              		.align	2
 2067              	.L79:
 2068 0b84 00000000 		.word	VIC_SpuriousInt
 2069              		.cfi_endproc
 2070              	.LFE16:
 2071              		.size	VIC_DummyTIMER1, .-VIC_DummyTIMER1
 2072              		.align	2
 2073              		.type	VIC_DummyUART0, %function
 2074              	VIC_DummyUART0:
 2075              	.LFB17:
 735:src/init.c    **** 
 736:src/init.c    **** static  void  VIC_DummyUART0 (void)
 737:src/init.c    **** {
 2076              		.loc 1 737 0
 2077              		.cfi_startproc
 2078              		@ Function supports interworking.
 2079              		@ args = 0, pretend = 0, frame = 0
 2080              		@ frame_needed = 0, uses_anonymous_args = 0
 2081 0b88 08402DE9 		stmfd	sp!, {r3, lr}	@,
 2082              	.LCFI18:
 2083              		.cfi_def_cfa_offset 8
 2084              		.cfi_offset 3, -8
 2085              		.cfi_offset 14, -4
 738:src/init.c    ****     VIC_SpuriousInt = VIC_UART0;
 2086              		.loc 1 738 0
 2087 0b8c 10309FE5 		ldr	r3, .L82	@ tmp110,
 2088 0b90 0620A0E3 		mov	r2, #6	@ tmp111,
 2089 0b94 002083E5 		str	r2, [r3]	@ tmp111, VIC_SpuriousInt
 739:src/init.c    ****     VIC_Dummy();
 2090              		.loc 1 739 0
 2091 0b98 C9FFFFEB 		bl	VIC_Dummy	@
 740:src/init.c    **** }
 2092              		.loc 1 740 0
 2093 0b9c 0840BDE8 		ldmfd	sp!, {r3, lr}	@
 2094 0ba0 1EFF2FE1 		bx	lr	@
 2095              	.L83:
 2096              		.align	2
 2097              	.L82:
 2098 0ba4 00000000 		.word	VIC_SpuriousInt
 2099              		.cfi_endproc
 2100              	.LFE17:
 2101              		.size	VIC_DummyUART0, .-VIC_DummyUART0
 2102              		.align	2
 2103              		.type	VIC_DummyUART1, %function
 2104              	VIC_DummyUART1:
 2105              	.LFB18:
 741:src/init.c    **** 
 742:src/init.c    **** static  void  VIC_DummyUART1 (void)
ARM GAS  /tmp/ccjXaC2Q.s 			page 51


 743:src/init.c    **** {
 2106              		.loc 1 743 0
 2107              		.cfi_startproc
 2108              		@ Function supports interworking.
 2109              		@ args = 0, pretend = 0, frame = 0
 2110              		@ frame_needed = 0, uses_anonymous_args = 0
 2111 0ba8 08402DE9 		stmfd	sp!, {r3, lr}	@,
 2112              	.LCFI19:
 2113              		.cfi_def_cfa_offset 8
 2114              		.cfi_offset 3, -8
 2115              		.cfi_offset 14, -4
 744:src/init.c    ****     VIC_SpuriousInt = VIC_UART1;
 2116              		.loc 1 744 0
 2117 0bac 10309FE5 		ldr	r3, .L85	@ tmp110,
 2118 0bb0 0720A0E3 		mov	r2, #7	@ tmp111,
 2119 0bb4 002083E5 		str	r2, [r3]	@ tmp111, VIC_SpuriousInt
 745:src/init.c    ****     VIC_Dummy();
 2120              		.loc 1 745 0
 2121 0bb8 C1FFFFEB 		bl	VIC_Dummy	@
 746:src/init.c    **** }
 2122              		.loc 1 746 0
 2123 0bbc 0840BDE8 		ldmfd	sp!, {r3, lr}	@
 2124 0bc0 1EFF2FE1 		bx	lr	@
 2125              	.L86:
 2126              		.align	2
 2127              	.L85:
 2128 0bc4 00000000 		.word	VIC_SpuriousInt
 2129              		.cfi_endproc
 2130              	.LFE18:
 2131              		.size	VIC_DummyUART1, .-VIC_DummyUART1
 2132              		.align	2
 2133              		.type	VIC_DummyPWM01, %function
 2134              	VIC_DummyPWM01:
 2135              	.LFB19:
 747:src/init.c    **** 
 748:src/init.c    **** static  void  VIC_DummyPWM01 (void)
 749:src/init.c    **** {
 2136              		.loc 1 749 0
 2137              		.cfi_startproc
 2138              		@ Function supports interworking.
 2139              		@ args = 0, pretend = 0, frame = 0
 2140              		@ frame_needed = 0, uses_anonymous_args = 0
 2141 0bc8 08402DE9 		stmfd	sp!, {r3, lr}	@,
 2142              	.LCFI20:
 2143              		.cfi_def_cfa_offset 8
 2144              		.cfi_offset 3, -8
 2145              		.cfi_offset 14, -4
 750:src/init.c    ****     VIC_SpuriousInt = VIC_PWM01;
 2146              		.loc 1 750 0
 2147 0bcc 10309FE5 		ldr	r3, .L88	@ tmp110,
 2148 0bd0 0820A0E3 		mov	r2, #8	@ tmp111,
 2149 0bd4 002083E5 		str	r2, [r3]	@ tmp111, VIC_SpuriousInt
 751:src/init.c    ****     VIC_Dummy();
 2150              		.loc 1 751 0
 2151 0bd8 B9FFFFEB 		bl	VIC_Dummy	@
 752:src/init.c    **** }
 2152              		.loc 1 752 0
ARM GAS  /tmp/ccjXaC2Q.s 			page 52


 2153 0bdc 0840BDE8 		ldmfd	sp!, {r3, lr}	@
 2154 0be0 1EFF2FE1 		bx	lr	@
 2155              	.L89:
 2156              		.align	2
 2157              	.L88:
 2158 0be4 00000000 		.word	VIC_SpuriousInt
 2159              		.cfi_endproc
 2160              	.LFE19:
 2161              		.size	VIC_DummyPWM01, .-VIC_DummyPWM01
 2162              		.align	2
 2163              		.type	VIC_DummyI2C0, %function
 2164              	VIC_DummyI2C0:
 2165              	.LFB20:
 753:src/init.c    **** 
 754:src/init.c    **** static  void  VIC_DummyI2C0 (void)
 755:src/init.c    **** {
 2166              		.loc 1 755 0
 2167              		.cfi_startproc
 2168              		@ Function supports interworking.
 2169              		@ args = 0, pretend = 0, frame = 0
 2170              		@ frame_needed = 0, uses_anonymous_args = 0
 2171 0be8 08402DE9 		stmfd	sp!, {r3, lr}	@,
 2172              	.LCFI21:
 2173              		.cfi_def_cfa_offset 8
 2174              		.cfi_offset 3, -8
 2175              		.cfi_offset 14, -4
 756:src/init.c    ****     VIC_SpuriousInt = VIC_I2C0;
 2176              		.loc 1 756 0
 2177 0bec 10309FE5 		ldr	r3, .L91	@ tmp110,
 2178 0bf0 0920A0E3 		mov	r2, #9	@ tmp111,
 2179 0bf4 002083E5 		str	r2, [r3]	@ tmp111, VIC_SpuriousInt
 757:src/init.c    ****     VIC_Dummy();
 2180              		.loc 1 757 0
 2181 0bf8 B1FFFFEB 		bl	VIC_Dummy	@
 758:src/init.c    **** }
 2182              		.loc 1 758 0
 2183 0bfc 0840BDE8 		ldmfd	sp!, {r3, lr}	@
 2184 0c00 1EFF2FE1 		bx	lr	@
 2185              	.L92:
 2186              		.align	2
 2187              	.L91:
 2188 0c04 00000000 		.word	VIC_SpuriousInt
 2189              		.cfi_endproc
 2190              	.LFE20:
 2191              		.size	VIC_DummyI2C0, .-VIC_DummyI2C0
 2192              		.align	2
 2193              		.type	VIC_DummySPI, %function
 2194              	VIC_DummySPI:
 2195              	.LFB21:
 759:src/init.c    **** 
 760:src/init.c    **** static  void  VIC_DummySPI (void)
 761:src/init.c    **** {
 2196              		.loc 1 761 0
 2197              		.cfi_startproc
 2198              		@ Function supports interworking.
 2199              		@ args = 0, pretend = 0, frame = 0
 2200              		@ frame_needed = 0, uses_anonymous_args = 0
ARM GAS  /tmp/ccjXaC2Q.s 			page 53


 2201 0c08 08402DE9 		stmfd	sp!, {r3, lr}	@,
 2202              	.LCFI22:
 2203              		.cfi_def_cfa_offset 8
 2204              		.cfi_offset 3, -8
 2205              		.cfi_offset 14, -4
 762:src/init.c    ****     VIC_SpuriousInt = VIC_SPI;
 2206              		.loc 1 762 0
 2207 0c0c 10309FE5 		ldr	r3, .L94	@ tmp110,
 2208 0c10 0A20A0E3 		mov	r2, #10	@ tmp111,
 2209 0c14 002083E5 		str	r2, [r3]	@ tmp111, VIC_SpuriousInt
 763:src/init.c    ****     VIC_Dummy();
 2210              		.loc 1 763 0
 2211 0c18 A9FFFFEB 		bl	VIC_Dummy	@
 764:src/init.c    **** }
 2212              		.loc 1 764 0
 2213 0c1c 0840BDE8 		ldmfd	sp!, {r3, lr}	@
 2214 0c20 1EFF2FE1 		bx	lr	@
 2215              	.L95:
 2216              		.align	2
 2217              	.L94:
 2218 0c24 00000000 		.word	VIC_SpuriousInt
 2219              		.cfi_endproc
 2220              	.LFE21:
 2221              		.size	VIC_DummySPI, .-VIC_DummySPI
 2222              		.align	2
 2223              		.type	VIC_DummySSP1, %function
 2224              	VIC_DummySSP1:
 2225              	.LFB22:
 765:src/init.c    **** 
 766:src/init.c    **** static  void  VIC_DummySSP1 (void)
 767:src/init.c    **** {
 2226              		.loc 1 767 0
 2227              		.cfi_startproc
 2228              		@ Function supports interworking.
 2229              		@ args = 0, pretend = 0, frame = 0
 2230              		@ frame_needed = 0, uses_anonymous_args = 0
 2231 0c28 08402DE9 		stmfd	sp!, {r3, lr}	@,
 2232              	.LCFI23:
 2233              		.cfi_def_cfa_offset 8
 2234              		.cfi_offset 3, -8
 2235              		.cfi_offset 14, -4
 768:src/init.c    ****     VIC_SpuriousInt = VIC_SSP1;
 2236              		.loc 1 768 0
 2237 0c2c 10309FE5 		ldr	r3, .L97	@ tmp110,
 2238 0c30 0B20A0E3 		mov	r2, #11	@ tmp111,
 2239 0c34 002083E5 		str	r2, [r3]	@ tmp111, VIC_SpuriousInt
 769:src/init.c    ****     VIC_Dummy();
 2240              		.loc 1 769 0
 2241 0c38 A1FFFFEB 		bl	VIC_Dummy	@
 770:src/init.c    **** }
 2242              		.loc 1 770 0
 2243 0c3c 0840BDE8 		ldmfd	sp!, {r3, lr}	@
 2244 0c40 1EFF2FE1 		bx	lr	@
 2245              	.L98:
 2246              		.align	2
 2247              	.L97:
 2248 0c44 00000000 		.word	VIC_SpuriousInt
ARM GAS  /tmp/ccjXaC2Q.s 			page 54


 2249              		.cfi_endproc
 2250              	.LFE22:
 2251              		.size	VIC_DummySSP1, .-VIC_DummySSP1
 2252              		.align	2
 2253              		.type	VIC_DummyPLL, %function
 2254              	VIC_DummyPLL:
 2255              	.LFB23:
 771:src/init.c    **** 
 772:src/init.c    **** static  void  VIC_DummyPLL (void)
 773:src/init.c    **** {
 2256              		.loc 1 773 0
 2257              		.cfi_startproc
 2258              		@ Function supports interworking.
 2259              		@ args = 0, pretend = 0, frame = 0
 2260              		@ frame_needed = 0, uses_anonymous_args = 0
 2261 0c48 08402DE9 		stmfd	sp!, {r3, lr}	@,
 2262              	.LCFI24:
 2263              		.cfi_def_cfa_offset 8
 2264              		.cfi_offset 3, -8
 2265              		.cfi_offset 14, -4
 774:src/init.c    ****     VIC_SpuriousInt = VIC_PLL;
 2266              		.loc 1 774 0
 2267 0c4c 10309FE5 		ldr	r3, .L100	@ tmp110,
 2268 0c50 0C20A0E3 		mov	r2, #12	@ tmp111,
 2269 0c54 002083E5 		str	r2, [r3]	@ tmp111, VIC_SpuriousInt
 775:src/init.c    ****     VIC_Dummy();
 2270              		.loc 1 775 0
 2271 0c58 99FFFFEB 		bl	VIC_Dummy	@
 776:src/init.c    **** }
 2272              		.loc 1 776 0
 2273 0c5c 0840BDE8 		ldmfd	sp!, {r3, lr}	@
 2274 0c60 1EFF2FE1 		bx	lr	@
 2275              	.L101:
 2276              		.align	2
 2277              	.L100:
 2278 0c64 00000000 		.word	VIC_SpuriousInt
 2279              		.cfi_endproc
 2280              	.LFE23:
 2281              		.size	VIC_DummyPLL, .-VIC_DummyPLL
 2282              		.align	2
 2283              		.type	VIC_DummyRTC, %function
 2284              	VIC_DummyRTC:
 2285              	.LFB24:
 777:src/init.c    **** 
 778:src/init.c    **** static  void  VIC_DummyRTC (void)
 779:src/init.c    **** {
 2286              		.loc 1 779 0
 2287              		.cfi_startproc
 2288              		@ Function supports interworking.
 2289              		@ args = 0, pretend = 0, frame = 0
 2290              		@ frame_needed = 0, uses_anonymous_args = 0
 2291 0c68 08402DE9 		stmfd	sp!, {r3, lr}	@,
 2292              	.LCFI25:
 2293              		.cfi_def_cfa_offset 8
 2294              		.cfi_offset 3, -8
 2295              		.cfi_offset 14, -4
 780:src/init.c    ****     VIC_SpuriousInt = VIC_RTC;
ARM GAS  /tmp/ccjXaC2Q.s 			page 55


 2296              		.loc 1 780 0
 2297 0c6c 10309FE5 		ldr	r3, .L103	@ tmp110,
 2298 0c70 0D20A0E3 		mov	r2, #13	@ tmp111,
 2299 0c74 002083E5 		str	r2, [r3]	@ tmp111, VIC_SpuriousInt
 781:src/init.c    ****     VIC_Dummy();
 2300              		.loc 1 781 0
 2301 0c78 91FFFFEB 		bl	VIC_Dummy	@
 782:src/init.c    **** }
 2302              		.loc 1 782 0
 2303 0c7c 0840BDE8 		ldmfd	sp!, {r3, lr}	@
 2304 0c80 1EFF2FE1 		bx	lr	@
 2305              	.L104:
 2306              		.align	2
 2307              	.L103:
 2308 0c84 00000000 		.word	VIC_SpuriousInt
 2309              		.cfi_endproc
 2310              	.LFE24:
 2311              		.size	VIC_DummyRTC, .-VIC_DummyRTC
 2312              		.align	2
 2313              		.type	VIC_DummyEINT0, %function
 2314              	VIC_DummyEINT0:
 2315              	.LFB25:
 783:src/init.c    **** 
 784:src/init.c    **** static  void  VIC_DummyEINT0 (void)
 785:src/init.c    **** {
 2316              		.loc 1 785 0
 2317              		.cfi_startproc
 2318              		@ Function supports interworking.
 2319              		@ args = 0, pretend = 0, frame = 0
 2320              		@ frame_needed = 0, uses_anonymous_args = 0
 2321 0c88 08402DE9 		stmfd	sp!, {r3, lr}	@,
 2322              	.LCFI26:
 2323              		.cfi_def_cfa_offset 8
 2324              		.cfi_offset 3, -8
 2325              		.cfi_offset 14, -4
 786:src/init.c    ****     VIC_SpuriousInt = VIC_EINT0;
 2326              		.loc 1 786 0
 2327 0c8c 10309FE5 		ldr	r3, .L106	@ tmp110,
 2328 0c90 0E20A0E3 		mov	r2, #14	@ tmp111,
 2329 0c94 002083E5 		str	r2, [r3]	@ tmp111, VIC_SpuriousInt
 787:src/init.c    ****     VIC_Dummy();
 2330              		.loc 1 787 0
 2331 0c98 89FFFFEB 		bl	VIC_Dummy	@
 788:src/init.c    **** }
 2332              		.loc 1 788 0
 2333 0c9c 0840BDE8 		ldmfd	sp!, {r3, lr}	@
 2334 0ca0 1EFF2FE1 		bx	lr	@
 2335              	.L107:
 2336              		.align	2
 2337              	.L106:
 2338 0ca4 00000000 		.word	VIC_SpuriousInt
 2339              		.cfi_endproc
 2340              	.LFE25:
 2341              		.size	VIC_DummyEINT0, .-VIC_DummyEINT0
 2342              		.align	2
 2343              		.type	VIC_DummyEINT1, %function
 2344              	VIC_DummyEINT1:
ARM GAS  /tmp/ccjXaC2Q.s 			page 56


 2345              	.LFB26:
 789:src/init.c    **** 
 790:src/init.c    **** static  void  VIC_DummyEINT1 (void)
 791:src/init.c    **** {
 2346              		.loc 1 791 0
 2347              		.cfi_startproc
 2348              		@ Function supports interworking.
 2349              		@ args = 0, pretend = 0, frame = 0
 2350              		@ frame_needed = 0, uses_anonymous_args = 0
 2351 0ca8 08402DE9 		stmfd	sp!, {r3, lr}	@,
 2352              	.LCFI27:
 2353              		.cfi_def_cfa_offset 8
 2354              		.cfi_offset 3, -8
 2355              		.cfi_offset 14, -4
 792:src/init.c    ****     VIC_SpuriousInt = VIC_EINT1;
 2356              		.loc 1 792 0
 2357 0cac 10309FE5 		ldr	r3, .L109	@ tmp110,
 2358 0cb0 0F20A0E3 		mov	r2, #15	@ tmp111,
 2359 0cb4 002083E5 		str	r2, [r3]	@ tmp111, VIC_SpuriousInt
 793:src/init.c    ****     VIC_Dummy();
 2360              		.loc 1 793 0
 2361 0cb8 81FFFFEB 		bl	VIC_Dummy	@
 794:src/init.c    **** }
 2362              		.loc 1 794 0
 2363 0cbc 0840BDE8 		ldmfd	sp!, {r3, lr}	@
 2364 0cc0 1EFF2FE1 		bx	lr	@
 2365              	.L110:
 2366              		.align	2
 2367              	.L109:
 2368 0cc4 00000000 		.word	VIC_SpuriousInt
 2369              		.cfi_endproc
 2370              	.LFE26:
 2371              		.size	VIC_DummyEINT1, .-VIC_DummyEINT1
 2372              		.align	2
 2373              		.type	VIC_DummyEINT2, %function
 2374              	VIC_DummyEINT2:
 2375              	.LFB27:
 795:src/init.c    **** 
 796:src/init.c    **** static  void  VIC_DummyEINT2 (void)
 797:src/init.c    **** {
 2376              		.loc 1 797 0
 2377              		.cfi_startproc
 2378              		@ Function supports interworking.
 2379              		@ args = 0, pretend = 0, frame = 0
 2380              		@ frame_needed = 0, uses_anonymous_args = 0
 2381 0cc8 08402DE9 		stmfd	sp!, {r3, lr}	@,
 2382              	.LCFI28:
 2383              		.cfi_def_cfa_offset 8
 2384              		.cfi_offset 3, -8
 2385              		.cfi_offset 14, -4
 798:src/init.c    ****     VIC_SpuriousInt = VIC_EINT2;
 2386              		.loc 1 798 0
 2387 0ccc 10309FE5 		ldr	r3, .L112	@ tmp110,
 2388 0cd0 1020A0E3 		mov	r2, #16	@ tmp111,
 2389 0cd4 002083E5 		str	r2, [r3]	@ tmp111, VIC_SpuriousInt
 799:src/init.c    ****     VIC_Dummy();
 2390              		.loc 1 799 0
ARM GAS  /tmp/ccjXaC2Q.s 			page 57


 2391 0cd8 79FFFFEB 		bl	VIC_Dummy	@
 800:src/init.c    **** }
 2392              		.loc 1 800 0
 2393 0cdc 0840BDE8 		ldmfd	sp!, {r3, lr}	@
 2394 0ce0 1EFF2FE1 		bx	lr	@
 2395              	.L113:
 2396              		.align	2
 2397              	.L112:
 2398 0ce4 00000000 		.word	VIC_SpuriousInt
 2399              		.cfi_endproc
 2400              	.LFE27:
 2401              		.size	VIC_DummyEINT2, .-VIC_DummyEINT2
 2402              		.align	2
 2403              		.type	VIC_DummyEINT3, %function
 2404              	VIC_DummyEINT3:
 2405              	.LFB28:
 801:src/init.c    **** 
 802:src/init.c    **** static  void  VIC_DummyEINT3 (void)
 803:src/init.c    **** {
 2406              		.loc 1 803 0
 2407              		.cfi_startproc
 2408              		@ Function supports interworking.
 2409              		@ args = 0, pretend = 0, frame = 0
 2410              		@ frame_needed = 0, uses_anonymous_args = 0
 2411 0ce8 08402DE9 		stmfd	sp!, {r3, lr}	@,
 2412              	.LCFI29:
 2413              		.cfi_def_cfa_offset 8
 2414              		.cfi_offset 3, -8
 2415              		.cfi_offset 14, -4
 804:src/init.c    ****     VIC_SpuriousInt = VIC_EINT3;
 2416              		.loc 1 804 0
 2417 0cec 10309FE5 		ldr	r3, .L115	@ tmp110,
 2418 0cf0 1120A0E3 		mov	r2, #17	@ tmp111,
 2419 0cf4 002083E5 		str	r2, [r3]	@ tmp111, VIC_SpuriousInt
 805:src/init.c    ****     VIC_Dummy();
 2420              		.loc 1 805 0
 2421 0cf8 71FFFFEB 		bl	VIC_Dummy	@
 806:src/init.c    **** }
 2422              		.loc 1 806 0
 2423 0cfc 0840BDE8 		ldmfd	sp!, {r3, lr}	@
 2424 0d00 1EFF2FE1 		bx	lr	@
 2425              	.L116:
 2426              		.align	2
 2427              	.L115:
 2428 0d04 00000000 		.word	VIC_SpuriousInt
 2429              		.cfi_endproc
 2430              	.LFE28:
 2431              		.size	VIC_DummyEINT3, .-VIC_DummyEINT3
 2432              		.align	2
 2433              		.type	VIC_DummyAD0, %function
 2434              	VIC_DummyAD0:
 2435              	.LFB29:
 807:src/init.c    **** 
 808:src/init.c    **** static  void  VIC_DummyAD0 (void)
 809:src/init.c    **** {
 2436              		.loc 1 809 0
 2437              		.cfi_startproc
ARM GAS  /tmp/ccjXaC2Q.s 			page 58


 2438              		@ Function supports interworking.
 2439              		@ args = 0, pretend = 0, frame = 0
 2440              		@ frame_needed = 0, uses_anonymous_args = 0
 2441 0d08 08402DE9 		stmfd	sp!, {r3, lr}	@,
 2442              	.LCFI30:
 2443              		.cfi_def_cfa_offset 8
 2444              		.cfi_offset 3, -8
 2445              		.cfi_offset 14, -4
 810:src/init.c    ****     VIC_SpuriousInt = VIC_AD0;
 2446              		.loc 1 810 0
 2447 0d0c 10309FE5 		ldr	r3, .L118	@ tmp110,
 2448 0d10 1220A0E3 		mov	r2, #18	@ tmp111,
 2449 0d14 002083E5 		str	r2, [r3]	@ tmp111, VIC_SpuriousInt
 811:src/init.c    ****     VIC_Dummy();
 2450              		.loc 1 811 0
 2451 0d18 69FFFFEB 		bl	VIC_Dummy	@
 812:src/init.c    **** }
 2452              		.loc 1 812 0
 2453 0d1c 0840BDE8 		ldmfd	sp!, {r3, lr}	@
 2454 0d20 1EFF2FE1 		bx	lr	@
 2455              	.L119:
 2456              		.align	2
 2457              	.L118:
 2458 0d24 00000000 		.word	VIC_SpuriousInt
 2459              		.cfi_endproc
 2460              	.LFE29:
 2461              		.size	VIC_DummyAD0, .-VIC_DummyAD0
 2462              		.align	2
 2463              		.type	VIC_DummyI2C1, %function
 2464              	VIC_DummyI2C1:
 2465              	.LFB30:
 813:src/init.c    **** 
 814:src/init.c    **** static  void  VIC_DummyI2C1 (void)
 815:src/init.c    **** {
 2466              		.loc 1 815 0
 2467              		.cfi_startproc
 2468              		@ Function supports interworking.
 2469              		@ args = 0, pretend = 0, frame = 0
 2470              		@ frame_needed = 0, uses_anonymous_args = 0
 2471 0d28 08402DE9 		stmfd	sp!, {r3, lr}	@,
 2472              	.LCFI31:
 2473              		.cfi_def_cfa_offset 8
 2474              		.cfi_offset 3, -8
 2475              		.cfi_offset 14, -4
 816:src/init.c    ****     VIC_SpuriousInt = VIC_I2C1;
 2476              		.loc 1 816 0
 2477 0d2c 10309FE5 		ldr	r3, .L121	@ tmp110,
 2478 0d30 1320A0E3 		mov	r2, #19	@ tmp111,
 2479 0d34 002083E5 		str	r2, [r3]	@ tmp111, VIC_SpuriousInt
 817:src/init.c    ****     VIC_Dummy();
 2480              		.loc 1 817 0
 2481 0d38 61FFFFEB 		bl	VIC_Dummy	@
 818:src/init.c    **** }
 2482              		.loc 1 818 0
 2483 0d3c 0840BDE8 		ldmfd	sp!, {r3, lr}	@
 2484 0d40 1EFF2FE1 		bx	lr	@
 2485              	.L122:
ARM GAS  /tmp/ccjXaC2Q.s 			page 59


 2486              		.align	2
 2487              	.L121:
 2488 0d44 00000000 		.word	VIC_SpuriousInt
 2489              		.cfi_endproc
 2490              	.LFE30:
 2491              		.size	VIC_DummyI2C1, .-VIC_DummyI2C1
 2492              		.align	2
 2493              		.type	VIC_DummyBOD, %function
 2494              	VIC_DummyBOD:
 2495              	.LFB31:
 819:src/init.c    **** 
 820:src/init.c    **** static  void  VIC_DummyBOD (void)
 821:src/init.c    **** {
 2496              		.loc 1 821 0
 2497              		.cfi_startproc
 2498              		@ Function supports interworking.
 2499              		@ args = 0, pretend = 0, frame = 0
 2500              		@ frame_needed = 0, uses_anonymous_args = 0
 2501 0d48 08402DE9 		stmfd	sp!, {r3, lr}	@,
 2502              	.LCFI32:
 2503              		.cfi_def_cfa_offset 8
 2504              		.cfi_offset 3, -8
 2505              		.cfi_offset 14, -4
 822:src/init.c    ****     VIC_SpuriousInt = VIC_BOD;
 2506              		.loc 1 822 0
 2507 0d4c 10309FE5 		ldr	r3, .L124	@ tmp110,
 2508 0d50 1420A0E3 		mov	r2, #20	@ tmp111,
 2509 0d54 002083E5 		str	r2, [r3]	@ tmp111, VIC_SpuriousInt
 823:src/init.c    ****     VIC_Dummy();
 2510              		.loc 1 823 0
 2511 0d58 59FFFFEB 		bl	VIC_Dummy	@
 824:src/init.c    **** }
 2512              		.loc 1 824 0
 2513 0d5c 0840BDE8 		ldmfd	sp!, {r3, lr}	@
 2514 0d60 1EFF2FE1 		bx	lr	@
 2515              	.L125:
 2516              		.align	2
 2517              	.L124:
 2518 0d64 00000000 		.word	VIC_SpuriousInt
 2519              		.cfi_endproc
 2520              	.LFE31:
 2521              		.size	VIC_DummyBOD, .-VIC_DummyBOD
 2522              		.align	2
 2523              		.type	VIC_DummyETHERNET, %function
 2524              	VIC_DummyETHERNET:
 2525              	.LFB32:
 825:src/init.c    **** 
 826:src/init.c    **** static  void  VIC_DummyETHERNET (void)
 827:src/init.c    **** {
 2526              		.loc 1 827 0
 2527              		.cfi_startproc
 2528              		@ Function supports interworking.
 2529              		@ args = 0, pretend = 0, frame = 0
 2530              		@ frame_needed = 0, uses_anonymous_args = 0
 2531 0d68 08402DE9 		stmfd	sp!, {r3, lr}	@,
 2532              	.LCFI33:
 2533              		.cfi_def_cfa_offset 8
ARM GAS  /tmp/ccjXaC2Q.s 			page 60


 2534              		.cfi_offset 3, -8
 2535              		.cfi_offset 14, -4
 828:src/init.c    ****     VIC_SpuriousInt = VIC_ETHERNET;
 2536              		.loc 1 828 0
 2537 0d6c 10309FE5 		ldr	r3, .L127	@ tmp110,
 2538 0d70 1520A0E3 		mov	r2, #21	@ tmp111,
 2539 0d74 002083E5 		str	r2, [r3]	@ tmp111, VIC_SpuriousInt
 829:src/init.c    ****     VIC_Dummy();
 2540              		.loc 1 829 0
 2541 0d78 51FFFFEB 		bl	VIC_Dummy	@
 830:src/init.c    **** }
 2542              		.loc 1 830 0
 2543 0d7c 0840BDE8 		ldmfd	sp!, {r3, lr}	@
 2544 0d80 1EFF2FE1 		bx	lr	@
 2545              	.L128:
 2546              		.align	2
 2547              	.L127:
 2548 0d84 00000000 		.word	VIC_SpuriousInt
 2549              		.cfi_endproc
 2550              	.LFE32:
 2551              		.size	VIC_DummyETHERNET, .-VIC_DummyETHERNET
 2552              		.align	2
 2553              		.type	VIC_DummyUSB, %function
 2554              	VIC_DummyUSB:
 2555              	.LFB33:
 831:src/init.c    **** 
 832:src/init.c    **** static  void  VIC_DummyUSB (void)
 833:src/init.c    **** {
 2556              		.loc 1 833 0
 2557              		.cfi_startproc
 2558              		@ Function supports interworking.
 2559              		@ args = 0, pretend = 0, frame = 0
 2560              		@ frame_needed = 0, uses_anonymous_args = 0
 2561 0d88 08402DE9 		stmfd	sp!, {r3, lr}	@,
 2562              	.LCFI34:
 2563              		.cfi_def_cfa_offset 8
 2564              		.cfi_offset 3, -8
 2565              		.cfi_offset 14, -4
 834:src/init.c    ****     VIC_SpuriousInt = VIC_USB;
 2566              		.loc 1 834 0
 2567 0d8c 10309FE5 		ldr	r3, .L130	@ tmp110,
 2568 0d90 1620A0E3 		mov	r2, #22	@ tmp111,
 2569 0d94 002083E5 		str	r2, [r3]	@ tmp111, VIC_SpuriousInt
 835:src/init.c    ****     VIC_Dummy();
 2570              		.loc 1 835 0
 2571 0d98 49FFFFEB 		bl	VIC_Dummy	@
 836:src/init.c    **** }
 2572              		.loc 1 836 0
 2573 0d9c 0840BDE8 		ldmfd	sp!, {r3, lr}	@
 2574 0da0 1EFF2FE1 		bx	lr	@
 2575              	.L131:
 2576              		.align	2
 2577              	.L130:
 2578 0da4 00000000 		.word	VIC_SpuriousInt
 2579              		.cfi_endproc
 2580              	.LFE33:
 2581              		.size	VIC_DummyUSB, .-VIC_DummyUSB
ARM GAS  /tmp/ccjXaC2Q.s 			page 61


 2582              		.align	2
 2583              		.type	VIC_DummyCAN01, %function
 2584              	VIC_DummyCAN01:
 2585              	.LFB34:
 837:src/init.c    **** 
 838:src/init.c    **** static  void  VIC_DummyCAN01 (void)
 839:src/init.c    **** {
 2586              		.loc 1 839 0
 2587              		.cfi_startproc
 2588              		@ Function supports interworking.
 2589              		@ args = 0, pretend = 0, frame = 0
 2590              		@ frame_needed = 0, uses_anonymous_args = 0
 2591 0da8 08402DE9 		stmfd	sp!, {r3, lr}	@,
 2592              	.LCFI35:
 2593              		.cfi_def_cfa_offset 8
 2594              		.cfi_offset 3, -8
 2595              		.cfi_offset 14, -4
 840:src/init.c    ****     VIC_SpuriousInt = VIC_CAN12;
 2596              		.loc 1 840 0
 2597 0dac 10309FE5 		ldr	r3, .L133	@ tmp110,
 2598 0db0 1720A0E3 		mov	r2, #23	@ tmp111,
 2599 0db4 002083E5 		str	r2, [r3]	@ tmp111, VIC_SpuriousInt
 841:src/init.c    ****     VIC_Dummy();
 2600              		.loc 1 841 0
 2601 0db8 41FFFFEB 		bl	VIC_Dummy	@
 842:src/init.c    **** }
 2602              		.loc 1 842 0
 2603 0dbc 0840BDE8 		ldmfd	sp!, {r3, lr}	@
 2604 0dc0 1EFF2FE1 		bx	lr	@
 2605              	.L134:
 2606              		.align	2
 2607              	.L133:
 2608 0dc4 00000000 		.word	VIC_SpuriousInt
 2609              		.cfi_endproc
 2610              	.LFE34:
 2611              		.size	VIC_DummyCAN01, .-VIC_DummyCAN01
 2612              		.align	2
 2613              		.type	VIC_DummyMMC, %function
 2614              	VIC_DummyMMC:
 2615              	.LFB35:
 843:src/init.c    **** 
 844:src/init.c    **** static  void  VIC_DummyMMC (void)
 845:src/init.c    **** {
 2616              		.loc 1 845 0
 2617              		.cfi_startproc
 2618              		@ Function supports interworking.
 2619              		@ args = 0, pretend = 0, frame = 0
 2620              		@ frame_needed = 0, uses_anonymous_args = 0
 2621 0dc8 08402DE9 		stmfd	sp!, {r3, lr}	@,
 2622              	.LCFI36:
 2623              		.cfi_def_cfa_offset 8
 2624              		.cfi_offset 3, -8
 2625              		.cfi_offset 14, -4
 846:src/init.c    ****     VIC_SpuriousInt = VIC_MMC;
 2626              		.loc 1 846 0
 2627 0dcc 10309FE5 		ldr	r3, .L136	@ tmp110,
 2628 0dd0 1820A0E3 		mov	r2, #24	@ tmp111,
ARM GAS  /tmp/ccjXaC2Q.s 			page 62


 2629 0dd4 002083E5 		str	r2, [r3]	@ tmp111, VIC_SpuriousInt
 847:src/init.c    ****     VIC_Dummy();
 2630              		.loc 1 847 0
 2631 0dd8 39FFFFEB 		bl	VIC_Dummy	@
 848:src/init.c    **** }
 2632              		.loc 1 848 0
 2633 0ddc 0840BDE8 		ldmfd	sp!, {r3, lr}	@
 2634 0de0 1EFF2FE1 		bx	lr	@
 2635              	.L137:
 2636              		.align	2
 2637              	.L136:
 2638 0de4 00000000 		.word	VIC_SpuriousInt
 2639              		.cfi_endproc
 2640              	.LFE35:
 2641              		.size	VIC_DummyMMC, .-VIC_DummyMMC
 2642              		.align	2
 2643              		.type	VIC_DummyGP_DMA, %function
 2644              	VIC_DummyGP_DMA:
 2645              	.LFB36:
 849:src/init.c    **** 
 850:src/init.c    **** static  void  VIC_DummyGP_DMA (void)
 851:src/init.c    **** {
 2646              		.loc 1 851 0
 2647              		.cfi_startproc
 2648              		@ Function supports interworking.
 2649              		@ args = 0, pretend = 0, frame = 0
 2650              		@ frame_needed = 0, uses_anonymous_args = 0
 2651 0de8 08402DE9 		stmfd	sp!, {r3, lr}	@,
 2652              	.LCFI37:
 2653              		.cfi_def_cfa_offset 8
 2654              		.cfi_offset 3, -8
 2655              		.cfi_offset 14, -4
 852:src/init.c    ****     VIC_SpuriousInt = VIC_GP_DMA;
 2656              		.loc 1 852 0
 2657 0dec 10309FE5 		ldr	r3, .L139	@ tmp110,
 2658 0df0 1920A0E3 		mov	r2, #25	@ tmp111,
 2659 0df4 002083E5 		str	r2, [r3]	@ tmp111, VIC_SpuriousInt
 853:src/init.c    ****     VIC_Dummy();
 2660              		.loc 1 853 0
 2661 0df8 31FFFFEB 		bl	VIC_Dummy	@
 854:src/init.c    **** }
 2662              		.loc 1 854 0
 2663 0dfc 0840BDE8 		ldmfd	sp!, {r3, lr}	@
 2664 0e00 1EFF2FE1 		bx	lr	@
 2665              	.L140:
 2666              		.align	2
 2667              	.L139:
 2668 0e04 00000000 		.word	VIC_SpuriousInt
 2669              		.cfi_endproc
 2670              	.LFE36:
 2671              		.size	VIC_DummyGP_DMA, .-VIC_DummyGP_DMA
 2672              		.align	2
 2673              		.type	VIC_DummyTIMER2, %function
 2674              	VIC_DummyTIMER2:
 2675              	.LFB37:
 855:src/init.c    **** 
 856:src/init.c    **** static  void  VIC_DummyTIMER2 (void)
ARM GAS  /tmp/ccjXaC2Q.s 			page 63


 857:src/init.c    **** {
 2676              		.loc 1 857 0
 2677              		.cfi_startproc
 2678              		@ Function supports interworking.
 2679              		@ args = 0, pretend = 0, frame = 0
 2680              		@ frame_needed = 0, uses_anonymous_args = 0
 2681 0e08 08402DE9 		stmfd	sp!, {r3, lr}	@,
 2682              	.LCFI38:
 2683              		.cfi_def_cfa_offset 8
 2684              		.cfi_offset 3, -8
 2685              		.cfi_offset 14, -4
 858:src/init.c    ****     VIC_SpuriousInt = VIC_TIMER2;
 2686              		.loc 1 858 0
 2687 0e0c 10309FE5 		ldr	r3, .L142	@ tmp110,
 2688 0e10 1A20A0E3 		mov	r2, #26	@ tmp111,
 2689 0e14 002083E5 		str	r2, [r3]	@ tmp111, VIC_SpuriousInt
 859:src/init.c    ****     VIC_Dummy();
 2690              		.loc 1 859 0
 2691 0e18 29FFFFEB 		bl	VIC_Dummy	@
 860:src/init.c    **** }
 2692              		.loc 1 860 0
 2693 0e1c 0840BDE8 		ldmfd	sp!, {r3, lr}	@
 2694 0e20 1EFF2FE1 		bx	lr	@
 2695              	.L143:
 2696              		.align	2
 2697              	.L142:
 2698 0e24 00000000 		.word	VIC_SpuriousInt
 2699              		.cfi_endproc
 2700              	.LFE37:
 2701              		.size	VIC_DummyTIMER2, .-VIC_DummyTIMER2
 2702              		.align	2
 2703              		.type	VIC_DummyTIMER3, %function
 2704              	VIC_DummyTIMER3:
 2705              	.LFB38:
 861:src/init.c    **** 
 862:src/init.c    **** static  void  VIC_DummyTIMER3 (void)
 863:src/init.c    **** {
 2706              		.loc 1 863 0
 2707              		.cfi_startproc
 2708              		@ Function supports interworking.
 2709              		@ args = 0, pretend = 0, frame = 0
 2710              		@ frame_needed = 0, uses_anonymous_args = 0
 2711 0e28 08402DE9 		stmfd	sp!, {r3, lr}	@,
 2712              	.LCFI39:
 2713              		.cfi_def_cfa_offset 8
 2714              		.cfi_offset 3, -8
 2715              		.cfi_offset 14, -4
 864:src/init.c    ****     VIC_SpuriousInt = VIC_TIMER3;
 2716              		.loc 1 864 0
 2717 0e2c 10309FE5 		ldr	r3, .L145	@ tmp110,
 2718 0e30 1B20A0E3 		mov	r2, #27	@ tmp111,
 2719 0e34 002083E5 		str	r2, [r3]	@ tmp111, VIC_SpuriousInt
 865:src/init.c    ****     VIC_Dummy();
 2720              		.loc 1 865 0
 2721 0e38 21FFFFEB 		bl	VIC_Dummy	@
 866:src/init.c    **** }
 2722              		.loc 1 866 0
ARM GAS  /tmp/ccjXaC2Q.s 			page 64


 2723 0e3c 0840BDE8 		ldmfd	sp!, {r3, lr}	@
 2724 0e40 1EFF2FE1 		bx	lr	@
 2725              	.L146:
 2726              		.align	2
 2727              	.L145:
 2728 0e44 00000000 		.word	VIC_SpuriousInt
 2729              		.cfi_endproc
 2730              	.LFE38:
 2731              		.size	VIC_DummyTIMER3, .-VIC_DummyTIMER3
 2732              		.align	2
 2733              		.type	VIC_DummyUART2, %function
 2734              	VIC_DummyUART2:
 2735              	.LFB39:
 867:src/init.c    **** 
 868:src/init.c    **** static  void  VIC_DummyUART2 (void)
 869:src/init.c    **** {
 2736              		.loc 1 869 0
 2737              		.cfi_startproc
 2738              		@ Function supports interworking.
 2739              		@ args = 0, pretend = 0, frame = 0
 2740              		@ frame_needed = 0, uses_anonymous_args = 0
 2741 0e48 08402DE9 		stmfd	sp!, {r3, lr}	@,
 2742              	.LCFI40:
 2743              		.cfi_def_cfa_offset 8
 2744              		.cfi_offset 3, -8
 2745              		.cfi_offset 14, -4
 870:src/init.c    ****     VIC_SpuriousInt = VIC_UART2;
 2746              		.loc 1 870 0
 2747 0e4c 10309FE5 		ldr	r3, .L148	@ tmp110,
 2748 0e50 1C20A0E3 		mov	r2, #28	@ tmp111,
 2749 0e54 002083E5 		str	r2, [r3]	@ tmp111, VIC_SpuriousInt
 871:src/init.c    ****     VIC_Dummy();
 2750              		.loc 1 871 0
 2751 0e58 19FFFFEB 		bl	VIC_Dummy	@
 872:src/init.c    **** }
 2752              		.loc 1 872 0
 2753 0e5c 0840BDE8 		ldmfd	sp!, {r3, lr}	@
 2754 0e60 1EFF2FE1 		bx	lr	@
 2755              	.L149:
 2756              		.align	2
 2757              	.L148:
 2758 0e64 00000000 		.word	VIC_SpuriousInt
 2759              		.cfi_endproc
 2760              	.LFE39:
 2761              		.size	VIC_DummyUART2, .-VIC_DummyUART2
 2762              		.align	2
 2763              		.type	VIC_DummyUART3, %function
 2764              	VIC_DummyUART3:
 2765              	.LFB40:
 873:src/init.c    **** 
 874:src/init.c    **** static  void  VIC_DummyUART3 (void)
 875:src/init.c    **** {
 2766              		.loc 1 875 0
 2767              		.cfi_startproc
 2768              		@ Function supports interworking.
 2769              		@ args = 0, pretend = 0, frame = 0
 2770              		@ frame_needed = 0, uses_anonymous_args = 0
ARM GAS  /tmp/ccjXaC2Q.s 			page 65


 2771 0e68 08402DE9 		stmfd	sp!, {r3, lr}	@,
 2772              	.LCFI41:
 2773              		.cfi_def_cfa_offset 8
 2774              		.cfi_offset 3, -8
 2775              		.cfi_offset 14, -4
 876:src/init.c    ****     VIC_SpuriousInt = VIC_UART3;
 2776              		.loc 1 876 0
 2777 0e6c 10309FE5 		ldr	r3, .L151	@ tmp110,
 2778 0e70 1D20A0E3 		mov	r2, #29	@ tmp111,
 2779 0e74 002083E5 		str	r2, [r3]	@ tmp111, VIC_SpuriousInt
 877:src/init.c    ****     VIC_Dummy();
 2780              		.loc 1 877 0
 2781 0e78 11FFFFEB 		bl	VIC_Dummy	@
 878:src/init.c    **** }
 2782              		.loc 1 878 0
 2783 0e7c 0840BDE8 		ldmfd	sp!, {r3, lr}	@
 2784 0e80 1EFF2FE1 		bx	lr	@
 2785              	.L152:
 2786              		.align	2
 2787              	.L151:
 2788 0e84 00000000 		.word	VIC_SpuriousInt
 2789              		.cfi_endproc
 2790              	.LFE40:
 2791              		.size	VIC_DummyUART3, .-VIC_DummyUART3
 2792              		.align	2
 2793              		.type	VIC_DummyI2C2, %function
 2794              	VIC_DummyI2C2:
 2795              	.LFB41:
 879:src/init.c    **** 
 880:src/init.c    **** static  void  VIC_DummyI2C2 (void)
 881:src/init.c    **** {
 2796              		.loc 1 881 0
 2797              		.cfi_startproc
 2798              		@ Function supports interworking.
 2799              		@ args = 0, pretend = 0, frame = 0
 2800              		@ frame_needed = 0, uses_anonymous_args = 0
 2801 0e88 08402DE9 		stmfd	sp!, {r3, lr}	@,
 2802              	.LCFI42:
 2803              		.cfi_def_cfa_offset 8
 2804              		.cfi_offset 3, -8
 2805              		.cfi_offset 14, -4
 882:src/init.c    ****     VIC_SpuriousInt = VIC_I2C2;
 2806              		.loc 1 882 0
 2807 0e8c 10309FE5 		ldr	r3, .L154	@ tmp110,
 2808 0e90 1E20A0E3 		mov	r2, #30	@ tmp111,
 2809 0e94 002083E5 		str	r2, [r3]	@ tmp111, VIC_SpuriousInt
 883:src/init.c    ****     VIC_Dummy();
 2810              		.loc 1 883 0
 2811 0e98 09FFFFEB 		bl	VIC_Dummy	@
 884:src/init.c    **** }
 2812              		.loc 1 884 0
 2813 0e9c 0840BDE8 		ldmfd	sp!, {r3, lr}	@
 2814 0ea0 1EFF2FE1 		bx	lr	@
 2815              	.L155:
 2816              		.align	2
 2817              	.L154:
 2818 0ea4 00000000 		.word	VIC_SpuriousInt
ARM GAS  /tmp/ccjXaC2Q.s 			page 66


 2819              		.cfi_endproc
 2820              	.LFE41:
 2821              		.size	VIC_DummyI2C2, .-VIC_DummyI2C2
 2822              		.align	2
 2823              		.type	VIC_DummyI2S, %function
 2824              	VIC_DummyI2S:
 2825              	.LFB42:
 885:src/init.c    **** 
 886:src/init.c    **** static  void  VIC_DummyI2S (void)
 887:src/init.c    **** {
 2826              		.loc 1 887 0
 2827              		.cfi_startproc
 2828              		@ Function supports interworking.
 2829              		@ args = 0, pretend = 0, frame = 0
 2830              		@ frame_needed = 0, uses_anonymous_args = 0
 2831 0ea8 08402DE9 		stmfd	sp!, {r3, lr}	@,
 2832              	.LCFI43:
 2833              		.cfi_def_cfa_offset 8
 2834              		.cfi_offset 3, -8
 2835              		.cfi_offset 14, -4
 888:src/init.c    ****     VIC_SpuriousInt = VIC_I2S;
 2836              		.loc 1 888 0
 2837 0eac 10309FE5 		ldr	r3, .L157	@ tmp110,
 2838 0eb0 1F20A0E3 		mov	r2, #31	@ tmp111,
 2839 0eb4 002083E5 		str	r2, [r3]	@ tmp111, VIC_SpuriousInt
 889:src/init.c    ****     VIC_Dummy();
 2840              		.loc 1 889 0
 2841 0eb8 01FFFFEB 		bl	VIC_Dummy	@
 890:src/init.c    **** }
 2842              		.loc 1 890 0
 2843 0ebc 0840BDE8 		ldmfd	sp!, {r3, lr}	@
 2844 0ec0 1EFF2FE1 		bx	lr	@
 2845              	.L158:
 2846              		.align	2
 2847              	.L157:
 2848 0ec4 00000000 		.word	VIC_SpuriousInt
 2849              		.cfi_endproc
 2850              	.LFE42:
 2851              		.size	VIC_DummyI2S, .-VIC_DummyI2S
 2852              	.Letext0:
 2853              		.file 2 "./inc/lpc2378.h"
 2854              		.file 3 "./inc/pins.h"
 2855              		.file 4 "./inc/uarts.h"
 2856              		.file 5 "./inc/init.h"