ARM GAS  /tmp/ccjXaC2Q.s 			page 1


   1              		.cpu arm7tdmi
   2              		.fpu softvfp
   3              		.eabi_attribute 20, 1	@ Tag_ABI_FP_denormal
   4              		.eabi_attribute 21, 1	@ Tag_ABI_FP_exceptions
   5              		.eabi_attribute 23, 3	@ Tag_ABI_FP_number_model
   6              		.eabi_attribute 24, 1	@ Tag_ABI_align8_needed
   7              		.eabi_attribute 25, 1	@ Tag_ABI_align8_preserved
   8              		.eabi_attribute 26, 1	@ Tag_ABI_enum_size
   9              		.eabi_attribute 30, 6	@ Tag_ABI_optimization_goals
  10              		.eabi_attribute 34, 0	@ Tag_CPU_unaligned_access
  11              		.eabi_attribute 18, 4	@ Tag_ABI_PCS_wchar_t
  12              		.file	"init.c"
  13              	@ GNU C (GNU Tools for ARM Embedded Processors) version 4.8.4 20140725 (release) [ARM/embedded-4_8-
  14              	@	compiled by GNU C version 4.7.4, GMP version 4.3.2, MPFR version 2.4.2, MPC version 0.8.1
  15              	@ GGC heuristics: --param ggc-min-expand=100 --param ggc-min-heapsize=131072
  16              	@ options passed:  -I . -I ./inc
  17              	@ -iprefix /opt/gcc-arm-none-eabi-4_8-2014q3/bin/../lib/gcc/arm-none-eabi/4.8.4/
  18              	@ -isysroot /opt/gcc-arm-none-eabi-4_8-2014q3/bin/../arm-none-eabi
  19              	@ -MD src/init.d -MF .dep/init.o.d -MP -MQ src/init.o -D__USES_INITFINI__
  20              	@ -D DEBUG=1 src/init.c -mcpu=arm7tdmi -marm -auxbase-strip src/init.o
  21              	@ -gdwarf-2 -O0 -Wall -Wstrict-prototypes -fomit-frame-pointer
  22              	@ -fverbose-asm
  23              	@ options enabled:  -faggressive-loop-optimizations -fauto-inc-dec
  24              	@ -fbranch-count-reg -fcommon -fdelete-null-pointer-checks -fdwarf2-cfi-asm
  25              	@ -fearly-inlining -feliminate-unused-debug-types -ffunction-cse -fgcse-lm
  26              	@ -fgnu-runtime -fgnu-unique -fident -finline-atomics -fira-hoist-pressure
  27              	@ -fira-share-save-slots -fira-share-spill-slots -fivopts
  28              	@ -fkeep-static-consts -fleading-underscore -fmath-errno
  29              	@ -fmerge-debug-strings -fmove-loop-invariants -fomit-frame-pointer
  30              	@ -fpeephole -fprefetch-loop-arrays -freg-struct-return
  31              	@ -fsched-critical-path-heuristic -fsched-dep-count-heuristic
  32              	@ -fsched-group-heuristic -fsched-interblock -fsched-last-insn-heuristic
  33              	@ -fsched-rank-heuristic -fsched-spec -fsched-spec-insn-heuristic
  34              	@ -fsched-stalled-insns-dep -fshow-column -fsigned-zeros
  35              	@ -fsplit-ivs-in-unroller -fstrict-volatile-bitfields -fsync-libcalls
  36              	@ -ftrapping-math -ftree-coalesce-vars -ftree-cselim -ftree-forwprop
  37              	@ -ftree-loop-if-convert -ftree-loop-im -ftree-loop-ivcanon
  38              	@ -ftree-loop-optimize -ftree-parallelize-loops= -ftree-phiprop -ftree-pta
  39              	@ -ftree-reassoc -ftree-scev-cprop -ftree-slp-vectorize
  40              	@ -ftree-vect-loop-version -funit-at-a-time -fverbose-asm
  41              	@ -fzero-initialized-in-bss -marm -mlittle-endian
  42              	@ -mpic-data-is-text-relative -msched-prolog -mthumb-interwork
  43              	@ -mvectorize-with-neon-quad
  44              	
  45              		.text
  46              	.Ltext0:
  47              		.cfi_sections	.debug_frame
  48              		.global	mcuPins
  49              		.data
  50              		.align	2
  51              		.type	mcuPins, %object
  52              		.size	mcuPins, 396
  53              	mcuPins:
  54              	@ pinSelect:
  55 0000 00C002E0 		.word	-536690688
  56              	@ pin:
  57              	@ position:
ARM GAS  /tmp/ccjXaC2Q.s 			page 2


  58 0004 00       		.byte	0
  59              	@ multiplex:
  60 0005 00       		.byte	0
  61              	@ position:
  62 0006 01       		.byte	1
  63              	@ multiplex:
  64 0007 00       		.byte	0
  65              	@ position:
  66 0008 02       		.byte	2
  67              	@ multiplex:
  68 0009 01       		.byte	1
  69              	@ position:
  70 000a 03       		.byte	3
  71              	@ multiplex:
  72 000b 01       		.byte	1
  73              	@ position:
  74 000c 04       		.byte	4
  75              	@ multiplex:
  76 000d 00       		.byte	0
  77              	@ position:
  78 000e 05       		.byte	5
  79              	@ multiplex:
  80 000f 00       		.byte	0
  81              	@ position:
  82 0010 06       		.byte	6
  83              	@ multiplex:
  84 0011 00       		.byte	0
  85              	@ position:
  86 0012 07       		.byte	7
  87              	@ multiplex:
  88 0013 00       		.byte	0
  89              	@ position:
  90 0014 08       		.byte	8
  91              	@ multiplex:
  92 0015 00       		.byte	0
  93              	@ position:
  94 0016 09       		.byte	9
  95              	@ multiplex:
  96 0017 00       		.byte	0
  97              	@ position:
  98 0018 0A       		.byte	10
  99              	@ multiplex:
 100 0019 00       		.byte	0
 101              	@ position:
 102 001a 0B       		.byte	11
 103              	@ multiplex:
 104 001b 00       		.byte	0
 105              	@ position:
 106 001c 0C       		.byte	12
 107              	@ multiplex:
 108 001d 00       		.byte	0
 109              	@ position:
 110 001e 0D       		.byte	13
 111              	@ multiplex:
 112 001f 00       		.byte	0
 113              	@ position:
 114 0020 0E       		.byte	14
ARM GAS  /tmp/ccjXaC2Q.s 			page 3


 115              	@ multiplex:
 116 0021 00       		.byte	0
 117              	@ position:
 118 0022 0F       		.byte	15
 119              	@ multiplex:
 120 0023 00       		.byte	0
 121              	@ pinSelect:
 122 0024 04C002E0 		.word	-536690684
 123              	@ pin:
 124              	@ position:
 125 0028 00       		.byte	0
 126              	@ multiplex:
 127 0029 00       		.byte	0
 128              	@ position:
 129 002a 01       		.byte	1
 130              	@ multiplex:
 131 002b 00       		.byte	0
 132              	@ position:
 133 002c 02       		.byte	2
 134              	@ multiplex:
 135 002d 00       		.byte	0
 136              	@ position:
 137 002e 03       		.byte	3
 138              	@ multiplex:
 139 002f 00       		.byte	0
 140              	@ position:
 141 0030 04       		.byte	4
 142              	@ multiplex:
 143 0031 00       		.byte	0
 144              	@ position:
 145 0032 05       		.byte	5
 146              	@ multiplex:
 147 0033 00       		.byte	0
 148              	@ position:
 149 0034 06       		.byte	6
 150              	@ multiplex:
 151 0035 00       		.byte	0
 152              	@ position:
 153 0036 07       		.byte	7
 154              	@ multiplex:
 155 0037 00       		.byte	0
 156              	@ position:
 157 0038 08       		.byte	8
 158              	@ multiplex:
 159 0039 00       		.byte	0
 160              	@ position:
 161 003a 09       		.byte	9
 162              	@ multiplex:
 163 003b 00       		.byte	0
 164              	@ position:
 165 003c 0A       		.byte	10
 166              	@ multiplex:
 167 003d 00       		.byte	0
 168              	@ position:
 169 003e 0B       		.byte	11
 170              	@ multiplex:
 171 003f 00       		.byte	0
ARM GAS  /tmp/ccjXaC2Q.s 			page 4


 172              	@ position:
 173 0040 0C       		.byte	12
 174              	@ multiplex:
 175 0041 00       		.byte	0
 176              	@ position:
 177 0042 0D       		.byte	13
 178              	@ multiplex:
 179 0043 00       		.byte	0
 180              	@ position:
 181 0044 0E       		.byte	14
 182              	@ multiplex:
 183 0045 00       		.byte	0
 184              	@ position:
 185 0046 0F       		.byte	15
 186              	@ multiplex:
 187 0047 00       		.byte	0
 188              	@ pinSelect:
 189 0048 08C002E0 		.word	-536690680
 190              	@ pin:
 191              	@ position:
 192 004c 00       		.byte	0
 193              	@ multiplex:
 194 004d 00       		.byte	0
 195              	@ position:
 196 004e 01       		.byte	1
 197              	@ multiplex:
 198 004f 00       		.byte	0
 199              	@ position:
 200 0050 02       		.byte	2
 201              	@ multiplex:
 202 0051 00       		.byte	0
 203              	@ position:
 204 0052 03       		.byte	3
 205              	@ multiplex:
 206 0053 00       		.byte	0
 207              	@ position:
 208 0054 04       		.byte	4
 209              	@ multiplex:
 210 0055 00       		.byte	0
 211              	@ position:
 212 0056 05       		.byte	5
 213              	@ multiplex:
 214 0057 00       		.byte	0
 215              	@ position:
 216 0058 06       		.byte	6
 217              	@ multiplex:
 218 0059 00       		.byte	0
 219              	@ position:
 220 005a 07       		.byte	7
 221              	@ multiplex:
 222 005b 00       		.byte	0
 223              	@ position:
 224 005c 08       		.byte	8
 225              	@ multiplex:
 226 005d 00       		.byte	0
 227              	@ position:
 228 005e 09       		.byte	9
ARM GAS  /tmp/ccjXaC2Q.s 			page 5


 229              	@ multiplex:
 230 005f 00       		.byte	0
 231              	@ position:
 232 0060 0A       		.byte	10
 233              	@ multiplex:
 234 0061 00       		.byte	0
 235              	@ position:
 236 0062 0B       		.byte	11
 237              	@ multiplex:
 238 0063 00       		.byte	0
 239              	@ position:
 240 0064 0C       		.byte	12
 241              	@ multiplex:
 242 0065 00       		.byte	0
 243              	@ position:
 244 0066 0D       		.byte	13
 245              	@ multiplex:
 246 0067 00       		.byte	0
 247              	@ position:
 248 0068 0E       		.byte	14
 249              	@ multiplex:
 250 0069 00       		.byte	0
 251              	@ position:
 252 006a 0F       		.byte	15
 253              	@ multiplex:
 254 006b 00       		.byte	0
 255              	@ pinSelect:
 256 006c 0CC002E0 		.word	-536690676
 257              	@ pin:
 258              	@ position:
 259 0070 00       		.byte	0
 260              	@ multiplex:
 261 0071 00       		.byte	0
 262              	@ position:
 263 0072 01       		.byte	1
 264              	@ multiplex:
 265 0073 00       		.byte	0
 266              	@ position:
 267 0074 02       		.byte	2
 268              	@ multiplex:
 269 0075 00       		.byte	0
 270              	@ position:
 271 0076 03       		.byte	3
 272              	@ multiplex:
 273 0077 00       		.byte	0
 274              	@ position:
 275 0078 04       		.byte	4
 276              	@ multiplex:
 277 0079 00       		.byte	0
 278              	@ position:
 279 007a 05       		.byte	5
 280              	@ multiplex:
 281 007b 00       		.byte	0
 282              	@ position:
 283 007c 06       		.byte	6
 284              	@ multiplex:
 285 007d 00       		.byte	0
ARM GAS  /tmp/ccjXaC2Q.s 			page 6


 286              	@ position:
 287 007e 07       		.byte	7
 288              	@ multiplex:
 289 007f 00       		.byte	0
 290              	@ position:
 291 0080 08       		.byte	8
 292              	@ multiplex:
 293 0081 00       		.byte	0
 294              	@ position:
 295 0082 09       		.byte	9
 296              	@ multiplex:
 297 0083 00       		.byte	0
 298              	@ position:
 299 0084 0A       		.byte	10
 300              	@ multiplex:
 301 0085 00       		.byte	0
 302              	@ position:
 303 0086 0B       		.byte	11
 304              	@ multiplex:
 305 0087 00       		.byte	0
 306              	@ position:
 307 0088 0C       		.byte	12
 308              	@ multiplex:
 309 0089 00       		.byte	0
 310              	@ position:
 311 008a 0D       		.byte	13
 312              	@ multiplex:
 313 008b 00       		.byte	0
 314              	@ position:
 315 008c 0E       		.byte	14
 316              	@ multiplex:
 317 008d 00       		.byte	0
 318              	@ position:
 319 008e 0F       		.byte	15
 320              	@ multiplex:
 321 008f 00       		.byte	0
 322              	@ pinSelect:
 323 0090 10C002E0 		.word	-536690672
 324              	@ pin:
 325              	@ position:
 326 0094 00       		.byte	0
 327              	@ multiplex:
 328 0095 00       		.byte	0
 329              	@ position:
 330 0096 01       		.byte	1
 331              	@ multiplex:
 332 0097 00       		.byte	0
 333              	@ position:
 334 0098 02       		.byte	2
 335              	@ multiplex:
 336 0099 00       		.byte	0
 337              	@ position:
 338 009a 03       		.byte	3
 339              	@ multiplex:
 340 009b 00       		.byte	0
 341              	@ position:
 342 009c 04       		.byte	4
ARM GAS  /tmp/ccjXaC2Q.s 			page 7


 343              	@ multiplex:
 344 009d 00       		.byte	0
 345              	@ position:
 346 009e 05       		.byte	5
 347              	@ multiplex:
 348 009f 00       		.byte	0
 349              	@ position:
 350 00a0 06       		.byte	6
 351              	@ multiplex:
 352 00a1 00       		.byte	0
 353              	@ position:
 354 00a2 07       		.byte	7
 355              	@ multiplex:
 356 00a3 00       		.byte	0
 357              	@ position:
 358 00a4 08       		.byte	8
 359              	@ multiplex:
 360 00a5 00       		.byte	0
 361              	@ position:
 362 00a6 09       		.byte	9
 363              	@ multiplex:
 364 00a7 00       		.byte	0
 365              	@ position:
 366 00a8 0A       		.byte	10
 367              	@ multiplex:
 368 00a9 00       		.byte	0
 369              	@ position:
 370 00aa 0B       		.byte	11
 371              	@ multiplex:
 372 00ab 00       		.byte	0
 373              	@ position:
 374 00ac 0C       		.byte	12
 375              	@ multiplex:
 376 00ad 00       		.byte	0
 377              	@ position:
 378 00ae 0D       		.byte	13
 379              	@ multiplex:
 380 00af 00       		.byte	0
 381              	@ position:
 382 00b0 0E       		.byte	14
 383              	@ multiplex:
 384 00b1 00       		.byte	0
 385              	@ position:
 386 00b2 0F       		.byte	15
 387              	@ multiplex:
 388 00b3 00       		.byte	0
 389              	@ pinSelect:
 390 00b4 14C002E0 		.word	-536690668
 391              	@ pin:
 392              	@ position:
 393 00b8 00       		.byte	0
 394              	@ multiplex:
 395 00b9 00       		.byte	0
 396              	@ position:
 397 00ba 01       		.byte	1
 398              	@ multiplex:
 399 00bb 00       		.byte	0
ARM GAS  /tmp/ccjXaC2Q.s 			page 8


 400              	@ position:
 401 00bc 02       		.byte	2
 402              	@ multiplex:
 403 00bd 00       		.byte	0
 404              	@ position:
 405 00be 03       		.byte	3
 406              	@ multiplex:
 407 00bf 00       		.byte	0
 408              	@ position:
 409 00c0 04       		.byte	4
 410              	@ multiplex:
 411 00c1 00       		.byte	0
 412              	@ position:
 413 00c2 05       		.byte	5
 414              	@ multiplex:
 415 00c3 00       		.byte	0
 416              	@ position:
 417 00c4 06       		.byte	6
 418              	@ multiplex:
 419 00c5 00       		.byte	0
 420              	@ position:
 421 00c6 07       		.byte	7
 422              	@ multiplex:
 423 00c7 00       		.byte	0
 424              	@ position:
 425 00c8 08       		.byte	8
 426              	@ multiplex:
 427 00c9 00       		.byte	0
 428              	@ position:
 429 00ca 09       		.byte	9
 430              	@ multiplex:
 431 00cb 00       		.byte	0
 432              	@ position:
 433 00cc 0A       		.byte	10
 434              	@ multiplex:
 435 00cd 00       		.byte	0
 436              	@ position:
 437 00ce 0B       		.byte	11
 438              	@ multiplex:
 439 00cf 00       		.byte	0
 440              	@ position:
 441 00d0 0C       		.byte	12
 442              	@ multiplex:
 443 00d1 00       		.byte	0
 444              	@ position:
 445 00d2 0D       		.byte	13
 446              	@ multiplex:
 447 00d3 00       		.byte	0
 448              	@ position:
 449 00d4 0E       		.byte	14
 450              	@ multiplex:
 451 00d5 00       		.byte	0
 452              	@ position:
 453 00d6 0F       		.byte	15
 454              	@ multiplex:
 455 00d7 00       		.byte	0
 456              	@ pinSelect:
ARM GAS  /tmp/ccjXaC2Q.s 			page 9


 457 00d8 18C002E0 		.word	-536690664
 458              	@ pin:
 459              	@ position:
 460 00dc 00       		.byte	0
 461              	@ multiplex:
 462 00dd 00       		.byte	0
 463              	@ position:
 464 00de 01       		.byte	1
 465              	@ multiplex:
 466 00df 00       		.byte	0
 467              	@ position:
 468 00e0 02       		.byte	2
 469              	@ multiplex:
 470 00e1 00       		.byte	0
 471              	@ position:
 472 00e2 03       		.byte	3
 473              	@ multiplex:
 474 00e3 00       		.byte	0
 475              	@ position:
 476 00e4 04       		.byte	4
 477              	@ multiplex:
 478 00e5 00       		.byte	0
 479              	@ position:
 480 00e6 05       		.byte	5
 481              	@ multiplex:
 482 00e7 00       		.byte	0
 483              	@ position:
 484 00e8 06       		.byte	6
 485              	@ multiplex:
 486 00e9 00       		.byte	0
 487              	@ position:
 488 00ea 07       		.byte	7
 489              	@ multiplex:
 490 00eb 00       		.byte	0
 491              	@ position:
 492 00ec 08       		.byte	8
 493              	@ multiplex:
 494 00ed 00       		.byte	0
 495              	@ position:
 496 00ee 09       		.byte	9
 497              	@ multiplex:
 498 00ef 00       		.byte	0
 499              	@ position:
 500 00f0 0A       		.byte	10
 501              	@ multiplex:
 502 00f1 00       		.byte	0
 503              	@ position:
 504 00f2 0B       		.byte	11
 505              	@ multiplex:
 506 00f3 00       		.byte	0
 507              	@ position:
 508 00f4 0C       		.byte	12
 509              	@ multiplex:
 510 00f5 00       		.byte	0
 511              	@ position:
 512 00f6 0D       		.byte	13
 513              	@ multiplex:
ARM GAS  /tmp/ccjXaC2Q.s 			page 10


 514 00f7 00       		.byte	0
 515              	@ position:
 516 00f8 0E       		.byte	14
 517              	@ multiplex:
 518 00f9 00       		.byte	0
 519              	@ position:
 520 00fa 0F       		.byte	15
 521              	@ multiplex:
 522 00fb 00       		.byte	0
 523              	@ pinSelect:
 524 00fc 1CC002E0 		.word	-536690660
 525              	@ pin:
 526              	@ position:
 527 0100 00       		.byte	0
 528              	@ multiplex:
 529 0101 00       		.byte	0
 530              	@ position:
 531 0102 01       		.byte	1
 532              	@ multiplex:
 533 0103 00       		.byte	0
 534              	@ position:
 535 0104 02       		.byte	2
 536              	@ multiplex:
 537 0105 00       		.byte	0
 538              	@ position:
 539 0106 03       		.byte	3
 540              	@ multiplex:
 541 0107 00       		.byte	0
 542              	@ position:
 543 0108 04       		.byte	4
 544              	@ multiplex:
 545 0109 00       		.byte	0
 546              	@ position:
 547 010a 05       		.byte	5
 548              	@ multiplex:
 549 010b 00       		.byte	0
 550              	@ position:
 551 010c 06       		.byte	6
 552              	@ multiplex:
 553 010d 00       		.byte	0
 554              	@ position:
 555 010e 07       		.byte	7
 556              	@ multiplex:
 557 010f 00       		.byte	0
 558              	@ position:
 559 0110 08       		.byte	8
 560              	@ multiplex:
 561 0111 00       		.byte	0
 562              	@ position:
 563 0112 09       		.byte	9
 564              	@ multiplex:
 565 0113 00       		.byte	0
 566              	@ position:
 567 0114 0A       		.byte	10
 568              	@ multiplex:
 569 0115 00       		.byte	0
 570              	@ position:
ARM GAS  /tmp/ccjXaC2Q.s 			page 11


 571 0116 0B       		.byte	11
 572              	@ multiplex:
 573 0117 00       		.byte	0
 574              	@ position:
 575 0118 0C       		.byte	12
 576              	@ multiplex:
 577 0119 00       		.byte	0
 578              	@ position:
 579 011a 0D       		.byte	13
 580              	@ multiplex:
 581 011b 00       		.byte	0
 582              	@ position:
 583 011c 0E       		.byte	14
 584              	@ multiplex:
 585 011d 00       		.byte	0
 586              	@ position:
 587 011e 0F       		.byte	15
 588              	@ multiplex:
 589 011f 00       		.byte	0
 590              	@ pinSelect:
 591 0120 20C002E0 		.word	-536690656
 592              	@ pin:
 593              	@ position:
 594 0124 00       		.byte	0
 595              	@ multiplex:
 596 0125 00       		.byte	0
 597              	@ position:
 598 0126 01       		.byte	1
 599              	@ multiplex:
 600 0127 00       		.byte	0
 601              	@ position:
 602 0128 02       		.byte	2
 603              	@ multiplex:
 604 0129 00       		.byte	0
 605              	@ position:
 606 012a 03       		.byte	3
 607              	@ multiplex:
 608 012b 00       		.byte	0
 609              	@ position:
 610 012c 04       		.byte	4
 611              	@ multiplex:
 612 012d 00       		.byte	0
 613              	@ position:
 614 012e 05       		.byte	5
 615              	@ multiplex:
 616 012f 00       		.byte	0
 617              	@ position:
 618 0130 06       		.byte	6
 619              	@ multiplex:
 620 0131 00       		.byte	0
 621              	@ position:
 622 0132 07       		.byte	7
 623              	@ multiplex:
 624 0133 00       		.byte	0
 625              	@ position:
 626 0134 08       		.byte	8
 627              	@ multiplex:
ARM GAS  /tmp/ccjXaC2Q.s 			page 12


 628 0135 00       		.byte	0
 629              	@ position:
 630 0136 09       		.byte	9
 631              	@ multiplex:
 632 0137 00       		.byte	0
 633              	@ position:
 634 0138 0A       		.byte	10
 635              	@ multiplex:
 636 0139 00       		.byte	0
 637              	@ position:
 638 013a 0B       		.byte	11
 639              	@ multiplex:
 640 013b 00       		.byte	0
 641              	@ position:
 642 013c 0C       		.byte	12
 643              	@ multiplex:
 644 013d 00       		.byte	0
 645              	@ position:
 646 013e 0D       		.byte	13
 647              	@ multiplex:
 648 013f 00       		.byte	0
 649              	@ position:
 650 0140 0E       		.byte	14
 651              	@ multiplex:
 652 0141 00       		.byte	0
 653              	@ position:
 654 0142 0F       		.byte	15
 655              	@ multiplex:
 656 0143 00       		.byte	0
 657              	@ pinSelect:
 658 0144 24C002E0 		.word	-536690652
 659              	@ pin:
 660              	@ position:
 661 0148 00       		.byte	0
 662              	@ multiplex:
 663 0149 00       		.byte	0
 664              	@ position:
 665 014a 01       		.byte	1
 666              	@ multiplex:
 667 014b 00       		.byte	0
 668              	@ position:
 669 014c 02       		.byte	2
 670              	@ multiplex:
 671 014d 00       		.byte	0
 672              	@ position:
 673 014e 03       		.byte	3
 674              	@ multiplex:
 675 014f 00       		.byte	0
 676              	@ position:
 677 0150 04       		.byte	4
 678              	@ multiplex:
 679 0151 00       		.byte	0
 680              	@ position:
 681 0152 05       		.byte	5
 682              	@ multiplex:
 683 0153 00       		.byte	0
 684              	@ position:
ARM GAS  /tmp/ccjXaC2Q.s 			page 13


 685 0154 06       		.byte	6
 686              	@ multiplex:
 687 0155 00       		.byte	0
 688              	@ position:
 689 0156 07       		.byte	7
 690              	@ multiplex:
 691 0157 00       		.byte	0
 692              	@ position:
 693 0158 08       		.byte	8
 694              	@ multiplex:
 695 0159 00       		.byte	0
 696              	@ position:
 697 015a 09       		.byte	9
 698              	@ multiplex:
 699 015b 00       		.byte	0
 700              	@ position:
 701 015c 0A       		.byte	10
 702              	@ multiplex:
 703 015d 00       		.byte	0
 704              	@ position:
 705 015e 0B       		.byte	11
 706              	@ multiplex:
 707 015f 00       		.byte	0
 708              	@ position:
 709 0160 0C       		.byte	12
 710              	@ multiplex:
 711 0161 00       		.byte	0
 712              	@ position:
 713 0162 0D       		.byte	13
 714              	@ multiplex:
 715 0163 00       		.byte	0
 716              	@ position:
 717 0164 0E       		.byte	14
 718              	@ multiplex:
 719 0165 00       		.byte	0
 720              	@ position:
 721 0166 0F       		.byte	15
 722              	@ multiplex:
 723 0167 00       		.byte	0
 724              	@ pinSelect:
 725 0168 00000000 		.word	0
 726              	@ pin:
 727              	@ position:
 728 016c 00       		.byte	0
 729              	@ multiplex:
 730 016d 00       		.byte	0
 731              	@ position:
 732 016e 00       		.byte	0
 733              	@ multiplex:
 734 016f 00       		.byte	0
 735              	@ position:
 736 0170 00       		.byte	0
 737              	@ multiplex:
 738 0171 00       		.byte	0
 739              	@ position:
 740 0172 00       		.byte	0
 741              	@ multiplex:
ARM GAS  /tmp/ccjXaC2Q.s 			page 14


 742 0173 00       		.byte	0
 743              	@ position:
 744 0174 00       		.byte	0
 745              	@ multiplex:
 746 0175 00       		.byte	0
 747              	@ position:
 748 0176 00       		.byte	0
 749              	@ multiplex:
 750 0177 00       		.byte	0
 751              	@ position:
 752 0178 00       		.byte	0
 753              	@ multiplex:
 754 0179 00       		.byte	0
 755              	@ position:
 756 017a 00       		.byte	0
 757              	@ multiplex:
 758 017b 00       		.byte	0
 759              	@ position:
 760 017c 00       		.byte	0
 761              	@ multiplex:
 762 017d 00       		.byte	0
 763              	@ position:
 764 017e 00       		.byte	0
 765              	@ multiplex:
 766 017f 00       		.byte	0
 767              	@ position:
 768 0180 00       		.byte	0
 769              	@ multiplex:
 770 0181 00       		.byte	0
 771              	@ position:
 772 0182 00       		.byte	0
 773              	@ multiplex:
 774 0183 00       		.byte	0
 775              	@ position:
 776 0184 00       		.byte	0
 777              	@ multiplex:
 778 0185 00       		.byte	0
 779              	@ position:
 780 0186 00       		.byte	0
 781              	@ multiplex:
 782 0187 00       		.byte	0
 783              	@ position:
 784 0188 00       		.byte	0
 785              	@ multiplex:
 786 0189 00       		.byte	0
 787              	@ position:
 788 018a 00       		.byte	0
 789              	@ multiplex:
 790 018b 00       		.byte	0
 791              		.comm	VIC_SpuriousInt,4,4
 792              		.global	__aeabi_uidiv
 793              		.section	.rodata
 794              		.align	2
 795              	.LC0:
 796              	@ PLL_M_Mul:
 797 0000 0C00     		.short	12
 798              	@ PLL_N_Div:
ARM GAS  /tmp/ccjXaC2Q.s 			page 15


 799 0002 01       		.byte	1
 800              	@ PLL_Fcco:
 801 0003 00       		.space	1
 802 0004 00882A11 		.word	288000000
 803              	@ CCLK_Div:
 804 0008 06       		.byte	6
 805              	@ MAMMode:
 806 0009 01       		.byte	1
 807              	@ MAMTim:
 808 000a 00       		.byte	0
 809 000b 00       		.space	1
 810              		.text
 811              		.align	2
 812              		.global	initHardware
 813              		.type	initHardware, %function
 814              	initHardware:
 815              	.LFB0:
 816              		.file 1 "src/init.c"
   1:src/init.c    **** /*
   2:src/init.c    ****  * MODULE
   3:src/init.c    ****  *
   4:src/init.c    ****  *   init.c
   5:src/init.c    ****  *
   6:src/init.c    ****  * DESCRIPTION
   7:src/init.c    ****  *
   8:src/init.c    ****  *  Hardware Initialization Routines
   9:src/init.c    ****  *
  10:src/init.c    ****  * PLATFORM
  11:src/init.c    ****  *
  12:src/init.c    ****  *  Olimex LPC-2378-STK
  13:src/init.c    ****  *
  14:src/init.c    ****  * HISTORY
  15:src/init.c    ****  *
  16:src/init.c    ****  *   2007/10/31: Mitch Ishihara:
  17:src/init.c    ****  *     changed PINSEL10 setting to just write the value instead
  18:src/init.c    ****  *       of read-modify-write.
  19:src/init.c    ****  *   2007/10/01: Mitch Ishihara:
  20:src/init.c    ****  *     split init routines from main.c
  21:src/init.c    ****  *     changed MEMMAP to USERRAMMODE to run completely from RAM
  22:src/init.c    ****  *   2007/09/12: Andrew N. Sloss:
  23:src/init.c    ****  *     convert the main.c to use VOLATILExx(<address>) format
  24:src/init.c    ****  *     added 1st draft comments
  25:src/init.c    ****  *   2007/08/21: Andrew N. Sloss:
  26:src/init.c    ****  *     inspired from James Lynch's example code demo2106_blink_flash.
  27:src/init.c    ****  *
  28:src/init.c    ****  * NOTES
  29:src/init.c    ****  *
  30:src/init.c    ****  */
  31:src/init.c    **** 
  32:src/init.c    **** 
  33:src/init.c    **** //#include <cpu.h>
  34:src/init.c    **** #include "lpc2378.h"
  35:src/init.c    **** #include "pins.h"
  36:src/init.c    **** #include "uarts.h"
  37:src/init.c    **** #include "init.h"
  38:src/init.c    **** 
  39:src/init.c    **** 
ARM GAS  /tmp/ccjXaC2Q.s 			page 16


  40:src/init.c    **** /* local functions */
  41:src/init.c    **** static void initPLL(scb2300_t * pSCBParams);
  42:src/init.c    **** static void initPCLK(void);
  43:src/init.c    **** static void initGPIO(void);
  44:src/init.c    **** static void initMAM(INT32U cclk, INT8U mamcr, INT8U mamtim_override);
  45:src/init.c    **** 
  46:src/init.c    **** INT32U  VIC_SpuriousInt;
  47:src/init.c    **** 
  48:src/init.c    **** static void VIC_Init(void);
  49:src/init.c    **** static  void  VIC_Dummy        (void);                          /* Prototypes for dummy interrupt h
  50:src/init.c    **** static  void  VIC_DummyWDT     (void);
  51:src/init.c    **** static  void  VIC_DummySW      (void);
  52:src/init.c    **** static  void  VIC_DummyDEBUGRX (void);
  53:src/init.c    **** static  void  VIC_DummyDEBUGTX (void);
  54:src/init.c    **** static  void  VIC_DummyTIMER0  (void);
  55:src/init.c    **** static  void  VIC_DummyTIMER1  (void);
  56:src/init.c    **** static  void  VIC_DummyUART0   (void);
  57:src/init.c    **** static  void  VIC_DummyUART1   (void);
  58:src/init.c    **** static  void  VIC_DummyPWM01   (void);
  59:src/init.c    **** static  void  VIC_DummyI2C0    (void);
  60:src/init.c    **** static  void  VIC_DummySPI     (void);
  61:src/init.c    **** static  void  VIC_DummySSP1    (void);
  62:src/init.c    **** static  void  VIC_DummyPLL     (void);
  63:src/init.c    **** static  void  VIC_DummyRTC     (void);
  64:src/init.c    **** static  void  VIC_DummyEINT0   (void);
  65:src/init.c    **** static  void  VIC_DummyEINT1   (void);
  66:src/init.c    **** static  void  VIC_DummyEINT2   (void);
  67:src/init.c    **** static  void  VIC_DummyEINT3   (void);
  68:src/init.c    **** static  void  VIC_DummyAD0     (void);
  69:src/init.c    **** static  void  VIC_DummyI2C1    (void);
  70:src/init.c    **** static  void  VIC_DummyBOD     (void);
  71:src/init.c    **** static  void  VIC_DummyETHERNET(void);
  72:src/init.c    **** static  void  VIC_DummyUSB     (void);
  73:src/init.c    **** static  void  VIC_DummyCAN01   (void);
  74:src/init.c    **** static  void  VIC_DummyMMC     (void);
  75:src/init.c    **** static  void  VIC_DummyGP_DMA  (void);
  76:src/init.c    **** static  void  VIC_DummyTIMER2  (void);
  77:src/init.c    **** static  void  VIC_DummyTIMER3  (void);
  78:src/init.c    **** static  void  VIC_DummyUART2   (void);
  79:src/init.c    **** static  void  VIC_DummyUART3   (void);
  80:src/init.c    **** static  void  VIC_DummyI2C2    (void);
  81:src/init.c    **** static  void  VIC_DummyI2S     (void);
  82:src/init.c    **** 
  83:src/init.c    **** /*
  84:src/init.c    ****  * DESCRIPTION:
  85:src/init.c    ****  *
  86:src/init.c    ****  *  initializes all the hardware components.
  87:src/init.c    ****  */
  88:src/init.c    **** void initHardware(void)
  89:src/init.c    **** {
 817              		.loc 1 89 0
 818              		.cfi_startproc
 819              		@ Function supports interworking.
 820              		@ args = 0, pretend = 0, frame = 24
 821              		@ frame_needed = 0, uses_anonymous_args = 0
 822 0000 04E02DE5 		str	lr, [sp, #-4]!	@,
 823              	.LCFI0:
ARM GAS  /tmp/ccjXaC2Q.s 			page 17


 824              		.cfi_def_cfa_offset 4
 825              		.cfi_offset 14, -4
 826 0004 1CD04DE2 		sub	sp, sp, #28	@,,
 827              	.LCFI1:
 828              		.cfi_def_cfa_offset 32
  90:src/init.c    ****     /* Initial SCB Parameters */
  91:src/init.c    ****     scb2300_t SCBParams = {
 829              		.loc 1 91 0
 830 0008 A4209FE5 		ldr	r2, .L2	@ tmp116,
 831 000c 04308DE2 		add	r3, sp, #4	@ tmp117,,
 832 0010 070092E8 		ldmia	r2, {r0, r1, r2}	@ tmp118,,,
 833 0014 070083E8 		stmia	r3, {r0, r1, r2}	@ tmp117,,,
  92:src/init.c    ****         .PLL_M_Mul = 12,           /* PLL Multiplier. Valid values 6 through 512*/
  93:src/init.c    ****         .PLL_N_Div = 1,            /* PLL Divider. Valid values 1 through 32 */
  94:src/init.c    ****         .PLL_Fcco = 288000000,     /* Frequency (Hz) of PLL output */
  95:src/init.c    ****         .CCLK_Div = 6,             /* CPU Clock divider, cclk */
  96:src/init.c    ****         .MAMMode = MAMCR_PARTIAL,  /* MAM mode Partial is the preferred setting for Rev -,A parts *
  97:src/init.c    ****         .MAMTim = MAMTIM_AUTOCFG   /* Let initMAM calculate the optimal MAM timing */
  98:src/init.c    ****     };
  99:src/init.c    **** 
 100:src/init.c    ****     scb2300_t *pSCBParams = &SCBParams;
 834              		.loc 1 100 0
 835 0018 04308DE2 		add	r3, sp, #4	@ tmp119,,
 836 001c 14308DE5 		str	r3, [sp, #20]	@ tmp119, pSCBParams
 101:src/init.c    **** 
 102:src/init.c    **** 	INT32U cclk = pSCBParams->PLL_Fcco/pSCBParams->CCLK_Div;
 837              		.loc 1 102 0
 838 0020 14309DE5 		ldr	r3, [sp, #20]	@ tmp120, pSCBParams
 839 0024 042093E5 		ldr	r2, [r3, #4]	@ D.5212, pSCBParams_1->PLL_Fcco
 840 0028 14309DE5 		ldr	r3, [sp, #20]	@ tmp121, pSCBParams
 841 002c 0830D3E5 		ldrb	r3, [r3, #8]	@ zero_extendqisi2	@ D.5213, pSCBParams_1->CCLK_Div
 842 0030 0200A0E1 		mov	r0, r2	@, D.5212
 843 0034 0310A0E1 		mov	r1, r3	@, D.5212
 844 0038 FEFFFFEB 		bl	__aeabi_uidiv	@
 845 003c 0030A0E1 		mov	r3, r0	@ tmp124,
 846 0040 10308DE5 		str	r3, [sp, #16]	@ tmp124, cclk
 103:src/init.c    **** 	/*
 104:src/init.c    ****      * intialize main hardware components
 105:src/init.c    ****      */
 106:src/init.c    **** 	/* Must turn off MAM before increasing frequency */
 107:src/init.c    ****     initMAM(cclk, MAMCR_OFF, MAMTIM_7_CLK);
 847              		.loc 1 107 0
 848 0044 10009DE5 		ldr	r0, [sp, #16]	@, cclk
 849 0048 0010A0E3 		mov	r1, #0	@,
 850 004c 0720A0E3 		mov	r2, #7	@,
 851 0050 810000EB 		bl	initMAM	@
 108:src/init.c    **** 
 109:src/init.c    ****     initPLL(pSCBParams);
 852              		.loc 1 109 0
 853 0054 14009DE5 		ldr	r0, [sp, #20]	@, pSCBParams
 854 0058 170000EB 		bl	initPLL	@
 110:src/init.c    ****     initMAM(cclk, pSCBParams->MAMMode, pSCBParams->MAMTim);
 855              		.loc 1 110 0
 856 005c 14309DE5 		ldr	r3, [sp, #20]	@ tmp125, pSCBParams
 857 0060 0920D3E5 		ldrb	r2, [r3, #9]	@ zero_extendqisi2	@ D.5213, pSCBParams_1->MAMMode
 858 0064 14309DE5 		ldr	r3, [sp, #20]	@ tmp126, pSCBParams
 859 0068 0A30D3E5 		ldrb	r3, [r3, #10]	@ zero_extendqisi2	@ D.5213, pSCBParams_1->MAMTim
ARM GAS  /tmp/ccjXaC2Q.s 			page 18


 860 006c 10009DE5 		ldr	r0, [sp, #16]	@, cclk
 861 0070 0210A0E1 		mov	r1, r2	@, D.5213
 862 0074 0320A0E1 		mov	r2, r3	@, D.5213
 863 0078 770000EB 		bl	initMAM	@
 111:src/init.c    ****     initPCLK();
 864              		.loc 1 111 0
 865 007c 090100EB 		bl	initPCLK	@
 112:src/init.c    **** 
 113:src/init.c    ****     initGPIO();
 866              		.loc 1 113 0
 867 0080 5D0100EB 		bl	initGPIO	@
 114:src/init.c    **** 
 115:src/init.c    ****     /* intialize specific hardware components for UART0 */
 116:src/init.c    ****     initUART0(38400, UART_8N1, UART_FIFO_OFF, cclk);
 868              		.loc 1 116 0
 869 0084 960CA0E3 		mov	r0, #38400	@,
 870 0088 0310A0E3 		mov	r1, #3	@,
 871 008c 0020A0E3 		mov	r2, #0	@,
 872 0090 10309DE5 		ldr	r3, [sp, #16]	@, cclk
 873 0094 FEFFFFEB 		bl	initUART0	@
 117:src/init.c    **** 
 118:src/init.c    ****     /* MEMMAP Choices are:
 119:src/init.c    ****     BOOTLOADERMODE      0x00
 120:src/init.c    ****     USERFLASHMODE       0x01
 121:src/init.c    ****     USERRAMMODE         0x02
 122:src/init.c    ****     EXTERNALMEMORYMODE  0x03
 123:src/init.c    ****     */
 124:src/init.c    ****     //DMI VOLATILE32(MEMMAP) = USERRAMMODE;
 125:src/init.c    ****     P_SCB_REGS->MEMMAP = USERFLASHMODE;
 874              		.loc 1 125 0
 875 0098 18309FE5 		ldr	r3, .L2+4	@ D.5214,
 876 009c 0120A0E3 		mov	r2, #1	@ tmp127,
 877 00a0 4020C3E5 		strb	r2, [r3, #64]	@ tmp128, _8->MEMMAP
 126:src/init.c    **** 
 127:src/init.c    ****     VIC_Init();
 878              		.loc 1 127 0
 879 00a4 DA0100EB 		bl	VIC_Init	@
 128:src/init.c    **** }
 880              		.loc 1 128 0
 881 00a8 1CD08DE2 		add	sp, sp, #28	@,,
 882              		@ sp needed	@
 883 00ac 04E09DE4 		ldr	lr, [sp], #4	@,
 884 00b0 1EFF2FE1 		bx	lr	@
 885              	.L3:
 886              		.align	2
 887              	.L2:
 888 00b4 00000000 		.word	.LC0
 889 00b8 00C01FE0 		.word	-534790144
 890              		.cfi_endproc
 891              	.LFE0:
 892              		.size	initHardware, .-initHardware
 893              		.align	2
 894              		.type	initPLL, %function
 895              	initPLL:
 896              	.LFB1:
 129:src/init.c    **** 
 130:src/init.c    **** 
ARM GAS  /tmp/ccjXaC2Q.s 			page 19


 131:src/init.c    **** /******************************************************************************
 132:src/init.c    ****  *
 133:src/init.c    ****  * DESCRIPTION
 134:src/init.c    ****  *
 135:src/init.c    ****  *  This init is specific to the 2300 family of devices.
 136:src/init.c    ****  *
 137:src/init.c    ****  * NOTES
 138:src/init.c    ****  *
 139:src/init.c    ****  *  Taken from the LPC2378 User Manual:
 140:src/init.c    ****  *
 141:src/init.c    ****  *   5.14 PLL setup sequence
 142:src/init.c    ****  *
 143:src/init.c    ****  *   The following sequence must be followed step by step in order to
 144:src/init.c    ****  *   have the PLL initialized an running:
 145:src/init.c    ****  *
 146:src/init.c    ****  *   1. Disconnect the PLL with one feed sequence if PLL is already
 147:src/init.c    ****  *      connected.
 148:src/init.c    ****  *   2. Disable the PLL with one feed sequence.
 149:src/init.c    ****  *   3. Change the CPU Clock Divider setting to speed up operation without
 150:src/init.c    ****  *      the PLL, if desired.
 151:src/init.c    ****  *   4. Write to the Clock Source Selection Control register to change the
 152:src/init.c    ****  *      clock source.
 153:src/init.c    ****  *   5. Write to the PLLCFG and make it effective with one feed sequence.
 154:src/init.c    ****  *      The PLLCFG can only be updated when the PLL is disabled.
 155:src/init.c    ****  *   6. Enable the PLL with one feed sequence.
 156:src/init.c    ****  *   7. Change the CPU Clock Divider setting for the operation with the
 157:src/init.c    ****  *      PLL. It's critical to do this before connecting the PLL.
 158:src/init.c    ****  *   8. Wait for the PLL to achieve lock by monitoring the PLOCK bit in the
 159:src/init.c    ****  *      PLLSTAT register, or using the PLOCK interrupt, or wait for a fixed
 160:src/init.c    ****  *      time when the input clock to PLL is slow (i.e. 32 kHz). The value of
 161:src/init.c    ****  *      PLOCK may not be stable when the PLL reference frequency (FREF, the
 162:src/init.c    ****  *      frequency of REFCLK, which is equal to the PLL input frequency divided
 163:src/init.c    ****  *      by the pre-divider value) is less than 100 kHz or greater than 20
 164:src/init.c    ****  *      MHz. In these cases, the PLL may be assumed to be stable after a
 165:src/init.c    ****  *      start-up time has passed. This time is 500 us when FREF is
 166:src/init.c    ****  *      greater than 400 kHz and 200 / FREF seconds when FREF is less than
 167:src/init.c    ****  *      400kHz.
 168:src/init.c    ****  *   9. Connect the PLL with one feed sequence.
 169:src/init.c    ****  *
 170:src/init.c    ****  *   It's very important not to merge any steps above. For example, don't
 171:src/init.c    ****  *   update the PLLCFG and enable the PLL simultaneously with the same feed
 172:src/init.c    ****  *   sequence.
 173:src/init.c    ****  *
 174:src/init.c    ****  *
 175:src/init.c    ****  *  This implementation is fixed as follows:
 176:src/init.c    ****  * 1. Uses the main oscillator
 177:src/init.c    ****  * 2. PLL Fcco is fixed at compile time at 288 MHz using external defines
 178:src/init.c    ****  * 3. It also sets the CCLK to a known stable 48 MHz
 179:src/init.c    ****  */
 180:src/init.c    **** static void initPLL(scb2300_t * pSCBParams)
 181:src/init.c    **** {
 897              		.loc 1 181 0
 898              		.cfi_startproc
 899              		@ Function supports interworking.
 900              		@ args = 0, pretend = 0, frame = 16
 901              		@ frame_needed = 0, uses_anonymous_args = 0
 902              		@ link register save eliminated.
ARM GAS  /tmp/ccjXaC2Q.s 			page 20


 903 00bc 10D04DE2 		sub	sp, sp, #16	@,,
 904              	.LCFI2:
 905              		.cfi_def_cfa_offset 16
 906 00c0 04008DE5 		str	r0, [sp, #4]	@ pSCBParams, pSCBParams
 182:src/init.c    **** 	INT32U pllcfg;
 183:src/init.c    **** 
 184:src/init.c    **** 	/* [1] Check if PLL connected, disconnect if yes. */
 185:src/init.c    ****     if ((P_SCB_REGS->PLLSTAT) & PLLSTAT_PLLC)
 907              		.loc 1 185 0
 908 00c4 8C319FE5 		ldr	r3, .L11	@ D.5215,
 909 00c8 883093E5 		ldr	r3, [r3, #136]	@ D.5216, _1->PLLSTAT
 910 00cc 023403E2 		and	r3, r3, #33554432	@ D.5216, D.5216,
 911 00d0 000053E3 		cmp	r3, #0	@ D.5216,
 912 00d4 0800000A 		beq	.L5	@,
 186:src/init.c    ****     {
 187:src/init.c    ****     	P_SCB_REGS->PLLCON = PLLCON_PLLE;
 913              		.loc 1 187 0
 914 00d8 78319FE5 		ldr	r3, .L11	@ D.5215,
 915 00dc 0120A0E3 		mov	r2, #1	@ tmp157,
 916 00e0 8020C3E5 		strb	r2, [r3, #128]	@ tmp158, _4->PLLCON
 188:src/init.c    ****         /* Enable PLL, disconnected ( PLLC = 0)*/
 189:src/init.c    ****     	P_SCB_REGS->PLLFEED = 0xAA;
 917              		.loc 1 189 0
 918 00e4 6C319FE5 		ldr	r3, .L11	@ D.5215,
 919 00e8 5520E0E3 		mvn	r2, #85	@ tmp159,
 920 00ec 8C20C3E5 		strb	r2, [r3, #140]	@ tmp160, _5->PLLFEED
 190:src/init.c    ****     	P_SCB_REGS->PLLFEED = 0x55;
 921              		.loc 1 190 0
 922 00f0 60319FE5 		ldr	r3, .L11	@ D.5215,
 923 00f4 5520A0E3 		mov	r2, #85	@ tmp161,
 924 00f8 8C20C3E5 		strb	r2, [r3, #140]	@ tmp162, _6->PLLFEED
 925              	.L5:
 191:src/init.c    ****     }
 192:src/init.c    **** 
 193:src/init.c    ****     /* [2] Disable the PLL once it has been disconnected. */
 194:src/init.c    ****     P_SCB_REGS->PLLCON  = 0;
 926              		.loc 1 194 0
 927 00fc 54319FE5 		ldr	r3, .L11	@ D.5215,
 928 0100 0020A0E3 		mov	r2, #0	@ tmp163,
 929 0104 8020C3E5 		strb	r2, [r3, #128]	@ tmp164, _7->PLLCON
 195:src/init.c    ****     P_SCB_REGS->PLLFEED = 0xAA;
 930              		.loc 1 195 0
 931 0108 48319FE5 		ldr	r3, .L11	@ D.5215,
 932 010c 5520E0E3 		mvn	r2, #85	@ tmp165,
 933 0110 8C20C3E5 		strb	r2, [r3, #140]	@ tmp166, _8->PLLFEED
 196:src/init.c    ****     P_SCB_REGS->PLLFEED = 0x55;
 934              		.loc 1 196 0
 935 0114 3C319FE5 		ldr	r3, .L11	@ D.5215,
 936 0118 5520A0E3 		mov	r2, #85	@ tmp167,
 937 011c 8C20C3E5 		strb	r2, [r3, #140]	@ tmp168, _9->PLLFEED
 197:src/init.c    **** 
 198:src/init.c    ****     /* [3] Change the CPU Clock Divider setting
 199:src/init.c    ****      * to speed up operation without the PLL, if desired.
 200:src/init.c    ****      * We're going to divide by 1 for maximum non-PLL clock speed.
 201:src/init.c    ****      * NOTE: CCLKCFG adds one internally so we must subtract one */
 202:src/init.c    ****     P_SCB_REGS->CCLKCFG = (CCLK_DIV_1 - 1);
 938              		.loc 1 202 0
ARM GAS  /tmp/ccjXaC2Q.s 			page 21


 939 0120 30319FE5 		ldr	r3, .L11	@ D.5215,
 940 0124 0020A0E3 		mov	r2, #0	@ tmp169,
 941 0128 0421C3E5 		strb	r2, [r3, #260]	@ tmp170, _10->CCLKCFG
 203:src/init.c    **** 
 204:src/init.c    ****     /* [4] Enable the main oscillator, select clock source  */
 205:src/init.c    ****     P_SCB_REGS->SCS |= SCS_OSCEN;
 942              		.loc 1 205 0
 943 012c 24319FE5 		ldr	r3, .L11	@ D.5215,
 944 0130 20219FE5 		ldr	r2, .L11	@ D.5215,
 945 0134 A02192E5 		ldr	r2, [r2, #416]	@ D.5216, _12->SCS
 946 0138 202082E3 		orr	r2, r2, #32	@ D.5216, D.5216,
 947 013c A02183E5 		str	r2, [r3, #416]	@ D.5216, _11->SCS
 948              	.L6:
 206:src/init.c    **** 
 207:src/init.c    ****     /* Wait until main OSC is usable */
 208:src/init.c    ****     do {} while ((P_SCB_REGS->SCS & SCS_OSCSTAT) == 0);
 949              		.loc 1 208 0 discriminator 1
 950 0140 10319FE5 		ldr	r3, .L11	@ D.5215,
 951 0144 A03193E5 		ldr	r3, [r3, #416]	@ D.5216, _15->SCS
 952 0148 403003E2 		and	r3, r3, #64	@ D.5216, D.5216,
 953 014c 000053E3 		cmp	r3, #0	@ D.5216,
 954 0150 FAFFFF0A 		beq	.L6	@,
 209:src/init.c    **** 
 210:src/init.c    ****     /* Select the main osc as the PLL clk source. */
 211:src/init.c    ****     P_SCB_REGS->CLKSRCSEL = CLKSRC_MAIN_OSC;
 955              		.loc 1 211 0
 956 0154 FC309FE5 		ldr	r3, .L11	@ D.5215,
 957 0158 0120A0E3 		mov	r2, #1	@ tmp171,
 958 015c 0C21C3E5 		strb	r2, [r3, #268]	@ tmp172, _18->CLKSRCSEL
 212:src/init.c    **** 
 213:src/init.c    ****     /*
 214:src/init.c    ****      * NOTES:
 215:src/init.c    ****      *
 216:src/init.c    ****      * Set multiplier and divider values.
 217:src/init.c    ****      *
 218:src/init.c    ****      *  PLLCFG = ((N - 1) << 16) + (M - 1)
 219:src/init.c    ****      *
 220:src/init.c    ****      *  F_cco = (2 * M *F_in)/N
 221:src/init.c    ****      *      M = 12, N = 1, F_in = 12.000 MHz -> F_cco = 288.000 MHz
 222:src/init.c    ****      *
 223:src/init.c    ****      */
 224:src/init.c    ****     /* [5] Write to the PLLCFG and make it effective with feed sequence */
 225:src/init.c    ****     pllcfg = (((pSCBParams->PLL_N_Div - 1) << 16) + ((pSCBParams->PLL_M_Mul - 1) << 0));
 959              		.loc 1 225 0
 960 0160 04309DE5 		ldr	r3, [sp, #4]	@ tmp173, pSCBParams
 961 0164 0230D3E5 		ldrb	r3, [r3, #2]	@ zero_extendqisi2	@ D.5217, pSCBParams_19(D)->PLL_N_Div
 962 0168 013043E2 		sub	r3, r3, #1	@ D.5218, D.5218,
 963 016c 0328A0E1 		mov	r2, r3, asl #16	@ D.5218, D.5218,
 964 0170 04309DE5 		ldr	r3, [sp, #4]	@ tmp174, pSCBParams
 965 0174 B030D3E1 		ldrh	r3, [r3]	@ D.5219, pSCBParams_19(D)->PLL_M_Mul
 966 0178 013043E2 		sub	r3, r3, #1	@ D.5218, D.5218,
 967 017c 033082E0 		add	r3, r2, r3	@ D.5218, D.5218, D.5218
 968 0180 0C308DE5 		str	r3, [sp, #12]	@ D.5218, pllcfg
 226:src/init.c    ****     P_SCB_REGS->PLLCFG = pllcfg;
 969              		.loc 1 226 0
 970 0184 CC309FE5 		ldr	r3, .L11	@ D.5215,
 971 0188 0C209DE5 		ldr	r2, [sp, #12]	@ tmp175, pllcfg
ARM GAS  /tmp/ccjXaC2Q.s 			page 22


 972 018c 842083E5 		str	r2, [r3, #132]	@ tmp175, _29->PLLCFG
 227:src/init.c    ****     P_SCB_REGS->PLLFEED = 0xAA;
 973              		.loc 1 227 0
 974 0190 C0309FE5 		ldr	r3, .L11	@ D.5215,
 975 0194 5520E0E3 		mvn	r2, #85	@ tmp176,
 976 0198 8C20C3E5 		strb	r2, [r3, #140]	@ tmp177, _30->PLLFEED
 228:src/init.c    ****     P_SCB_REGS->PLLFEED = 0x55;
 977              		.loc 1 228 0
 978 019c B4309FE5 		ldr	r3, .L11	@ D.5215,
 979 01a0 5520A0E3 		mov	r2, #85	@ tmp178,
 980 01a4 8C20C3E5 		strb	r2, [r3, #140]	@ tmp179, _31->PLLFEED
 229:src/init.c    **** 
 230:src/init.c    ****     /* [6] Enable the PLL and make it effective with feed sequence */
 231:src/init.c    ****     P_SCB_REGS->PLLCON  = PLLCON_PLLE;
 981              		.loc 1 231 0
 982 01a8 A8309FE5 		ldr	r3, .L11	@ D.5215,
 983 01ac 0120A0E3 		mov	r2, #1	@ tmp180,
 984 01b0 8020C3E5 		strb	r2, [r3, #128]	@ tmp181, _32->PLLCON
 232:src/init.c    ****     P_SCB_REGS->PLLFEED = 0xAA;
 985              		.loc 1 232 0
 986 01b4 9C309FE5 		ldr	r3, .L11	@ D.5215,
 987 01b8 5520E0E3 		mvn	r2, #85	@ tmp182,
 988 01bc 8C20C3E5 		strb	r2, [r3, #140]	@ tmp183, _33->PLLFEED
 233:src/init.c    ****     P_SCB_REGS->PLLFEED = 0x55;
 989              		.loc 1 233 0
 990 01c0 90309FE5 		ldr	r3, .L11	@ D.5215,
 991 01c4 5520A0E3 		mov	r2, #85	@ tmp184,
 992 01c8 8C20C3E5 		strb	r2, [r3, #140]	@ tmp185, _34->PLLFEED
 234:src/init.c    **** 
 235:src/init.c    ****     /* [7] Change the CPU Clock Divider setting for the operation with the PLL.
 236:src/init.c    ****      *     It's critical to do this before connecting the PLL.
 237:src/init.c    ****      * NOTE: CCLKCFG adds one internally so we must subtract one
 238:src/init.c    ****      * Divide F_cco down to get the CCLK output. */
 239:src/init.c    ****     P_SCB_REGS->CCLKCFG = (pSCBParams->CCLK_Div - 1);
 993              		.loc 1 239 0
 994 01cc 84309FE5 		ldr	r3, .L11	@ D.5215,
 995 01d0 04209DE5 		ldr	r2, [sp, #4]	@ tmp186, pSCBParams
 996 01d4 0820D2E5 		ldrb	r2, [r2, #8]	@ zero_extendqisi2	@ D.5217, pSCBParams_19(D)->CCLK_Div
 997 01d8 012042E2 		sub	r2, r2, #1	@ tmp187, D.5217,
 998 01dc FF2002E2 		and	r2, r2, #255	@ D.5217, tmp187,
 999 01e0 0421C3E5 		strb	r2, [r3, #260]	@ tmp188, _35->CCLKCFG
 1000              	.L7:
 240:src/init.c    **** 
 241:src/init.c    ****     /* [8] Wait for the PLL to lock to set frequency
 242:src/init.c    ****      * TODO: Add timeout for slow FREF */
 243:src/init.c    ****     do {} while(((P_SCB_REGS->PLLSTAT) & PLLSTAT_PLOCK) == 0);
 1001              		.loc 1 243 0 discriminator 1
 1002 01e4 6C309FE5 		ldr	r3, .L11	@ D.5215,
 1003 01e8 883093E5 		ldr	r3, [r3, #136]	@ D.5216, _38->PLLSTAT
 1004 01ec 013303E2 		and	r3, r3, #67108864	@ D.5216, D.5216,
 1005 01f0 000053E3 		cmp	r3, #0	@ D.5216,
 1006 01f4 FAFFFF0A 		beq	.L7	@,
 1007              	.L8:
 244:src/init.c    ****     do {} while(((P_SCB_REGS->PLLSTAT) & 0x00FF7FFF) != pllcfg);
 1008              		.loc 1 244 0 discriminator 1
 1009 01f8 58309FE5 		ldr	r3, .L11	@ D.5215,
 1010 01fc 883093E5 		ldr	r3, [r3, #136]	@ D.5216, _41->PLLSTAT
ARM GAS  /tmp/ccjXaC2Q.s 			page 23


 1011 0200 FF34C3E3 		bic	r3, r3, #-16777216	@ D.5216, D.5216,
 1012 0204 0239C3E3 		bic	r3, r3, #32768	@ D.5216, D.5216,
 1013 0208 0C209DE5 		ldr	r2, [sp, #12]	@ tmp189, pllcfg
 1014 020c 020053E1 		cmp	r3, r2	@ D.5216, tmp189
 1015 0210 F8FFFF1A 		bne	.L8	@,
 245:src/init.c    **** 
 246:src/init.c    ****     /* [9] Enable and connect the PLL as the clock source */
 247:src/init.c    ****     P_SCB_REGS->PLLCON = (PLLCON_PLLE | PLLCON_PLLC);
 1016              		.loc 1 247 0
 1017 0214 3C309FE5 		ldr	r3, .L11	@ D.5215,
 1018 0218 0320A0E3 		mov	r2, #3	@ tmp190,
 1019 021c 8020C3E5 		strb	r2, [r3, #128]	@ tmp191, _44->PLLCON
 248:src/init.c    ****     P_SCB_REGS->PLLFEED = 0xAA;
 1020              		.loc 1 248 0
 1021 0220 30309FE5 		ldr	r3, .L11	@ D.5215,
 1022 0224 5520E0E3 		mvn	r2, #85	@ tmp192,
 1023 0228 8C20C3E5 		strb	r2, [r3, #140]	@ tmp193, _45->PLLFEED
 249:src/init.c    ****     P_SCB_REGS->PLLFEED = 0x55;
 1024              		.loc 1 249 0
 1025 022c 24309FE5 		ldr	r3, .L11	@ D.5215,
 1026 0230 5520A0E3 		mov	r2, #85	@ tmp194,
 1027 0234 8C20C3E5 		strb	r2, [r3, #140]	@ tmp195, _46->PLLFEED
 1028              	.L9:
 250:src/init.c    **** 
 251:src/init.c    ****     /* Check connect bit status and wait for connection. */
 252:src/init.c    ****     do {} while(((P_SCB_REGS->PLLSTAT) & PLLSTAT_PLLC) == 0);
 1029              		.loc 1 252 0 discriminator 1
 1030 0238 18309FE5 		ldr	r3, .L11	@ D.5215,
 1031 023c 883093E5 		ldr	r3, [r3, #136]	@ D.5216, _47->PLLSTAT
 1032 0240 023403E2 		and	r3, r3, #33554432	@ D.5216, D.5216,
 1033 0244 000053E3 		cmp	r3, #0	@ D.5216,
 1034 0248 FAFFFF0A 		beq	.L9	@,
 253:src/init.c    **** 
 254:src/init.c    ****     return;
 1035              		.loc 1 254 0
 1036 024c 0000A0E1 		mov	r0, r0	@ nop
 255:src/init.c    **** }
 1037              		.loc 1 255 0
 1038 0250 10D08DE2 		add	sp, sp, #16	@,,
 1039              		@ sp needed	@
 1040 0254 1EFF2FE1 		bx	lr	@
 1041              	.L12:
 1042              		.align	2
 1043              	.L11:
 1044 0258 00C01FE0 		.word	-534790144
 1045              		.cfi_endproc
 1046              	.LFE1:
 1047              		.size	initPLL, .-initPLL
 1048              		.align	2
 1049              		.type	initMAM, %function
 1050              	initMAM:
 1051              	.LFB2:
 256:src/init.c    **** 
 257:src/init.c    **** /*
 258:src/init.c    ****  * DESCRIPTION
 259:src/init.c    ****  *
 260:src/init.c    ****  * enable the MAM accelerator and sets number of clocks used for
ARM GAS  /tmp/ccjXaC2Q.s 			page 24


 261:src/init.c    ****  * flash memory fetch.
 262:src/init.c    ****  *
 263:src/init.c    ****  * PARAMETERS
 264:src/init.c    ****  * cclk : CPU Clock Frequency
 265:src/init.c    ****  * mamcr: MAM mode MAMCR_OFF, MAMCR_PARTIAL, or MAMCR_FULL
 266:src/init.c    ****  *
 267:src/init.c    ****  * EXAMPLE
 268:src/init.c    ****  *
 269:src/init.c    ****  *   initMAM(12000000, MAMCR_PARTIAL);
 270:src/init.c    ****  */
 271:src/init.c    **** 
 272:src/init.c    **** static void initMAM(INT32U cclk, INT8U mamcr, INT8U mamtim_override)
 273:src/init.c    **** {
 1052              		.loc 1 273 0
 1053              		.cfi_startproc
 1054              		@ Function supports interworking.
 1055              		@ args = 0, pretend = 0, frame = 8
 1056              		@ frame_needed = 0, uses_anonymous_args = 0
 1057              		@ link register save eliminated.
 1058 025c 08D04DE2 		sub	sp, sp, #8	@,,
 1059              	.LCFI3:
 1060              		.cfi_def_cfa_offset 8
 1061 0260 04008DE5 		str	r0, [sp, #4]	@ cclk, cclk
 1062 0264 0230A0E1 		mov	r3, r2	@ tmp119, mamtim_override
 1063 0268 0120A0E1 		mov	r2, r1	@ tmp118, tmp117
 1064 026c 0320CDE5 		strb	r2, [sp, #3]	@ tmp118, mamcr
 1065 0270 0230CDE5 		strb	r3, [sp, #2]	@ tmp120, mamtim_override
 274:src/init.c    ****     /* disable MAM */
 275:src/init.c    **** 	P_SCB_REGS->MAMCR	= MAMCR_OFF;
 1066              		.loc 1 275 0
 1067 0274 64309FE5 		ldr	r3, .L16	@ D.5220,
 1068 0278 0020A0E3 		mov	r2, #0	@ tmp121,
 1069 027c 0020C3E5 		strb	r2, [r3]	@ tmp122, _1->MAMCR
 276:src/init.c    **** 
 277:src/init.c    **** 	/* Either set according to override parameter or optimally calculate */
 278:src/init.c    **** 	if( (0 < mamtim_override) && (mamtim_override <= MAMTIM_MAX_CLK) )
 1070              		.loc 1 278 0
 1071 0280 0230DDE5 		ldrb	r3, [sp, #2]	@ zero_extendqisi2	@ tmp123, mamtim_override
 1072 0284 000053E3 		cmp	r3, #0	@ tmp123,
 1073 0288 0600000A 		beq	.L14	@,
 1074              		.loc 1 278 0 is_stmt 0 discriminator 1
 1075 028c 0230DDE5 		ldrb	r3, [sp, #2]	@ zero_extendqisi2	@ tmp124, mamtim_override
 1076 0290 070053E3 		cmp	r3, #7	@ tmp124,
 1077 0294 0300008A 		bhi	.L14	@,
 279:src/init.c    **** 	{
 280:src/init.c    **** 		P_SCB_REGS->MAMTIM	= mamtim_override;
 1078              		.loc 1 280 0 is_stmt 1
 1079 0298 40309FE5 		ldr	r3, .L16	@ D.5220,
 1080 029c 0220DDE5 		ldrb	r2, [sp, #2]	@ tmp125, mamtim_override
 1081 02a0 0420C3E5 		strb	r2, [r3, #4]	@ tmp125, _3->MAMTIM
 1082 02a4 080000EA 		b	.L15	@
 1083              	.L14:
 281:src/init.c    **** 	}
 282:src/init.c    **** 	else /* if( (mamtim_override == 0) || MAMTIM_MAX_CLK < mamtim_override  ) */
 283:src/init.c    **** 	{
 284:src/init.c    **** 		P_SCB_REGS->MAMTIM	= (((cclk)+19999999)/20000000); /* stable setting */
 1084              		.loc 1 284 0
ARM GAS  /tmp/ccjXaC2Q.s 			page 25


 1085 02a8 30209FE5 		ldr	r2, .L16	@ D.5220,
 1086 02ac 04109DE5 		ldr	r1, [sp, #4]	@ tmp126, cclk
 1087 02b0 2C309FE5 		ldr	r3, .L16+4	@ D.5221,
 1088 02b4 033081E0 		add	r3, r1, r3	@ D.5221, tmp126, D.5221
 1089 02b8 28109FE5 		ldr	r1, .L16+8	@ tmp128,
 1090 02bc 910383E0 		umull	r0, r3, r1, r3	@, tmp127, tmp128, D.5221
 1091 02c0 A33BA0E1 		mov	r3, r3, lsr #23	@ D.5221, tmp127,
 1092 02c4 FF3003E2 		and	r3, r3, #255	@ D.5222, D.5221,
 1093 02c8 0430C2E5 		strb	r3, [r2, #4]	@ tmp129, _4->MAMTIM
 1094              	.L15:
 285:src/init.c    **** 	}
 286:src/init.c    **** 
 287:src/init.c    **** 	P_SCB_REGS->MAMCR	= mamcr;
 1095              		.loc 1 287 0
 1096 02cc 0C309FE5 		ldr	r3, .L16	@ D.5220,
 1097 02d0 0320DDE5 		ldrb	r2, [sp, #3]	@ tmp130, mamcr
 1098 02d4 0020C3E5 		strb	r2, [r3]	@ tmp130, _9->MAMCR
 288:src/init.c    **** }
 1099              		.loc 1 288 0
 1100 02d8 08D08DE2 		add	sp, sp, #8	@,,
 1101              		@ sp needed	@
 1102 02dc 1EFF2FE1 		bx	lr	@
 1103              	.L17:
 1104              		.align	2
 1105              	.L16:
 1106 02e0 00C01FE0 		.word	-534790144
 1107 02e4 FF2C3101 		.word	19999999
 1108 02e8 6BCA5F6B 		.word	1801439851
 1109              		.cfi_endproc
 1110              	.LFE2:
 1111              		.size	initMAM, .-initMAM
 1112              		.align	2
 1113              		.global	initCCLK
 1114              		.type	initCCLK, %function
 1115              	initCCLK:
 1116              	.LFB3:
 289:src/init.c    **** 
 290:src/init.c    **** /*
 291:src/init.c    ****  * NAME
 292:src/init.c    ****  *
 293:src/init.c    ****  * initCCLK
 294:src/init.c    ****  *
 295:src/init.c    ****  * DESCRIPTION
 296:src/init.c    ****  *
 297:src/init.c    ****  * Set the cclk for CPU sub-system.
 298:src/init.c    ****  *
 299:src/init.c    ****  * PARAMETER
 300:src/init.c    ****  *
 301:src/init.c    ****  * none...
 302:src/init.c    ****  *
 303:src/init.c    ****  * EXAMPLE
 304:src/init.c    ****  *
 305:src/init.c    ****  *   initCCLK();
 306:src/init.c    ****  *
 307:src/init.c    ****  * NOTES
 308:src/init.c    ****  *
 309:src/init.c    ****  *  none...
ARM GAS  /tmp/ccjXaC2Q.s 			page 26


 310:src/init.c    ****  *
 311:src/init.c    ****  */
 312:src/init.c    **** 
 313:src/init.c    **** void initCCLK( scb2300_t * pSCBParams )
 314:src/init.c    **** {
 1117              		.loc 1 314 0
 1118              		.cfi_startproc
 1119              		@ Function supports interworking.
 1120              		@ args = 0, pretend = 0, frame = 8
 1121              		@ frame_needed = 0, uses_anonymous_args = 0
 1122 02ec 10402DE9 		stmfd	sp!, {r4, lr}	@,
 1123              	.LCFI4:
 1124              		.cfi_def_cfa_offset 8
 1125              		.cfi_offset 4, -8
 1126              		.cfi_offset 14, -4
 1127 02f0 08D04DE2 		sub	sp, sp, #8	@,,
 1128              	.LCFI5:
 1129              		.cfi_def_cfa_offset 16
 1130 02f4 04008DE5 		str	r0, [sp, #4]	@ pSCBParams, pSCBParams
 315:src/init.c    ****     /* Divide F_cco down to get the cclk Divider. (Fcco / cclk = clock divider)
 316:src/init.c    ****      * NOTE: CCLKCFG adds one internally so we must subtract one */
 317:src/init.c    **** 	P_SCB_REGS->CCLKCFG = ((pSCBParams->PLL_Fcco/pSCBParams->CCLK_Div) - 1);
 1131              		.loc 1 317 0
 1132 02f8 3C409FE5 		ldr	r4, .L20	@ D.5223,
 1133 02fc 04309DE5 		ldr	r3, [sp, #4]	@ tmp117, pSCBParams
 1134 0300 042093E5 		ldr	r2, [r3, #4]	@ D.5224, pSCBParams_2(D)->PLL_Fcco
 1135 0304 04309DE5 		ldr	r3, [sp, #4]	@ tmp118, pSCBParams
 1136 0308 0830D3E5 		ldrb	r3, [r3, #8]	@ zero_extendqisi2	@ D.5225, pSCBParams_2(D)->CCLK_Div
 1137 030c 0200A0E1 		mov	r0, r2	@, D.5224
 1138 0310 0310A0E1 		mov	r1, r3	@, D.5224
 1139 0314 FEFFFFEB 		bl	__aeabi_uidiv	@
 1140 0318 0030A0E1 		mov	r3, r0	@ tmp121,
 1141 031c FF3003E2 		and	r3, r3, #255	@ D.5225, D.5224,
 1142 0320 013043E2 		sub	r3, r3, #1	@ tmp122, D.5225,
 1143 0324 FF3003E2 		and	r3, r3, #255	@ D.5225, tmp122,
 1144 0328 0431C4E5 		strb	r3, [r4, #260]	@ tmp123, _1->CCLKCFG
 318:src/init.c    **** 
 319:src/init.c    ****     return;
 1145              		.loc 1 319 0
 1146 032c 0000A0E1 		mov	r0, r0	@ nop
 320:src/init.c    **** }
 1147              		.loc 1 320 0
 1148 0330 08D08DE2 		add	sp, sp, #8	@,,
 1149              		@ sp needed	@
 1150 0334 1040BDE8 		ldmfd	sp!, {r4, lr}	@
 1151 0338 1EFF2FE1 		bx	lr	@
 1152              	.L21:
 1153              		.align	2
 1154              	.L20:
 1155 033c 00C01FE0 		.word	-534790144
 1156              		.cfi_endproc
 1157              	.LFE3:
 1158              		.size	initCCLK, .-initCCLK
 1159              		.align	2
 1160              		.global	getFcclk
 1161              		.type	getFcclk, %function
 1162              	getFcclk:
ARM GAS  /tmp/ccjXaC2Q.s 			page 27


 1163              	.LFB4:
 321:src/init.c    **** 
 322:src/init.c    **** 
 323:src/init.c    **** INT32U getFcclk( void )
 324:src/init.c    **** {
 1164              		.loc 1 324 0
 1165              		.cfi_startproc
 1166              		@ Function supports interworking.
 1167              		@ args = 0, pretend = 0, frame = 32
 1168              		@ frame_needed = 0, uses_anonymous_args = 0
 1169 0340 04E02DE5 		str	lr, [sp, #-4]!	@,
 1170              	.LCFI6:
 1171              		.cfi_def_cfa_offset 4
 1172              		.cfi_offset 14, -4
 1173 0344 24D04DE2 		sub	sp, sp, #36	@,,
 1174              	.LCFI7:
 1175              		.cfi_def_cfa_offset 40
 325:src/init.c    ****     INT32U Fosc;
 326:src/init.c    ****     INT32U Fpllclk;
 327:src/init.c    ****     INT32U Fcclk;
 328:src/init.c    ****     INT8U  clksrcsel;
 329:src/init.c    ****     INT32U pllstat;
 330:src/init.c    ****     INT16U M_mul;
 331:src/init.c    ****     INT8U  N_div;
 332:src/init.c    ****     INT8U  plle;
 333:src/init.c    ****     INT8U  pllc;
 334:src/init.c    **** 
 335:src/init.c    **** 	/* Determine Fosc from configured clock source */
 336:src/init.c    ****     clksrcsel = P_SCB_REGS->CLKSRCSEL;
 1176              		.loc 1 336 0
 1177 0348 4C319FE5 		ldr	r3, .L30	@ D.5227,
 1178 034c 0C31D3E5 		ldrb	r3, [r3, #268]	@ tmp138, _4->CLKSRCSEL
 1179 0350 1730CDE5 		strb	r3, [sp, #23]	@ tmp138, clksrcsel
 337:src/init.c    ****     if( (clksrcsel & CLKSRCSEL_MASK) == CLKSRC_INT_RC )
 1180              		.loc 1 337 0
 1181 0354 1730DDE5 		ldrb	r3, [sp, #23]	@ zero_extendqisi2	@ D.5228, clksrcsel
 1182 0358 033003E2 		and	r3, r3, #3	@ D.5228, D.5228,
 1183 035c 000053E3 		cmp	r3, #0	@ D.5228,
 1184 0360 0200001A 		bne	.L23	@,
 338:src/init.c    ****     {
 339:src/init.c    ****     	Fosc = FOSC_INT_RC;
 1185              		.loc 1 339 0
 1186 0364 34319FE5 		ldr	r3, .L30+4	@ tmp139,
 1187 0368 1C308DE5 		str	r3, [sp, #28]	@ tmp139, Fosc
 1188 036c 0F0000EA 		b	.L24	@
 1189              	.L23:
 340:src/init.c    ****     }
 341:src/init.c    ****     else if( (clksrcsel & CLKSRCSEL_MASK) == CLKSRC_MAIN_OSC )
 1190              		.loc 1 341 0
 1191 0370 1730DDE5 		ldrb	r3, [sp, #23]	@ zero_extendqisi2	@ D.5228, clksrcsel
 1192 0374 033003E2 		and	r3, r3, #3	@ D.5228, D.5228,
 1193 0378 010053E3 		cmp	r3, #1	@ D.5228,
 1194 037c 0200001A 		bne	.L25	@,
 342:src/init.c    ****     {
 343:src/init.c    ****     	Fosc = FOSC_MAIN;
 1195              		.loc 1 343 0
 1196 0380 1C319FE5 		ldr	r3, .L30+8	@ tmp140,
ARM GAS  /tmp/ccjXaC2Q.s 			page 28


 1197 0384 1C308DE5 		str	r3, [sp, #28]	@ tmp140, Fosc
 1198 0388 080000EA 		b	.L24	@
 1199              	.L25:
 344:src/init.c    ****     }
 345:src/init.c    ****     else if( (clksrcsel & CLKSRCSEL_MASK) == CLKSRC_MIN_RTC )
 1200              		.loc 1 345 0
 1201 038c 1730DDE5 		ldrb	r3, [sp, #23]	@ zero_extendqisi2	@ D.5228, clksrcsel
 1202 0390 033003E2 		and	r3, r3, #3	@ D.5228, D.5228,
 1203 0394 020053E3 		cmp	r3, #2	@ D.5228,
 1204 0398 0200001A 		bne	.L26	@,
 346:src/init.c    ****     {
 347:src/init.c    ****     	Fosc = FOSC_RTC;
 1205              		.loc 1 347 0
 1206 039c 0239A0E3 		mov	r3, #32768	@ tmp141,
 1207 03a0 1C308DE5 		str	r3, [sp, #28]	@ tmp141, Fosc
 1208 03a4 010000EA 		b	.L24	@
 1209              	.L26:
 348:src/init.c    ****     }
 349:src/init.c    ****     else /* Invalid clock source */
 350:src/init.c    ****     {
 351:src/init.c    ****     	return -1;
 1210              		.loc 1 351 0
 1211 03a8 0030E0E3 		mvn	r3, #0	@ D.5226,
 1212 03ac 360000EA 		b	.L27	@
 1213              	.L24:
 352:src/init.c    ****     }
 353:src/init.c    **** 
 354:src/init.c    ****     /* Determine Fpllclk based on PLL configuration */
 355:src/init.c    ****     pllstat = P_SCB_REGS->PLLSTAT;
 1214              		.loc 1 355 0
 1215 03b0 E4309FE5 		ldr	r3, .L30	@ D.5227,
 1216 03b4 883093E5 		ldr	r3, [r3, #136]	@ tmp142, _16->PLLSTAT
 1217 03b8 10308DE5 		str	r3, [sp, #16]	@ tmp142, pllstat
 356:src/init.c    ****     M_mul = (pllstat & PLLSTAT_MSEL_MASK) + 1;
 1218              		.loc 1 356 0
 1219 03bc 10309DE5 		ldr	r3, [sp, #16]	@ tmp143, pllstat
 1220 03c0 0338A0E1 		mov	r3, r3, asl #16	@ tmp144, tmp143,
 1221 03c4 2338A0E1 		mov	r3, r3, lsr #16	@ D.5229, tmp144,
 1222 03c8 8338A0E1 		mov	r3, r3, asl #17	@ tmp145, D.5229,
 1223 03cc A338A0E1 		mov	r3, r3, lsr #17	@ tmp145, tmp145,
 1224 03d0 0338A0E1 		mov	r3, r3, asl #16	@ tmp146, tmp145,
 1225 03d4 2338A0E1 		mov	r3, r3, lsr #16	@ D.5229, tmp146,
 1226 03d8 013083E2 		add	r3, r3, #1	@ tmp147, D.5229,
 1227 03dc BE30CDE1 		strh	r3, [sp, #14]	@ movhi	@ tmp147, M_mul
 357:src/init.c    ****     N_div = ((pllstat & PLLSTAT_NSEL_MASK) >> 16) + 1;
 1228              		.loc 1 357 0
 1229 03e0 10309DE5 		ldr	r3, [sp, #16]	@ tmp148, pllstat
 1230 03e4 FF3803E2 		and	r3, r3, #16711680	@ D.5226, tmp148,
 1231 03e8 2338A0E1 		mov	r3, r3, lsr #16	@ D.5226, D.5226,
 1232 03ec FF3003E2 		and	r3, r3, #255	@ D.5230, D.5226,
 1233 03f0 013083E2 		add	r3, r3, #1	@ tmp149, D.5230,
 1234 03f4 0D30CDE5 		strb	r3, [sp, #13]	@ tmp150, N_div
 358:src/init.c    ****     plle  = (pllstat & PLLSTAT_PLLE) >> 24;
 1235              		.loc 1 358 0
 1236 03f8 10309DE5 		ldr	r3, [sp, #16]	@ tmp151, pllstat
 1237 03fc 013403E2 		and	r3, r3, #16777216	@ D.5226, tmp151,
 1238 0400 233CA0E1 		mov	r3, r3, lsr #24	@ D.5226, D.5226,
ARM GAS  /tmp/ccjXaC2Q.s 			page 29


 1239 0404 0C30CDE5 		strb	r3, [sp, #12]	@ tmp152, plle
 359:src/init.c    ****     pllc  = (pllstat & PLLSTAT_PLLC) >> 25;
 1240              		.loc 1 359 0
 1241 0408 10309DE5 		ldr	r3, [sp, #16]	@ tmp153, pllstat
 1242 040c 023403E2 		and	r3, r3, #33554432	@ D.5226, tmp153,
 1243 0410 A33CA0E1 		mov	r3, r3, lsr #25	@ D.5226, D.5226,
 1244 0414 0B30CDE5 		strb	r3, [sp, #11]	@ tmp154, pllc
 360:src/init.c    **** 
 361:src/init.c    ****     if( plle && pllc )
 1245              		.loc 1 361 0
 1246 0418 0C30DDE5 		ldrb	r3, [sp, #12]	@ zero_extendqisi2	@ tmp155, plle
 1247 041c 000053E3 		cmp	r3, #0	@ tmp155,
 1248 0420 0D00000A 		beq	.L28	@,
 1249              		.loc 1 361 0 is_stmt 0 discriminator 1
 1250 0424 0B30DDE5 		ldrb	r3, [sp, #11]	@ zero_extendqisi2	@ tmp156, pllc
 1251 0428 000053E3 		cmp	r3, #0	@ tmp156,
 1252 042c 0A00000A 		beq	.L28	@,
 362:src/init.c    ****     {
 363:src/init.c    ****     	Fpllclk = (2 * M_mul * Fosc) / N_div;
 1253              		.loc 1 363 0 is_stmt 1
 1254 0430 BE30DDE1 		ldrh	r3, [sp, #14]	@ D.5226, M_mul
 1255 0434 1C209DE5 		ldr	r2, [sp, #28]	@ tmp157, Fosc
 1256 0438 920303E0 		mul	r3, r2, r3	@ D.5226, tmp157, D.5226
 1257 043c 8320A0E1 		mov	r2, r3, asl #1	@ D.5226, D.5226,
 1258 0440 0D30DDE5 		ldrb	r3, [sp, #13]	@ zero_extendqisi2	@ D.5226, N_div
 1259 0444 0200A0E1 		mov	r0, r2	@, D.5226
 1260 0448 0310A0E1 		mov	r1, r3	@, D.5226
 1261 044c FEFFFFEB 		bl	__aeabi_uidiv	@
 1262 0450 0030A0E1 		mov	r3, r0	@ tmp160,
 1263 0454 18308DE5 		str	r3, [sp, #24]	@ tmp160, Fpllclk
 1264 0458 010000EA 		b	.L29	@
 1265              	.L28:
 364:src/init.c    ****     }
 365:src/init.c    ****     else
 366:src/init.c    ****     {
 367:src/init.c    ****     	Fpllclk = Fosc;
 1266              		.loc 1 367 0
 1267 045c 1C309DE5 		ldr	r3, [sp, #28]	@ tmp161, Fosc
 1268 0460 18308DE5 		str	r3, [sp, #24]	@ tmp161, Fpllclk
 1269              	.L29:
 368:src/init.c    ****     }
 369:src/init.c    **** 
 370:src/init.c    ****     /* Find out cclk frequency based on CCLKCFG */
 371:src/init.c    ****     Fcclk = Fpllclk/(P_SCB_REGS->CCLKCFG + 1);
 1270              		.loc 1 371 0
 1271 0464 30309FE5 		ldr	r3, .L30	@ D.5227,
 1272 0468 0431D3E5 		ldrb	r3, [r3, #260]	@ tmp163, _37->CCLKCFG
 1273 046c FF3003E2 		and	r3, r3, #255	@ D.5230, tmp163,
 1274 0470 013083E2 		add	r3, r3, #1	@ D.5228, D.5228,
 1275 0474 18009DE5 		ldr	r0, [sp, #24]	@, Fpllclk
 1276 0478 0310A0E1 		mov	r1, r3	@, D.5226
 1277 047c FEFFFFEB 		bl	__aeabi_uidiv	@
 1278 0480 0030A0E1 		mov	r3, r0	@ tmp166,
 1279 0484 04308DE5 		str	r3, [sp, #4]	@ tmp166, Fcclk
 372:src/init.c    **** 
 373:src/init.c    ****     return Fcclk;
 1280              		.loc 1 373 0
ARM GAS  /tmp/ccjXaC2Q.s 			page 30


 1281 0488 04309DE5 		ldr	r3, [sp, #4]	@ D.5226, Fcclk
 1282              	.L27:
 374:src/init.c    **** }
 1283              		.loc 1 374 0
 1284 048c 0300A0E1 		mov	r0, r3	@, <retval>
 1285 0490 24D08DE2 		add	sp, sp, #36	@,,
 1286              		@ sp needed	@
 1287 0494 04E09DE4 		ldr	lr, [sp], #4	@,
 1288 0498 1EFF2FE1 		bx	lr	@
 1289              	.L31:
 1290              		.align	2
 1291              	.L30:
 1292 049c 00C01FE0 		.word	-534790144
 1293 04a0 00093D00 		.word	4000000
 1294 04a4 001BB700 		.word	12000000
 1295              		.cfi_endproc
 1296              	.LFE4:
 1297              		.size	getFcclk, .-getFcclk
 1298              		.align	2
 1299              		.type	initPCLK, %function
 1300              	initPCLK:
 1301              	.LFB5:
 375:src/init.c    **** 
 376:src/init.c    **** /*
 377:src/init.c    ****  * NAME
 378:src/init.c    ****  *
 379:src/init.c    ****  * initPCLK
 380:src/init.c    ****  *
 381:src/init.c    ****  * DESCRIPTION
 382:src/init.c    ****  *
 383:src/init.c    ****  * Set the pclk for each peripheral. The default PDIV_4, but we do that
 384:src/init.c    ****  * explicitly here to make it easier to change them later.
 385:src/init.c    ****  *
 386:src/init.c    ****  * PARAMETER
 387:src/init.c    ****  *
 388:src/init.c    ****  * none...
 389:src/init.c    ****  *
 390:src/init.c    ****  * EXAMPLE
 391:src/init.c    ****  *
 392:src/init.c    ****  *   initPCLK();
 393:src/init.c    ****  *
 394:src/init.c    ****  * NOTES
 395:src/init.c    ****  *
 396:src/init.c    ****  *  none...
 397:src/init.c    ****  *
 398:src/init.c    ****  */
 399:src/init.c    **** 
 400:src/init.c    **** static void initPCLK(void)
 401:src/init.c    **** {
 1302              		.loc 1 401 0
 1303              		.cfi_startproc
 1304              		@ Function supports interworking.
 1305              		@ args = 0, pretend = 0, frame = 0
 1306              		@ frame_needed = 0, uses_anonymous_args = 0
 1307              		@ link register save eliminated.
 402:src/init.c    **** 	P_SCB_REGS->PCLKSEL0 =
 1308              		.loc 1 402 0
ARM GAS  /tmp/ccjXaC2Q.s 			page 31


 1309 04a8 14309FE5 		ldr	r3, .L33	@ D.5231,
 1310 04ac 512FA0E3 		mov	r2, #324	@ tmp112,
 1311 04b0 A82183E5 		str	r2, [r3, #424]	@ tmp112, _1->PCLKSEL0
 403:src/init.c    ****     (
 404:src/init.c    ****           SET_PCLK (PCLK_WDT,     PDIV_4)
 405:src/init.c    ****         | SET_PCLK (PCLK_TIMER0,  PDIV_1)
 406:src/init.c    ****         | SET_PCLK (PCLK_TIMER1,  PDIV_4)
 407:src/init.c    ****         | SET_PCLK (PCLK_UART0,   PDIV_1)
 408:src/init.c    ****         | SET_PCLK (PCLK_UART1,   PDIV_1)
 409:src/init.c    ****         | SET_PCLK (PCLK_PWM1,    PDIV_4)
 410:src/init.c    ****         | SET_PCLK (PCLK_I2C0,    PDIV_4)
 411:src/init.c    ****         | SET_PCLK (PCLK_SPI,     PDIV_4)
 412:src/init.c    ****         | SET_PCLK (PCLK_RTC,     PDIV_4)
 413:src/init.c    ****         | SET_PCLK (PCLK_SSP1,    PDIV_4)
 414:src/init.c    ****         | SET_PCLK (PCLK_DAC,     PDIV_4)
 415:src/init.c    ****         | SET_PCLK (PCLK_ADC,     PDIV_4)
 416:src/init.c    ****         | SET_PCLK (PCLK_CAN1,    PDIV_4)
 417:src/init.c    ****         | SET_PCLK (PCLK_CAN2,    PDIV_4)
 418:src/init.c    ****         | SET_PCLK (PCLK_ACF,     PDIV_4)
 419:src/init.c    ****     );
 420:src/init.c    **** 
 421:src/init.c    **** 	P_SCB_REGS->PCLKSEL1 =
 1312              		.loc 1 421 0
 1313 04b4 08309FE5 		ldr	r3, .L33	@ D.5231,
 1314 04b8 0528A0E3 		mov	r2, #327680	@ tmp113,
 1315 04bc AC2183E5 		str	r2, [r3, #428]	@ tmp113, _2->PCLKSEL1
 422:src/init.c    ****     (
 423:src/init.c    ****           SET_PCLK (PCLK_BAT_RAM, PDIV_4)
 424:src/init.c    ****         | SET_PCLK (PCLK_GPIO,    PDIV_4)
 425:src/init.c    ****         | SET_PCLK (PCLK_PCB,     PDIV_4)
 426:src/init.c    ****         | SET_PCLK (PCLK_I2C1,    PDIV_4)
 427:src/init.c    ****         | SET_PCLK (PCLK_SSP0,    PDIV_4)
 428:src/init.c    ****         | SET_PCLK (PCLK_TIMER2,  PDIV_4)
 429:src/init.c    ****         | SET_PCLK (PCLK_TIMER3,  PDIV_4)
 430:src/init.c    ****         | SET_PCLK (PCLK_UART2,   PDIV_1)
 431:src/init.c    ****         | SET_PCLK (PCLK_UART3,   PDIV_1)
 432:src/init.c    ****         | SET_PCLK (PCLK_I2C2,    PDIV_4)
 433:src/init.c    ****         | SET_PCLK (PCLK_I2S,     PDIV_4)
 434:src/init.c    ****         | SET_PCLK (PCLK_MCI,     PDIV_4)
 435:src/init.c    ****         | SET_PCLK (PCLK_SYSCON,  PDIV_4)
 436:src/init.c    ****     );
 437:src/init.c    **** }
 1316              		.loc 1 437 0
 1317 04c0 1EFF2FE1 		bx	lr	@
 1318              	.L34:
 1319              		.align	2
 1320              	.L33:
 1321 04c4 00C01FE0 		.word	-534790144
 1322              		.cfi_endproc
 1323              	.LFE5:
 1324              		.size	initPCLK, .-initPCLK
 1325              		.align	2
 1326              		.global	pinConfigurator
 1327              		.type	pinConfigurator, %function
 1328              	pinConfigurator:
 1329              	.LFB6:
 438:src/init.c    **** 
ARM GAS  /tmp/ccjXaC2Q.s 			page 32


 439:src/init.c    **** /*
 440:src/init.c    ****  * NAME:
 441:src/init.c    ****  *
 442:src/init.c    ****  *  pinConfigurator
 443:src/init.c    ****  *
 444:src/init.c    ****  * DESCRIPTION:
 445:src/init.c    ****  *
 446:src/init.c    ****  *  setups all the pins of the LPC2378
 447:src/init.c    ****  *
 448:src/init.c    ****  * PARAMETERS:
 449:src/init.c    ****  *
 450:src/init.c    ****  *  none...
 451:src/init.c    ****  *
 452:src/init.c    ****  * RETURN:
 453:src/init.c    ****  *
 454:src/init.c    ****  *  none...
 455:src/init.c    ****  *
 456:src/init.c    ****  * EXAMPLE:
 457:src/init.c    ****  *
 458:src/init.c    ****  *   pinConfigurator();
 459:src/init.c    ****  *
 460:src/init.c    ****  * NOTES:
 461:src/init.c    ****  *
 462:src/init.c    ****  *  experimental
 463:src/init.c    ****  *
 464:src/init.c    ****  */
 465:src/init.c    **** 
 466:src/init.c    **** void pinConfigurator(void)
 467:src/init.c    **** {
 1330              		.loc 1 467 0
 1331              		.cfi_startproc
 1332              		@ Function supports interworking.
 1333              		@ args = 0, pretend = 0, frame = 16
 1334              		@ frame_needed = 0, uses_anonymous_args = 0
 1335              		@ link register save eliminated.
 1336 04c8 10D04DE2 		sub	sp, sp, #16	@,,
 1337              	.LCFI8:
 1338              		.cfi_def_cfa_offset 16
 468:src/init.c    ****     INT32U n;
 469:src/init.c    ****     INT32U i;
 470:src/init.c    ****     INT32U pattern;
 471:src/init.c    **** 
 472:src/init.c    ****     n=0;
 1339              		.loc 1 472 0
 1340 04cc 0030A0E3 		mov	r3, #0	@ tmp121,
 1341 04d0 0C308DE5 		str	r3, [sp, #12]	@ tmp121, n
 473:src/init.c    **** 
 474:src/init.c    ****     while (mcuPins[n].pinSelect != 0)
 1342              		.loc 1 474 0
 1343 04d4 370000EA 		b	.L36	@
 1344              	.L39:
 475:src/init.c    ****     {
 476:src/init.c    ****         pattern=0x00000000;
 1345              		.loc 1 476 0
 1346 04d8 0030A0E3 		mov	r3, #0	@ tmp122,
 1347 04dc 04308DE5 		str	r3, [sp, #4]	@ tmp122, pattern
 477:src/init.c    **** 
ARM GAS  /tmp/ccjXaC2Q.s 			page 33


 478:src/init.c    ****         for (i=0; i<16; i++)
 1348              		.loc 1 478 0
 1349 04e0 0030A0E3 		mov	r3, #0	@ tmp123,
 1350 04e4 08308DE5 		str	r3, [sp, #8]	@ tmp123, i
 1351 04e8 220000EA 		b	.L37	@
 1352              	.L38:
 479:src/init.c    ****         {
 480:src/init.c    ****             pattern |= (mcuPins[n].pin[i].multiplex << (mcuPins[n].pin[i].position*2));
 1353              		.loc 1 480 0 discriminator 2
 1354 04ec 00119FE5 		ldr	r1, .L40	@ tmp124,
 1355 04f0 0C209DE5 		ldr	r2, [sp, #12]	@ tmp125, n
 1356 04f4 0230A0E1 		mov	r3, r2	@ tmp126, tmp125
 1357 04f8 8331A0E1 		mov	r3, r3, asl #3	@ tmp126, tmp126,
 1358 04fc 023083E0 		add	r3, r3, r2	@ tmp126, tmp126, tmp125
 1359 0500 8330A0E1 		mov	r3, r3, asl #1	@ tmp127, tmp126,
 1360 0504 08209DE5 		ldr	r2, [sp, #8]	@ tmp129, i
 1361 0508 022083E0 		add	r2, r3, r2	@ tmp128, tmp126, tmp129
 1362 050c 0530A0E3 		mov	r3, #5	@ tmp130,
 1363 0510 8220A0E1 		mov	r2, r2, asl #1	@ tmp131, tmp128,
 1364 0514 022081E0 		add	r2, r1, r2	@ tmp132, tmp124, tmp131
 1365 0518 033082E0 		add	r3, r2, r3	@ tmp133, tmp132, tmp130
 1366 051c 0030D3E5 		ldrb	r3, [r3]	@ zero_extendqisi2	@ D.5233, mcuPins[n_1].pin[i_2].multiplex
 1367 0520 0310A0E1 		mov	r1, r3	@ D.5234, D.5233
 1368 0524 C8009FE5 		ldr	r0, .L40	@ tmp134,
 1369 0528 0C209DE5 		ldr	r2, [sp, #12]	@ tmp135, n
 1370 052c 0230A0E1 		mov	r3, r2	@ tmp136, tmp135
 1371 0530 8331A0E1 		mov	r3, r3, asl #3	@ tmp136, tmp136,
 1372 0534 023083E0 		add	r3, r3, r2	@ tmp136, tmp136, tmp135
 1373 0538 8330A0E1 		mov	r3, r3, asl #1	@ tmp137, tmp136,
 1374 053c 08209DE5 		ldr	r2, [sp, #8]	@ tmp139, i
 1375 0540 022083E0 		add	r2, r3, r2	@ tmp138, tmp136, tmp139
 1376 0544 0430A0E3 		mov	r3, #4	@ tmp140,
 1377 0548 8220A0E1 		mov	r2, r2, asl #1	@ tmp141, tmp138,
 1378 054c 022080E0 		add	r2, r0, r2	@ tmp142, tmp134, tmp141
 1379 0550 033082E0 		add	r3, r2, r3	@ tmp143, tmp142, tmp140
 1380 0554 0030D3E5 		ldrb	r3, [r3]	@ zero_extendqisi2	@ D.5233, mcuPins[n_1].pin[i_2].position
 1381 0558 8330A0E1 		mov	r3, r3, asl #1	@ D.5234, D.5234,
 1382 055c 1133A0E1 		mov	r3, r1, asl r3	@ D.5234, D.5234,
 1383 0560 04209DE5 		ldr	r2, [sp, #4]	@ tmp145, pattern
 1384 0564 033082E1 		orr	r3, r2, r3	@ tmp144, tmp145, D.5232
 1385 0568 04308DE5 		str	r3, [sp, #4]	@ tmp144, pattern
 478:src/init.c    ****         for (i=0; i<16; i++)
 1386              		.loc 1 478 0 discriminator 2
 1387 056c 08309DE5 		ldr	r3, [sp, #8]	@ tmp147, i
 1388 0570 013083E2 		add	r3, r3, #1	@ tmp146, tmp147,
 1389 0574 08308DE5 		str	r3, [sp, #8]	@ tmp146, i
 1390              	.L37:
 478:src/init.c    ****         for (i=0; i<16; i++)
 1391              		.loc 1 478 0 is_stmt 0 discriminator 1
 1392 0578 08309DE5 		ldr	r3, [sp, #8]	@ tmp148, i
 1393 057c 0F0053E3 		cmp	r3, #15	@ tmp148,
 1394 0580 D9FFFF9A 		bls	.L38	@,
 481:src/init.c    ****         }
 482:src/init.c    **** 
 483:src/init.c    ****         VOLATILE32(mcuPins[n].pinSelect) = pattern; /* set the complete world */
 1395              		.loc 1 483 0 is_stmt 1
 1396 0584 68109FE5 		ldr	r1, .L40	@ tmp149,
ARM GAS  /tmp/ccjXaC2Q.s 			page 34


 1397 0588 0C209DE5 		ldr	r2, [sp, #12]	@ tmp150, n
 1398 058c 0230A0E1 		mov	r3, r2	@ tmp151, tmp150
 1399 0590 8331A0E1 		mov	r3, r3, asl #3	@ tmp151, tmp151,
 1400 0594 023083E0 		add	r3, r3, r2	@ tmp151, tmp151, tmp150
 1401 0598 0331A0E1 		mov	r3, r3, asl #2	@ tmp152, tmp151,
 1402 059c 033081E0 		add	r3, r1, r3	@ tmp153, tmp149, tmp151
 1403 05a0 003093E5 		ldr	r3, [r3]	@ D.5232, mcuPins[n_1].pinSelect
 1404 05a4 04209DE5 		ldr	r2, [sp, #4]	@ tmp154, pattern
 1405 05a8 002083E5 		str	r2, [r3]	@ tmp154, *_18
 484:src/init.c    ****         n ++;
 1406              		.loc 1 484 0
 1407 05ac 0C309DE5 		ldr	r3, [sp, #12]	@ tmp156, n
 1408 05b0 013083E2 		add	r3, r3, #1	@ tmp155, tmp156,
 1409 05b4 0C308DE5 		str	r3, [sp, #12]	@ tmp155, n
 1410              	.L36:
 474:src/init.c    ****     while (mcuPins[n].pinSelect != 0)
 1411              		.loc 1 474 0 discriminator 1
 1412 05b8 34109FE5 		ldr	r1, .L40	@ tmp157,
 1413 05bc 0C209DE5 		ldr	r2, [sp, #12]	@ tmp158, n
 1414 05c0 0230A0E1 		mov	r3, r2	@ tmp159, tmp158
 1415 05c4 8331A0E1 		mov	r3, r3, asl #3	@ tmp159, tmp159,
 1416 05c8 023083E0 		add	r3, r3, r2	@ tmp159, tmp159, tmp158
 1417 05cc 0331A0E1 		mov	r3, r3, asl #2	@ tmp160, tmp159,
 1418 05d0 033081E0 		add	r3, r1, r3	@ tmp161, tmp157, tmp159
 1419 05d4 003093E5 		ldr	r3, [r3]	@ D.5232, mcuPins[n_1].pinSelect
 1420 05d8 000053E3 		cmp	r3, #0	@ D.5232,
 1421 05dc BDFFFF1A 		bne	.L39	@,
 485:src/init.c    ****     }
 486:src/init.c    **** 
 487:src/init.c    ****     /*
 488:src/init.c    ****      * NOTE:
 489:src/init.c    ****      *
 490:src/init.c    ****      * Complete by setting the ETM to be disabled on PINSEL10
 491:src/init.c    ****      *
 492:src/init.c    ****      */
 493:src/init.c    ****     VOLATILE32(PINSEL10) = ~(BIT(3)) & PINSEL10_MASK;   /* disable ETM, mask reserved bit to 0 */
 1422              		.loc 1 493 0
 1423 05e0 10309FE5 		ldr	r3, .L40+4	@ D.5235,
 1424 05e4 0020A0E3 		mov	r2, #0	@ tmp162,
 1425 05e8 002083E5 		str	r2, [r3]	@ tmp162, *_20
 494:src/init.c    **** 
 495:src/init.c    **** }
 1426              		.loc 1 495 0
 1427 05ec 10D08DE2 		add	sp, sp, #16	@,,
 1428              		@ sp needed	@
 1429 05f0 1EFF2FE1 		bx	lr	@
 1430              	.L41:
 1431              		.align	2
 1432              	.L40:
 1433 05f4 00000000 		.word	mcuPins
 1434 05f8 28C002E0 		.word	-536690648
 1435              		.cfi_endproc
 1436              	.LFE6:
 1437              		.size	pinConfigurator, .-pinConfigurator
 1438              		.align	2
 1439              		.type	initGPIO, %function
 1440              	initGPIO:
ARM GAS  /tmp/ccjXaC2Q.s 			page 35


 1441              	.LFB7:
 496:src/init.c    **** 
 497:src/init.c    **** /*
 498:src/init.c    ****  * NAME:
 499:src/init.c    ****  *
 500:src/init.c    ****  *  initGPIO
 501:src/init.c    ****  *
 502:src/init.c    ****  * DESCRIPTION:
 503:src/init.c    ****  *
 504:src/init.c    ****  *  sets up the GPIO pins
 505:src/init.c    ****  *
 506:src/init.c    ****  * PARAMETERS:
 507:src/init.c    ****  *
 508:src/init.c    ****  *  none...
 509:src/init.c    ****  *
 510:src/init.c    ****  * RETURN:
 511:src/init.c    ****  *
 512:src/init.c    ****  *  none...
 513:src/init.c    ****  *
 514:src/init.c    ****  * EXAMPLE:
 515:src/init.c    ****  *
 516:src/init.c    ****  *   initGPIO();
 517:src/init.c    ****  *
 518:src/init.c    ****  * NOTES:
 519:src/init.c    ****  *
 520:src/init.c    ****  *  none...
 521:src/init.c    ****  *
 522:src/init.c    ****  */
 523:src/init.c    **** 
 524:src/init.c    **** static void initGPIO(void)
 525:src/init.c    **** {
 1442              		.loc 1 525 0
 1443              		.cfi_startproc
 1444              		@ Function supports interworking.
 1445              		@ args = 0, pretend = 0, frame = 0
 1446              		@ frame_needed = 0, uses_anonymous_args = 0
 1447 05fc 08402DE9 		stmfd	sp!, {r3, lr}	@,
 1448              	.LCFI9:
 1449              		.cfi_def_cfa_offset 8
 1450              		.cfi_offset 3, -8
 1451              		.cfi_offset 14, -4
 526:src/init.c    ****     pinConfigurator();
 1452              		.loc 1 526 0
 1453 0600 FEFFFFEB 		bl	pinConfigurator	@
 527:src/init.c    **** 
 528:src/init.c    ****     /*
 529:src/init.c    ****      * Old method:
 530:src/init.c    ****      *
 531:src/init.c    ****      * VOLATILE32(U0_TX_PINSEL_REG) = (VOLATILE32(U0_TX_PINSEL_REG) & ~U0_TX_PINMASK ) | U0_TX_PINS
 532:src/init.c    ****      * VOLATILE32(U0_RX_PINSEL_REG) = (VOLATILE32(U0_RX_PINSEL_REG) & ~U0_RX_PINMASK ) | U0_RX_PINS
 533:src/init.c    ****      */
 534:src/init.c    **** 
 535:src/init.c    ****     /*
 536:src/init.c    ****      * NOTE:
 537:src/init.c    ****      *
 538:src/init.c    ****      *  SCS controls whether the LPC2378 is set to use the legancy registers or the new
 539:src/init.c    ****      *  fast GPIO control registers.
ARM GAS  /tmp/ccjXaC2Q.s 			page 36


 540:src/init.c    ****      *
 541:src/init.c    ****      */
 542:src/init.c    **** 
 543:src/init.c    ****     P_SCB_REGS->SCS |= BIT(0);  /* Fast GPIO / new registers */
 1454              		.loc 1 543 0
 1455 0604 64309FE5 		ldr	r3, .L43	@ D.5236,
 1456 0608 60209FE5 		ldr	r2, .L43	@ D.5236,
 1457 060c A02192E5 		ldr	r2, [r2, #416]	@ D.5237, _2->SCS
 1458 0610 012082E3 		orr	r2, r2, #1	@ D.5237, D.5237,
 1459 0614 A02183E5 		str	r2, [r3, #416]	@ D.5237, _1->SCS
 544:src/init.c    **** 
 545:src/init.c    ****     /* Set Port0 Fast GPIO direction register outputs */
 546:src/init.c    ****     VOLATILE32(FIO0DIR) |= ( SD_LED_BIT | USBC_LED_BIT | USB_LINK_LED_BIT );
 1460              		.loc 1 546 0
 1461 0618 54209FE5 		ldr	r2, .L43+4	@ D.5238,
 1462 061c 50309FE5 		ldr	r3, .L43+4	@ D.5238,
 1463 0620 003093E5 		ldr	r3, [r3]	@ D.5237, *_6
 1464 0624 813983E3 		orr	r3, r3, #2113536	@ D.5237, D.5237,
 1465 0628 023A83E3 		orr	r3, r3, #8192	@ D.5237, D.5237,
 1466 062c 003082E5 		str	r3, [r2]	@ D.5237, *_5
 547:src/init.c    **** 
 548:src/init.c    ****     /* Set Port1 Fast GPIO direction register outputs */
 549:src/init.c    ****     VOLATILE32(FIO1DIR) |= ( LCD_BL_BIT );
 1467              		.loc 1 549 0
 1468 0630 40309FE5 		ldr	r3, .L43+8	@ D.5238,
 1469 0634 3C209FE5 		ldr	r2, .L43+8	@ D.5238,
 1470 0638 002092E5 		ldr	r2, [r2]	@ D.5237, *_10
 1471 063c 012382E3 		orr	r2, r2, #67108864	@ D.5237, D.5237,
 1472 0640 002083E5 		str	r2, [r3]	@ D.5237, *_9
 550:src/init.c    **** 
 551:src/init.c    ****     /* Turn off MCIPWR SD LED (near bottom left corner of LCD) */
 552:src/init.c    ****     VOLATILE32(FIO0CLR)  = SD_LED_BIT;
 1473              		.loc 1 552 0
 1474 0644 30309FE5 		ldr	r3, .L43+12	@ D.5238,
 1475 0648 0226A0E3 		mov	r2, #2097152	@ tmp125,
 1476 064c 002083E5 		str	r2, [r3]	@ tmp125, *_13
 553:src/init.c    ****     /* Turn off USBC LED */
 554:src/init.c    ****     VOLATILE32(FIO0SET)  = USBC_LED_BIT;
 1477              		.loc 1 554 0
 1478 0650 28309FE5 		ldr	r3, .L43+16	@ D.5238,
 1479 0654 0129A0E3 		mov	r2, #16384	@ tmp126,
 1480 0658 002083E5 		str	r2, [r3]	@ tmp126, *_14
 555:src/init.c    ****     /* Turn off USB_LINK LED */
 556:src/init.c    ****     VOLATILE32(FIO0SET)  = USB_LINK_LED_BIT;
 1481              		.loc 1 556 0
 1482 065c 1C309FE5 		ldr	r3, .L43+16	@ D.5238,
 1483 0660 022AA0E3 		mov	r2, #8192	@ tmp127,
 1484 0664 002083E5 		str	r2, [r3]	@ tmp127, *_15
 557:src/init.c    **** 
 558:src/init.c    **** }
 1485              		.loc 1 558 0
 1486 0668 0840BDE8 		ldmfd	sp!, {r3, lr}	@
 1487 066c 1EFF2FE1 		bx	lr	@
 1488              	.L44:
 1489              		.align	2
 1490              	.L43:
 1491 0670 00C01FE0 		.word	-534790144
ARM GAS  /tmp/ccjXaC2Q.s 			page 37


 1492 0674 00C0FF3F 		.word	1073725440
 1493 0678 20C0FF3F 		.word	1073725472
 1494 067c 1CC0FF3F 		.word	1073725468
 1495 0680 18C0FF3F 		.word	1073725464
 1496              		.cfi_endproc
 1497              	.LFE7:
 1498              		.size	initGPIO, .-initGPIO
 1499              		.align	2
 1500              		.global	initUART0
 1501              		.type	initUART0, %function
 1502              	initUART0:
 1503              	.LFB8:
 559:src/init.c    **** 
 560:src/init.c    **** /*
 561:src/init.c    ****  * NAME:
 562:src/init.c    ****  *
 563:src/init.c    ****  *  initUART0
 564:src/init.c    ****  *
 565:src/init.c    ****  * DESCRIPTION:
 566:src/init.c    ****  *
 567:src/init.c    ****  *  sets up UART0 to be 38.4 K Baud, 8 data bits, no parity, and no
 568:src/init.c    ****  *  flow control
 569:src/init.c    ****  *
 570:src/init.c    ****  * PARAMETERS:
 571:src/init.c    ****  *
 572:src/init.c    ****  *  none...
 573:src/init.c    ****  *
 574:src/init.c    ****  * RETURN:
 575:src/init.c    ****  *
 576:src/init.c    ****  *  none...
 577:src/init.c    ****  *
 578:src/init.c    ****  * EXAMPLE:
 579:src/init.c    ****  *
 580:src/init.c    ****  *   initUART0();
 581:src/init.c    ****  *
 582:src/init.c    ****  * NOTES:
 583:src/init.c    ****  *
 584:src/init.c    ****  *  experimental
 585:src/init.c    ****  *
 586:src/init.c    ****  */
 587:src/init.c    **** 
 588:src/init.c    **** void initUART0(INT32U baud, INT8U mode, INT8U fmode, INT32U cclk)
 589:src/init.c    **** {
 1504              		.loc 1 589 0
 1505              		.cfi_startproc
 1506              		@ Function supports interworking.
 1507              		@ args = 0, pretend = 0, frame = 32
 1508              		@ frame_needed = 0, uses_anonymous_args = 0
 1509 0684 04E02DE5 		str	lr, [sp, #-4]!	@,
 1510              	.LCFI10:
 1511              		.cfi_def_cfa_offset 4
 1512              		.cfi_offset 14, -4
 1513 0688 24D04DE2 		sub	sp, sp, #36	@,,
 1514              	.LCFI11:
 1515              		.cfi_def_cfa_offset 40
 1516 068c 0C008DE5 		str	r0, [sp, #12]	@ baud, baud
 1517 0690 04308DE5 		str	r3, [sp, #4]	@ cclk, cclk
ARM GAS  /tmp/ccjXaC2Q.s 			page 38


 1518 0694 0130A0E1 		mov	r3, r1	@ tmp138, tmp137
 1519 0698 0B30CDE5 		strb	r3, [sp, #11]	@ tmp138, mode
 1520 069c 0230A0E1 		mov	r3, r2	@ tmp140, tmp139
 1521 06a0 0A30CDE5 		strb	r3, [sp, #10]	@ tmp140, fmode
 590:src/init.c    ****     INT8U pclk_div;
 591:src/init.c    ****     INT8U pclk_sel;
 592:src/init.c    ****     INT32U uart_divisor_latch;
 593:src/init.c    ****     INT8U udl_roundbit;
 594:src/init.c    **** 
 595:src/init.c    ****     /* find out UART0's pclk divider */
 596:src/init.c    ****     pclk_sel = GET_PCLK_SEL( P_SCB_REGS->PCLKSEL0, PCLK_UART0 );
 1522              		.loc 1 596 0
 1523 06a4 60319FE5 		ldr	r3, .L56	@ D.5239,
 1524 06a8 A83193E5 		ldr	r3, [r3, #424]	@ D.5240, _5->PCLKSEL0
 1525 06ac 2333A0E1 		mov	r3, r3, lsr #6	@ D.5240, D.5240,
 1526 06b0 FF3003E2 		and	r3, r3, #255	@ D.5241, D.5240,
 1527 06b4 033003E2 		and	r3, r3, #3	@ tmp141, D.5241,
 1528 06b8 1F30CDE5 		strb	r3, [sp, #31]	@ tmp142, pclk_sel
 597:src/init.c    ****     pclk_div = ( pclk_sel == 0 ? 4 : \
 1529              		.loc 1 597 0
 1530 06bc 1F30DDE5 		ldrb	r3, [sp, #31]	@ zero_extendqisi2	@ tmp143, pclk_sel
 1531 06c0 000053E3 		cmp	r3, #0	@ tmp143,
 1532 06c4 1000000A 		beq	.L46	@,
 1533              		.loc 1 597 0 is_stmt 0 discriminator 1
 1534 06c8 1F30DDE5 		ldrb	r3, [sp, #31]	@ zero_extendqisi2	@ tmp144, pclk_sel
 1535 06cc 010053E3 		cmp	r3, #1	@ tmp144,
 1536 06d0 0B00000A 		beq	.L47	@,
 1537              		.loc 1 597 0 discriminator 3
 1538 06d4 1F30DDE5 		ldrb	r3, [sp, #31]	@ zero_extendqisi2	@ tmp145, pclk_sel
 1539 06d8 020053E3 		cmp	r3, #2	@ tmp145,
 1540 06dc 0600000A 		beq	.L48	@,
 1541              		.loc 1 597 0 discriminator 5
 1542 06e0 1F30DDE5 		ldrb	r3, [sp, #31]	@ zero_extendqisi2	@ tmp146, pclk_sel
 1543 06e4 030053E3 		cmp	r3, #3	@ tmp146,
 1544 06e8 0100001A 		bne	.L49	@,
 1545              		.loc 1 597 0 discriminator 7
 1546 06ec 0830A0E3 		mov	r3, #8	@ iftmp.3,
 1547 06f0 060000EA 		b	.L53	@
 1548              	.L49:
 1549              		.loc 1 597 0 discriminator 8
 1550 06f4 0030A0E3 		mov	r3, #0	@ iftmp.3,
 1551 06f8 040000EA 		b	.L53	@
 1552              	.L48:
 1553              		.loc 1 597 0 discriminator 6
 1554 06fc 0230A0E3 		mov	r3, #2	@ iftmp.2,
 1555 0700 020000EA 		b	.L53	@
 1556              	.L47:
 1557              		.loc 1 597 0 discriminator 4
 1558 0704 0130A0E3 		mov	r3, #1	@ iftmp.1,
 1559 0708 000000EA 		b	.L53	@
 1560              	.L46:
 1561              		.loc 1 597 0 discriminator 2
 1562 070c 0430A0E3 		mov	r3, #4	@ iftmp.0,
 1563              	.L53:
 1564              		.loc 1 597 0 discriminator 9
 1565 0710 1E30CDE5 		strb	r3, [sp, #30]	@ tmp147, pclk_div
 598:src/init.c    ****     		     pclk_sel == 1 ? 1 : \
ARM GAS  /tmp/ccjXaC2Q.s 			page 39


 599:src/init.c    ****     		     pclk_sel == 2 ? 2 : \
 600:src/init.c    ****     		     pclk_sel == 3 ? 8 : \
 601:src/init.c    ****     		     0 ); /* this evaluation should never happen */
 602:src/init.c    ****     if( pclk_div == 0 )
 1566              		.loc 1 602 0 is_stmt 1 discriminator 9
 1567 0714 1E30DDE5 		ldrb	r3, [sp, #30]	@ zero_extendqisi2	@ tmp148, pclk_div
 1568 0718 000053E3 		cmp	r3, #0	@ tmp148,
 1569 071c 0000001A 		bne	.L54	@,
 603:src/init.c    ****     {
 604:src/init.c    ****     	return;
 1570              		.loc 1 604 0
 1571 0720 360000EA 		b	.L45	@
 1572              	.L54:
 605:src/init.c    ****     }
 606:src/init.c    **** 
 607:src/init.c    ****     /* Calculate divsor latch value based on cclk and UART0's pclk divider
 608:src/init.c    ****      * We multiply by 2 to determine if it is odd or even
 609:src/init.c    ****      * If it is even, then there is no round bit
 610:src/init.c    ****      * If it is odd, then there is a round up
 611:src/init.c    ****      * Shift it back */
 612:src/init.c    ****     uart_divisor_latch = ( 2 * ( (cclk/pclk_div) / ( (baud) * 16) ) );
 1573              		.loc 1 612 0
 1574 0724 1E30DDE5 		ldrb	r3, [sp, #30]	@ zero_extendqisi2	@ D.5240, pclk_div
 1575 0728 04009DE5 		ldr	r0, [sp, #4]	@, cclk
 1576 072c 0310A0E1 		mov	r1, r3	@, D.5240
 1577 0730 FEFFFFEB 		bl	__aeabi_uidiv	@
 1578 0734 0030A0E1 		mov	r3, r0	@ tmp151,
 1579 0738 0320A0E1 		mov	r2, r3	@ D.5240, tmp151
 1580 073c 0C309DE5 		ldr	r3, [sp, #12]	@ tmp152, baud
 1581 0740 0332A0E1 		mov	r3, r3, asl #4	@ D.5240, tmp152,
 1582 0744 0200A0E1 		mov	r0, r2	@, D.5240
 1583 0748 0310A0E1 		mov	r1, r3	@, D.5240
 1584 074c FEFFFFEB 		bl	__aeabi_uidiv	@
 1585 0750 0030A0E1 		mov	r3, r0	@ tmp155,
 1586 0754 8330A0E1 		mov	r3, r3, asl #1	@ tmp156, D.5240,
 1587 0758 18308DE5 		str	r3, [sp, #24]	@ tmp156, uart_divisor_latch
 613:src/init.c    ****     udl_roundbit = ( (uart_divisor_latch & 0x1) == 0 ? 0 : 1 );
 1588              		.loc 1 613 0
 1589 075c 18309DE5 		ldr	r3, [sp, #24]	@ tmp157, uart_divisor_latch
 1590 0760 013003E2 		and	r3, r3, #1	@ D.5240, tmp157,
 1591 0764 000053E3 		cmp	r3, #0	@ D.5240,
 1592 0768 0030A003 		moveq	r3, #0	@, tmp159
 1593 076c 0130A013 		movne	r3, #1	@, tmp159
 1594 0770 FF3003E2 		and	r3, r3, #255	@ D.5242, tmp158,
 1595 0774 1730CDE5 		strb	r3, [sp, #23]	@ tmp160, udl_roundbit
 614:src/init.c    ****     uart_divisor_latch /= 2;
 1596              		.loc 1 614 0
 1597 0778 18309DE5 		ldr	r3, [sp, #24]	@ tmp162, uart_divisor_latch
 1598 077c A330A0E1 		mov	r3, r3, lsr #1	@ tmp161, tmp162,
 1599 0780 18308DE5 		str	r3, [sp, #24]	@ tmp161, uart_divisor_latch
 615:src/init.c    **** 
 616:src/init.c    ****     /* stop any transmissions */
 617:src/init.c    ****     P_UART0_REGS->TER = 0;
 1600              		.loc 1 617 0
 1601 0784 84309FE5 		ldr	r3, .L56+4	@ D.5243,
 1602 0788 0020A0E3 		mov	r2, #0	@ tmp163,
 1603 078c 3020C3E5 		strb	r2, [r3, #48]	@ tmp164, _30->TER
ARM GAS  /tmp/ccjXaC2Q.s 			page 40


 618:src/init.c    **** 
 619:src/init.c    ****     P_UART0_REGS->LCR = ULCR_DLAB_ENABLE;
 1604              		.loc 1 619 0
 1605 0790 78309FE5 		ldr	r3, .L56+4	@ D.5243,
 1606 0794 7F20E0E3 		mvn	r2, #127	@ tmp165,
 1607 0798 0C20C3E5 		strb	r2, [r3, #12]	@ tmp166, _31->LCR
 620:src/init.c    ****     P_UART0_REGS->DLL = (uint8_t) uart_divisor_latch + udl_roundbit;
 1608              		.loc 1 620 0
 1609 079c 6C309FE5 		ldr	r3, .L56+4	@ D.5243,
 1610 07a0 18209DE5 		ldr	r2, [sp, #24]	@ tmp167, uart_divisor_latch
 1611 07a4 FF1002E2 		and	r1, r2, #255	@ D.5241, tmp167,
 1612 07a8 1720DDE5 		ldrb	r2, [sp, #23]	@ tmp168, udl_roundbit
 1613 07ac 022081E0 		add	r2, r1, r2	@ tmp169, D.5241, tmp168
 1614 07b0 FF2002E2 		and	r2, r2, #255	@ D.5241, tmp169,
 1615 07b4 0020C3E5 		strb	r2, [r3]	@ tmp170, _32->D.4608.DLL
 621:src/init.c    ****     P_UART0_REGS->DLM = (uint8_t)(uart_divisor_latch >> 8);
 1616              		.loc 1 621 0
 1617 07b8 50309FE5 		ldr	r3, .L56+4	@ D.5243,
 1618 07bc 18209DE5 		ldr	r2, [sp, #24]	@ tmp171, uart_divisor_latch
 1619 07c0 2224A0E1 		mov	r2, r2, lsr #8	@ D.5240, tmp171,
 1620 07c4 FF2002E2 		and	r2, r2, #255	@ D.5241, D.5240,
 1621 07c8 0420C3E5 		strb	r2, [r3, #4]	@ tmp172, _35->D.4616.D.4614.DLM
 622:src/init.c    ****     P_UART0_REGS->LCR = (mode & ~ULCR_DLAB_ENABLE);
 1622              		.loc 1 622 0
 1623 07cc 3C309FE5 		ldr	r3, .L56+4	@ D.5243,
 1624 07d0 0B20DDE5 		ldrb	r2, [sp, #11]	@ tmp173, mode
 1625 07d4 7F2002E2 		and	r2, r2, #127	@ tmp174, tmp173,
 1626 07d8 FF2002E2 		and	r2, r2, #255	@ D.5241, tmp174,
 1627 07dc 0C20C3E5 		strb	r2, [r3, #12]	@ tmp175, _38->LCR
 623:src/init.c    **** 
 624:src/init.c    ****     /* Set FIFO modes and Reset */
 625:src/init.c    ****     P_UART0_REGS->FCR = fmode | UFCR_TXFIFO_RESET | UFCR_RXFIFO_RESET;
 1628              		.loc 1 625 0
 1629 07e0 28309FE5 		ldr	r3, .L56+4	@ D.5243,
 1630 07e4 0A20DDE5 		ldrb	r2, [sp, #10]	@ tmp176, fmode
 1631 07e8 062082E3 		orr	r2, r2, #6	@ tmp177, tmp176,
 1632 07ec FF2002E2 		and	r2, r2, #255	@ D.5241, tmp177,
 1633 07f0 0820C3E5 		strb	r2, [r3, #8]	@ tmp178, _41->D.4623.D.4622.FCR
 626:src/init.c    **** 
 627:src/init.c    ****     /* resume transmissions */
 628:src/init.c    ****     P_UART0_REGS->TER = UTER_TXEN;
 1634              		.loc 1 628 0
 1635 07f4 14309FE5 		ldr	r3, .L56+4	@ D.5243,
 1636 07f8 7F20E0E3 		mvn	r2, #127	@ tmp179,
 1637 07fc 3020C3E5 		strb	r2, [r3, #48]	@ tmp180, _44->TER
 1638              	.L45:
 629:src/init.c    **** }
 1639              		.loc 1 629 0
 1640 0800 24D08DE2 		add	sp, sp, #36	@,,
 1641              		@ sp needed	@
 1642 0804 04E09DE4 		ldr	lr, [sp], #4	@,
 1643 0808 1EFF2FE1 		bx	lr	@
 1644              	.L57:
 1645              		.align	2
 1646              	.L56:
 1647 080c 00C01FE0 		.word	-534790144
 1648 0810 00C000E0 		.word	-536821760
ARM GAS  /tmp/ccjXaC2Q.s 			page 41


 1649              		.cfi_endproc
 1650              	.LFE8:
 1651              		.size	initUART0, .-initUART0
 1652              		.align	2
 1653              		.type	VIC_Init, %function
 1654              	VIC_Init:
 1655              	.LFB9:
 630:src/init.c    **** 
 631:src/init.c    **** 
 632:src/init.c    **** /*
 633:src/init.c    **** ***************************************************************************************************
 634:src/init.c    **** *                                     VIC_Init()
 635:src/init.c    **** *
 636:src/init.c    **** * Description : Initialize the Vectored Interrupt Controller
 637:src/init.c    **** *
 638:src/init.c    **** * Argument(s) : none.
 639:src/init.c    **** *
 640:src/init.c    **** * Return(s)   : none.
 641:src/init.c    **** ***************************************************************************************************
 642:src/init.c    **** */
 643:src/init.c    **** 
 644:src/init.c    **** void VIC_Init(void)
 645:src/init.c    **** {
 1656              		.loc 1 645 0
 1657              		.cfi_startproc
 1658              		@ Function supports interworking.
 1659              		@ args = 0, pretend = 0, frame = 0
 1660              		@ frame_needed = 0, uses_anonymous_args = 0
 1661              		@ link register save eliminated.
 646:src/init.c    ****     WRITEREG32(VICINTENCLEAR, 0xFFFFFFFF);                      /* Disable ALL interrupts          
 1662              		.loc 1 646 0
 1663 0814 A0319FE5 		ldr	r3, .L59	@ D.5244,
 1664 0818 0020E0E3 		mvn	r2, #0	@ tmp177,
 1665 081c 002083E5 		str	r2, [r3]	@ tmp177, *_1
 647:src/init.c    ****     WRITEREG32(VICADDRESS, 0);                                  /* Acknowlege any pending VIC inter
 1666              		.loc 1 647 0
 1667 0820 FF30E0E3 		mvn	r3, #255	@ D.5244,
 1668 0824 0020A0E3 		mov	r2, #0	@ tmp178,
 1669 0828 002083E5 		str	r2, [r3]	@ tmp178, *_2
 648:src/init.c    ****     WRITEREG32(VICPROTECTION, 0);                               /* Allow VIC register access in Use
 1670              		.loc 1 648 0
 1671 082c 8C319FE5 		ldr	r3, .L59+4	@ D.5244,
 1672 0830 0020A0E3 		mov	r2, #0	@ tmp179,
 1673 0834 002083E5 		str	r2, [r3]	@ tmp179, *_3
 649:src/init.c    **** 
 650:src/init.c    ****     WRITEREG32(VICVECTADDR0, (INT32U)VIC_DummyWDT);         /* Set the vector address              
 1674              		.loc 1 650 0
 1675 0838 84319FE5 		ldr	r3, .L59+8	@ D.5244,
 1676 083c 84219FE5 		ldr	r2, .L59+12	@ VIC_DummyWDT.4,
 1677 0840 002083E5 		str	r2, [r3]	@ VIC_DummyWDT.4, *_4
 651:src/init.c    ****     WRITEREG32(VICVECTADDR1, (INT32U)VIC_DummySW);
 1678              		.loc 1 651 0
 1679 0844 80319FE5 		ldr	r3, .L59+16	@ D.5244,
 1680 0848 80219FE5 		ldr	r2, .L59+20	@ VIC_DummySW.5,
 1681 084c 002083E5 		str	r2, [r3]	@ VIC_DummySW.5, *_6
 652:src/init.c    ****     WRITEREG32(VICVECTADDR2, (INT32U)VIC_DummyDEBUGRX);
 1682              		.loc 1 652 0
ARM GAS  /tmp/ccjXaC2Q.s 			page 42


 1683 0850 7C319FE5 		ldr	r3, .L59+24	@ D.5244,
 1684 0854 7C219FE5 		ldr	r2, .L59+28	@ VIC_DummyDEBUGRX.6,
 1685 0858 002083E5 		str	r2, [r3]	@ VIC_DummyDEBUGRX.6, *_8
 653:src/init.c    ****     WRITEREG32(VICVECTADDR3, (INT32U)VIC_DummyDEBUGTX);
 1686              		.loc 1 653 0
 1687 085c 78319FE5 		ldr	r3, .L59+32	@ D.5244,
 1688 0860 78219FE5 		ldr	r2, .L59+36	@ VIC_DummyDEBUGTX.7,
 1689 0864 002083E5 		str	r2, [r3]	@ VIC_DummyDEBUGTX.7, *_10
 654:src/init.c    ****     WRITEREG32(VICVECTADDR4, (INT32U)VIC_DummyTIMER0);
 1690              		.loc 1 654 0
 1691 0868 74319FE5 		ldr	r3, .L59+40	@ D.5244,
 1692 086c 74219FE5 		ldr	r2, .L59+44	@ VIC_DummyTIMER0.8,
 1693 0870 002083E5 		str	r2, [r3]	@ VIC_DummyTIMER0.8, *_12
 655:src/init.c    ****     WRITEREG32(VICVECTADDR5, (INT32U)VIC_DummyTIMER1);
 1694              		.loc 1 655 0
 1695 0874 70319FE5 		ldr	r3, .L59+48	@ D.5244,
 1696 0878 70219FE5 		ldr	r2, .L59+52	@ VIC_DummyTIMER1.9,
 1697 087c 002083E5 		str	r2, [r3]	@ VIC_DummyTIMER1.9, *_14
 656:src/init.c    ****     WRITEREG32(VICVECTADDR6, (INT32U)VIC_DummyUART0);
 1698              		.loc 1 656 0
 1699 0880 6C319FE5 		ldr	r3, .L59+56	@ D.5244,
 1700 0884 6C219FE5 		ldr	r2, .L59+60	@ VIC_DummyUART0.10,
 1701 0888 002083E5 		str	r2, [r3]	@ VIC_DummyUART0.10, *_16
 657:src/init.c    ****     WRITEREG32(VICVECTADDR7, (INT32U)VIC_DummyUART1);
 1702              		.loc 1 657 0
 1703 088c 68319FE5 		ldr	r3, .L59+64	@ D.5244,
 1704 0890 68219FE5 		ldr	r2, .L59+68	@ VIC_DummyUART1.11,
 1705 0894 002083E5 		str	r2, [r3]	@ VIC_DummyUART1.11, *_18
 658:src/init.c    ****     WRITEREG32(VICVECTADDR8, (INT32U)VIC_DummyPWM01);
 1706              		.loc 1 658 0
 1707 0898 64319FE5 		ldr	r3, .L59+72	@ D.5244,
 1708 089c 64219FE5 		ldr	r2, .L59+76	@ VIC_DummyPWM01.12,
 1709 08a0 002083E5 		str	r2, [r3]	@ VIC_DummyPWM01.12, *_20
 659:src/init.c    ****     WRITEREG32(VICVECTADDR9, (INT32U)VIC_DummyI2C0);
 1710              		.loc 1 659 0
 1711 08a4 60319FE5 		ldr	r3, .L59+80	@ D.5244,
 1712 08a8 60219FE5 		ldr	r2, .L59+84	@ VIC_DummyI2C0.13,
 1713 08ac 002083E5 		str	r2, [r3]	@ VIC_DummyI2C0.13, *_22
 660:src/init.c    ****     WRITEREG32(VICVECTADDR10, (INT32U)VIC_DummySPI);
 1714              		.loc 1 660 0
 1715 08b0 5C319FE5 		ldr	r3, .L59+88	@ D.5244,
 1716 08b4 5C219FE5 		ldr	r2, .L59+92	@ VIC_DummySPI.14,
 1717 08b8 002083E5 		str	r2, [r3]	@ VIC_DummySPI.14, *_24
 661:src/init.c    ****     WRITEREG32(VICVECTADDR11, (INT32U)VIC_DummySSP1);
 1718              		.loc 1 661 0
 1719 08bc 58319FE5 		ldr	r3, .L59+96	@ D.5244,
 1720 08c0 58219FE5 		ldr	r2, .L59+100	@ VIC_DummySSP1.15,
 1721 08c4 002083E5 		str	r2, [r3]	@ VIC_DummySSP1.15, *_26
 662:src/init.c    ****     WRITEREG32(VICVECTADDR12, (INT32U)VIC_DummyPLL);
 1722              		.loc 1 662 0
 1723 08c8 54319FE5 		ldr	r3, .L59+104	@ D.5244,
 1724 08cc 54219FE5 		ldr	r2, .L59+108	@ VIC_DummyPLL.16,
 1725 08d0 002083E5 		str	r2, [r3]	@ VIC_DummyPLL.16, *_28
 663:src/init.c    ****     WRITEREG32(VICVECTADDR13, (INT32U)VIC_DummyRTC);
 1726              		.loc 1 663 0
 1727 08d4 50319FE5 		ldr	r3, .L59+112	@ D.5244,
 1728 08d8 50219FE5 		ldr	r2, .L59+116	@ VIC_DummyRTC.17,
ARM GAS  /tmp/ccjXaC2Q.s 			page 43


 1729 08dc 002083E5 		str	r2, [r3]	@ VIC_DummyRTC.17, *_30
 664:src/init.c    ****     WRITEREG32(VICVECTADDR14, (INT32U)VIC_DummyEINT0);
 1730              		.loc 1 664 0
 1731 08e0 4C319FE5 		ldr	r3, .L59+120	@ D.5244,
 1732 08e4 4C219FE5 		ldr	r2, .L59+124	@ VIC_DummyEINT0.18,
 1733 08e8 002083E5 		str	r2, [r3]	@ VIC_DummyEINT0.18, *_32
 665:src/init.c    ****     WRITEREG32(VICVECTADDR15, (INT32U)VIC_DummyEINT1);
 1734              		.loc 1 665 0
 1735 08ec 48319FE5 		ldr	r3, .L59+128	@ D.5244,
 1736 08f0 48219FE5 		ldr	r2, .L59+132	@ VIC_DummyEINT1.19,
 1737 08f4 002083E5 		str	r2, [r3]	@ VIC_DummyEINT1.19, *_34
 666:src/init.c    ****     WRITEREG32(VICVECTADDR16, (INT32U)VIC_DummyEINT2);
 1738              		.loc 1 666 0
 1739 08f8 44319FE5 		ldr	r3, .L59+136	@ D.5244,
 1740 08fc 44219FE5 		ldr	r2, .L59+140	@ VIC_DummyEINT2.20,
 1741 0900 002083E5 		str	r2, [r3]	@ VIC_DummyEINT2.20, *_36
 667:src/init.c    ****     WRITEREG32(VICVECTADDR17, (INT32U)VIC_DummyEINT3);
 1742              		.loc 1 667 0
 1743 0904 40319FE5 		ldr	r3, .L59+144	@ D.5244,
 1744 0908 40219FE5 		ldr	r2, .L59+148	@ VIC_DummyEINT3.21,
 1745 090c 002083E5 		str	r2, [r3]	@ VIC_DummyEINT3.21, *_38
 668:src/init.c    ****     WRITEREG32(VICVECTADDR18, (INT32U)VIC_DummyAD0);
 1746              		.loc 1 668 0
 1747 0910 3C319FE5 		ldr	r3, .L59+152	@ D.5244,
 1748 0914 3C219FE5 		ldr	r2, .L59+156	@ VIC_DummyAD0.22,
 1749 0918 002083E5 		str	r2, [r3]	@ VIC_DummyAD0.22, *_40
 669:src/init.c    ****     WRITEREG32(VICVECTADDR19, (INT32U)VIC_DummyI2C1);
 1750              		.loc 1 669 0
 1751 091c 38319FE5 		ldr	r3, .L59+160	@ D.5244,
 1752 0920 38219FE5 		ldr	r2, .L59+164	@ VIC_DummyI2C1.23,
 1753 0924 002083E5 		str	r2, [r3]	@ VIC_DummyI2C1.23, *_42
 670:src/init.c    ****     WRITEREG32(VICVECTADDR20, (INT32U)VIC_DummyBOD);
 1754              		.loc 1 670 0
 1755 0928 34319FE5 		ldr	r3, .L59+168	@ D.5244,
 1756 092c 34219FE5 		ldr	r2, .L59+172	@ VIC_DummyBOD.24,
 1757 0930 002083E5 		str	r2, [r3]	@ VIC_DummyBOD.24, *_44
 671:src/init.c    ****     WRITEREG32(VICVECTADDR21, (INT32U)VIC_DummyETHERNET);
 1758              		.loc 1 671 0
 1759 0934 30319FE5 		ldr	r3, .L59+176	@ D.5244,
 1760 0938 30219FE5 		ldr	r2, .L59+180	@ VIC_DummyETHERNET.25,
 1761 093c 002083E5 		str	r2, [r3]	@ VIC_DummyETHERNET.25, *_46
 672:src/init.c    ****     WRITEREG32(VICVECTADDR22, (INT32U)VIC_DummyUSB);
 1762              		.loc 1 672 0
 1763 0940 2C319FE5 		ldr	r3, .L59+184	@ D.5244,
 1764 0944 2C219FE5 		ldr	r2, .L59+188	@ VIC_DummyUSB.26,
 1765 0948 002083E5 		str	r2, [r3]	@ VIC_DummyUSB.26, *_48
 673:src/init.c    ****     WRITEREG32(VICVECTADDR23, (INT32U)VIC_DummyCAN01);
 1766              		.loc 1 673 0
 1767 094c 28319FE5 		ldr	r3, .L59+192	@ D.5244,
 1768 0950 28219FE5 		ldr	r2, .L59+196	@ VIC_DummyCAN01.27,
 1769 0954 002083E5 		str	r2, [r3]	@ VIC_DummyCAN01.27, *_50
 674:src/init.c    ****     WRITEREG32(VICVECTADDR24, (INT32U)VIC_DummyMMC);
 1770              		.loc 1 674 0
 1771 0958 24319FE5 		ldr	r3, .L59+200	@ D.5244,
 1772 095c 24219FE5 		ldr	r2, .L59+204	@ VIC_DummyMMC.28,
 1773 0960 002083E5 		str	r2, [r3]	@ VIC_DummyMMC.28, *_52
 675:src/init.c    ****     WRITEREG32(VICVECTADDR25, (INT32U)VIC_DummyGP_DMA);
ARM GAS  /tmp/ccjXaC2Q.s 			page 44


 1774              		.loc 1 675 0
 1775 0964 20319FE5 		ldr	r3, .L59+208	@ D.5244,
 1776 0968 20219FE5 		ldr	r2, .L59+212	@ VIC_DummyGP_DMA.29,
 1777 096c 002083E5 		str	r2, [r3]	@ VIC_DummyGP_DMA.29, *_54
 676:src/init.c    ****     WRITEREG32(VICVECTADDR26, (INT32U)VIC_DummyTIMER2);
 1778              		.loc 1 676 0
 1779 0970 1C319FE5 		ldr	r3, .L59+216	@ D.5244,
 1780 0974 1C219FE5 		ldr	r2, .L59+220	@ VIC_DummyTIMER2.30,
 1781 0978 002083E5 		str	r2, [r3]	@ VIC_DummyTIMER2.30, *_56
 677:src/init.c    ****     WRITEREG32(VICVECTADDR27, (INT32U)VIC_DummyTIMER3);
 1782              		.loc 1 677 0
 1783 097c 18319FE5 		ldr	r3, .L59+224	@ D.5244,
 1784 0980 18219FE5 		ldr	r2, .L59+228	@ VIC_DummyTIMER3.31,
 1785 0984 002083E5 		str	r2, [r3]	@ VIC_DummyTIMER3.31, *_58
 678:src/init.c    ****     WRITEREG32(VICVECTADDR28, (INT32U)VIC_DummyUART2);
 1786              		.loc 1 678 0
 1787 0988 14319FE5 		ldr	r3, .L59+232	@ D.5244,
 1788 098c 14219FE5 		ldr	r2, .L59+236	@ VIC_DummyUART2.32,
 1789 0990 002083E5 		str	r2, [r3]	@ VIC_DummyUART2.32, *_60
 679:src/init.c    ****     WRITEREG32(VICVECTADDR29, (INT32U)VIC_DummyUART3);
 1790              		.loc 1 679 0
 1791 0994 10319FE5 		ldr	r3, .L59+240	@ D.5244,
 1792 0998 10219FE5 		ldr	r2, .L59+244	@ VIC_DummyUART3.33,
 1793 099c 002083E5 		str	r2, [r3]	@ VIC_DummyUART3.33, *_62
 680:src/init.c    ****     WRITEREG32(VICVECTADDR30, (INT32U)VIC_DummyI2C2);
 1794              		.loc 1 680 0
 1795 09a0 0C319FE5 		ldr	r3, .L59+248	@ D.5244,
 1796 09a4 0C219FE5 		ldr	r2, .L59+252	@ VIC_DummyI2C2.34,
 1797 09a8 002083E5 		str	r2, [r3]	@ VIC_DummyI2C2.34, *_64
 681:src/init.c    ****     WRITEREG32(VICVECTADDR31, (INT32U)VIC_DummyI2S);
 1798              		.loc 1 681 0
 1799 09ac 08319FE5 		ldr	r3, .L59+256	@ D.5244,
 1800 09b0 08219FE5 		ldr	r2, .L59+260	@ VIC_DummyI2S.35,
 1801 09b4 002083E5 		str	r2, [r3]	@ VIC_DummyI2S.35, *_66
 682:src/init.c    **** }
 1802              		.loc 1 682 0
 1803 09b8 1EFF2FE1 		bx	lr	@
 1804              	.L60:
 1805              		.align	2
 1806              	.L59:
 1807 09bc 14F0FFFF 		.word	-4076
 1808 09c0 20F0FFFF 		.word	-4064
 1809 09c4 00F1FFFF 		.word	-3840
 1810 09c8 00000000 		.word	VIC_DummyWDT
 1811 09cc 04F1FFFF 		.word	-3836
 1812 09d0 00000000 		.word	VIC_DummySW
 1813 09d4 08F1FFFF 		.word	-3832
 1814 09d8 00000000 		.word	VIC_DummyDEBUGRX
 1815 09dc 0CF1FFFF 		.word	-3828
 1816 09e0 00000000 		.word	VIC_DummyDEBUGTX
 1817 09e4 10F1FFFF 		.word	-3824
 1818 09e8 00000000 		.word	VIC_DummyTIMER0
 1819 09ec 14F1FFFF 		.word	-3820
 1820 09f0 00000000 		.word	VIC_DummyTIMER1
 1821 09f4 18F1FFFF 		.word	-3816
 1822 09f8 00000000 		.word	VIC_DummyUART0
 1823 09fc 1CF1FFFF 		.word	-3812
ARM GAS  /tmp/ccjXaC2Q.s 			page 45


 1824 0a00 00000000 		.word	VIC_DummyUART1
 1825 0a04 20F1FFFF 		.word	-3808
 1826 0a08 00000000 		.word	VIC_DummyPWM01
 1827 0a0c 24F1FFFF 		.word	-3804
 1828 0a10 00000000 		.word	VIC_DummyI2C0
 1829 0a14 28F1FFFF 		.word	-3800
 1830 0a18 00000000 		.word	VIC_DummySPI
 1831 0a1c 2CF1FFFF 		.word	-3796
 1832 0a20 00000000 		.word	VIC_DummySSP1
 1833 0a24 30F1FFFF 		.word	-3792
 1834 0a28 00000000 		.word	VIC_DummyPLL
 1835 0a2c 34F1FFFF 		.word	-3788
 1836 0a30 00000000 		.word	VIC_DummyRTC
 1837 0a34 38F1FFFF 		.word	-3784
 1838 0a38 00000000 		.word	VIC_DummyEINT0
 1839 0a3c 3CF1FFFF 		.word	-3780
 1840 0a40 00000000 		.word	VIC_DummyEINT1
 1841 0a44 40F1FFFF 		.word	-3776
 1842 0a48 00000000 		.word	VIC_DummyEINT2
 1843 0a4c 44F1FFFF 		.word	-3772
 1844 0a50 00000000 		.word	VIC_DummyEINT3
 1845 0a54 48F1FFFF 		.word	-3768
 1846 0a58 00000000 		.word	VIC_DummyAD0
 1847 0a5c 4CF1FFFF 		.word	-3764
 1848 0a60 00000000 		.word	VIC_DummyI2C1
 1849 0a64 50F1FFFF 		.word	-3760
 1850 0a68 00000000 		.word	VIC_DummyBOD
 1851 0a6c 54F1FFFF 		.word	-3756
 1852 0a70 00000000 		.word	VIC_DummyETHERNET
 1853 0a74 58F1FFFF 		.word	-3752
 1854 0a78 00000000 		.word	VIC_DummyUSB
 1855 0a7c 5CF1FFFF 		.word	-3748
 1856 0a80 00000000 		.word	VIC_DummyCAN01
 1857 0a84 60F1FFFF 		.word	-3744
 1858 0a88 00000000 		.word	VIC_DummyMMC
 1859 0a8c 64F1FFFF 		.word	-3740
 1860 0a90 00000000 		.word	VIC_DummyGP_DMA
 1861 0a94 68F1FFFF 		.word	-3736
 1862 0a98 00000000 		.word	VIC_DummyTIMER2
 1863 0a9c 6CF1FFFF 		.word	-3732
 1864 0aa0 00000000 		.word	VIC_DummyTIMER3
 1865 0aa4 70F1FFFF 		.word	-3728
 1866 0aa8 00000000 		.word	VIC_DummyUART2
 1867 0aac 74F1FFFF 		.word	-3724
 1868 0ab0 00000000 		.word	VIC_DummyUART3
 1869 0ab4 78F1FFFF 		.word	-3720
 1870 0ab8 00000000 		.word	VIC_DummyI2C2
 1871 0abc 7CF1FFFF 		.word	-3716
 1872 0ac0 00000000 		.word	VIC_DummyI2S
 1873              		.cfi_endproc
 1874              	.LFE9:
 1875              		.size	VIC_Init, .-VIC_Init
 1876              		.align	2
 1877              		.type	VIC_Dummy, %function
 1878              	VIC_Dummy:
 1879              	.LFB10:
 683:src/init.c    **** 
ARM GAS  /tmp/ccjXaC2Q.s 			page 46


 684:src/init.c    **** 
 685:src/init.c    **** /*
 686:src/init.c    **** ***************************************************************************************************
 687:src/init.c    **** ***************************************************************************************************
 688:src/init.c    **** **                                       DUMMY INTERRUPT HANDLERS
 689:src/init.c    **** ***************************************************************************************************
 690:src/init.c    **** ***************************************************************************************************
 691:src/init.c    **** */
 692:src/init.c    **** 
 693:src/init.c    **** static  void  VIC_Dummy (void)
 694:src/init.c    **** {
 1880              		.loc 1 694 0
 1881              		.cfi_startproc
 1882              		@ Function supports interworking.
 1883              		@ args = 0, pretend = 0, frame = 0
 1884              		@ frame_needed = 0, uses_anonymous_args = 0
 1885              		@ link register save eliminated.
 1886              	.L62:
 695:src/init.c    ****     while (TRUE) {
 696:src/init.c    ****         ;
 697:src/init.c    ****     }
 1887              		.loc 1 697 0 discriminator 1
 1888 0ac4 FEFFFFEA 		b	.L62	@
 1889              		.cfi_endproc
 1890              	.LFE10:
 1891              		.size	VIC_Dummy, .-VIC_Dummy
 1892              		.align	2
 1893              		.type	VIC_DummyWDT, %function
 1894              	VIC_DummyWDT:
 1895              	.LFB11:
 698:src/init.c    **** }
 699:src/init.c    **** 
 700:src/init.c    **** static  void  VIC_DummyWDT (void)
 701:src/init.c    **** {
 1896              		.loc 1 701 0
 1897              		.cfi_startproc
 1898              		@ Function supports interworking.
 1899              		@ args = 0, pretend = 0, frame = 0
 1900              		@ frame_needed = 0, uses_anonymous_args = 0
 1901 0ac8 08402DE9 		stmfd	sp!, {r3, lr}	@,
 1902              	.LCFI12:
 1903              		.cfi_def_cfa_offset 8
 1904              		.cfi_offset 3, -8
 1905              		.cfi_offset 14, -4
 702:src/init.c    ****     VIC_SpuriousInt = VIC_WDT;
 1906              		.loc 1 702 0
 1907 0acc 10309FE5 		ldr	r3, .L64	@ tmp110,
 1908 0ad0 0020A0E3 		mov	r2, #0	@ tmp111,
 1909 0ad4 002083E5 		str	r2, [r3]	@ tmp111, VIC_SpuriousInt
 703:src/init.c    ****     VIC_Dummy();
 1910              		.loc 1 703 0
 1911 0ad8 F9FFFFEB 		bl	VIC_Dummy	@
 704:src/init.c    **** }
 1912              		.loc 1 704 0
 1913 0adc 0840BDE8 		ldmfd	sp!, {r3, lr}	@
 1914 0ae0 1EFF2FE1 		bx	lr	@
 1915              	.L65:
ARM GAS  /tmp/ccjXaC2Q.s 			page 47


 1916              		.align	2
 1917              	.L64:
 1918 0ae4 00000000 		.word	VIC_SpuriousInt
 1919              		.cfi_endproc
 1920              	.LFE11:
 1921              		.size	VIC_DummyWDT, .-VIC_DummyWDT
 1922              		.align	2
 1923              		.type	VIC_DummySW, %function
 1924              	VIC_DummySW:
 1925              	.LFB12:
 705:src/init.c    **** 
 706:src/init.c    **** static  void  VIC_DummySW (void)
 707:src/init.c    **** {
 1926              		.loc 1 707 0
 1927              		.cfi_startproc
 1928              		@ Function supports interworking.
 1929              		@ args = 0, pretend = 0, frame = 0
 1930              		@ frame_needed = 0, uses_anonymous_args = 0
 1931 0ae8 08402DE9 		stmfd	sp!, {r3, lr}	@,
 1932              	.LCFI13:
 1933              		.cfi_def_cfa_offset 8
 1934              		.cfi_offset 3, -8
 1935              		.cfi_offset 14, -4
 708:src/init.c    ****     VIC_SpuriousInt = VIC_SW;
 1936              		.loc 1 708 0
 1937 0aec 10309FE5 		ldr	r3, .L67	@ tmp110,
 1938 0af0 0120A0E3 		mov	r2, #1	@ tmp111,
 1939 0af4 002083E5 		str	r2, [r3]	@ tmp111, VIC_SpuriousInt
 709:src/init.c    ****     VIC_Dummy();
 1940              		.loc 1 709 0
 1941 0af8 F1FFFFEB 		bl	VIC_Dummy	@
 710:src/init.c    **** }
 1942              		.loc 1 710 0
 1943 0afc 0840BDE8 		ldmfd	sp!, {r3, lr}	@
 1944 0b00 1EFF2FE1 		bx	lr	@
 1945              	.L68:
 1946              		.align	2
 1947              	.L67:
 1948 0b04 00000000 		.word	VIC_SpuriousInt
 1949              		.cfi_endproc
 1950              	.LFE12:
 1951              		.size	VIC_DummySW, .-VIC_DummySW
 1952              		.align	2
 1953              		.type	VIC_DummyDEBUGRX, %function
 1954              	VIC_DummyDEBUGRX:
 1955              	.LFB13:
 711:src/init.c    **** 
 712:src/init.c    **** static  void  VIC_DummyDEBUGRX (void)
 713:src/init.c    **** {
 1956              		.loc 1 713 0
 1957              		.cfi_startproc
 1958              		@ Function supports interworking.
 1959              		@ args = 0, pretend = 0, frame = 0
 1960              		@ frame_needed = 0, uses_anonymous_args = 0
 1961 0b08 08402DE9 		stmfd	sp!, {r3, lr}	@,
 1962              	.LCFI14:
 1963              		.cfi_def_cfa_offset 8
ARM GAS  /tmp/ccjXaC2Q.s 			page 48


 1964              		.cfi_offset 3, -8
 1965              		.cfi_offset 14, -4
 714:src/init.c    ****     VIC_SpuriousInt = VIC_DEBUGRX;
 1966              		.loc 1 714 0
 1967 0b0c 10309FE5 		ldr	r3, .L70	@ tmp110,
 1968 0b10 0220A0E3 		mov	r2, #2	@ tmp111,
 1969 0b14 002083E5 		str	r2, [r3]	@ tmp111, VIC_SpuriousInt
 715:src/init.c    ****     VIC_Dummy();
 1970              		.loc 1 715 0
 1971 0b18 E9FFFFEB 		bl	VIC_Dummy	@
 716:src/init.c    **** }
 1972              		.loc 1 716 0
 1973 0b1c 0840BDE8 		ldmfd	sp!, {r3, lr}	@
 1974 0b20 1EFF2FE1 		bx	lr	@
 1975              	.L71:
 1976              		.align	2
 1977              	.L70:
 1978 0b24 00000000 		.word	VIC_SpuriousInt
 1979              		.cfi_endproc
 1980              	.LFE13:
 1981              		.size	VIC_DummyDEBUGRX, .-VIC_DummyDEBUGRX
 1982              		.align	2
 1983              		.type	VIC_DummyDEBUGTX, %function
 1984              	VIC_DummyDEBUGTX:
 1985              	.LFB14:
 717:src/init.c    **** 
 718:src/init.c    **** static  void  VIC_DummyDEBUGTX (void)
 719:src/init.c    **** {
 1986              		.loc 1 719 0
 1987              		.cfi_startproc
 1988              		@ Function supports interworking.
 1989              		@ args = 0, pretend = 0, frame = 0
 1990              		@ frame_needed = 0, uses_anonymous_args = 0
 1991 0b28 08402DE9 		stmfd	sp!, {r3, lr}	@,
 1992              	.LCFI15:
 1993              		.cfi_def_cfa_offset 8
 1994              		.cfi_offset 3, -8
 1995              		.cfi_offset 14, -4
 720:src/init.c    ****     VIC_SpuriousInt = VIC_DEBUGTX;
 1996              		.loc 1 720 0
 1997 0b2c 10309FE5 		ldr	r3, .L73	@ tmp110,
 1998 0b30 0320A0E3 		mov	r2, #3	@ tmp111,
 1999 0b34 002083E5 		str	r2, [r3]	@ tmp111, VIC_SpuriousInt
 721:src/init.c    ****     VIC_Dummy();
 2000              		.loc 1 721 0
 2001 0b38 E1FFFFEB 		bl	VIC_Dummy	@
 722:src/init.c    **** }
 2002              		.loc 1 722 0
 2003 0b3c 0840BDE8 		ldmfd	sp!, {r3, lr}	@
 2004 0b40 1EFF2FE1 		bx	lr	@
 2005              	.L74:
 2006              		.align	2
 2007              	.L73:
 2008 0b44 00000000 		.word	VIC_SpuriousInt
 2009              		.cfi_endproc
 2010              	.LFE14:
 2011              		.size	VIC_DummyDEBUGTX, .-VIC_DummyDEBUGTX
ARM GAS  /tmp/ccjXaC2Q.s 			page 49


 2012              		.align	2
 2013              		.type	VIC_DummyTIMER0, %function
 2014              	VIC_DummyTIMER0:
 2015              	.LFB15:
 723:src/init.c    **** 
 724:src/init.c    **** static  void  VIC_DummyTIMER0 (void)
 725:src/init.c    **** {
 2016              		.loc 1 725 0
 2017              		.cfi_startproc
 2018              		@ Function supports interworking.
 2019              		@ args = 0, pretend = 0, frame = 0
 2020              		@ frame_needed = 0, uses_anonymous_args = 0
 2021 0b48 08402DE9 		stmfd	sp!, {r3, lr}	@,
 2022              	.LCFI16:
 2023              		.cfi_def_cfa_offset 8
 2024              		.cfi_offset 3, -8
 2025              		.cfi_offset 14, -4
 726:src/init.c    ****     VIC_SpuriousInt = VIC_TIMER0;
 2026              		.loc 1 726 0
 2027 0b4c 10309FE5 		ldr	r3, .L76	@ tmp110,
 2028 0b50 0420A0E3 		mov	r2, #4	@ tmp111,
 2029 0b54 002083E5 		str	r2, [r3]	@ tmp111, VIC_SpuriousInt
 727:src/init.c    ****     VIC_Dummy();
 2030              		.loc 1 727 0
 2031 0b58 D9FFFFEB 		bl	VIC_Dummy	@
 728:src/init.c    **** }
 2032              		.loc 1 728 0
 2033 0b5c 0840BDE8 		ldmfd	sp!, {r3, lr}	@
 2034 0b60 1EFF2FE1 		bx	lr	@
 2035              	.L77:
 2036              		.align	2
 2037              	.L76:
 2038 0b64 00000000 		.word	VIC_SpuriousInt
 2039              		.cfi_endproc
 2040              	.LFE15:
 2041              		.size	VIC_DummyTIMER0, .-VIC_DummyTIMER0
 2042              		.align	2
 2043              		.type	VIC_DummyTIMER1, %function
 2044              	VIC_DummyTIMER1:
 2045              	.LFB16:
 729:src/init.c    **** 
 730:src/init.c    **** static  void  VIC_DummyTIMER1 (void)
 731:src/init.c    **** {
 2046              		.loc 1 731 0
 2047              		.cfi_startproc
 2048              		@ Function supports interworking.
 2049              		@ args = 0, pretend = 0, frame = 0
 2050              		@ frame_needed = 0, uses_anonymous_args = 0
 2051 0b68 08402DE9 		stmfd	sp!, {r3, lr}	@,
 2052              	.LCFI17:
 2053              		.cfi_def_cfa_offset 8
 2054              		.cfi_offset 3, -8
 2055              		.cfi_offset 14, -4
 732:src/init.c    ****     VIC_SpuriousInt = VIC_TIMER1;
 2056              		.loc 1 732 0
 2057 0b6c 10309FE5 		ldr	r3, .L79	@ tmp110,
 2058 0b70 0520A0E3 		mov	r2, #5	@ tmp111,
ARM GAS  /tmp/ccjXaC2Q.s 			page 50


 2059 0b74 002083E5 		str	r2, [r3]	@ tmp111, VIC_SpuriousInt
 733:src/init.c    ****     VIC_Dummy();
 2060              		.loc 1 733 0
 2061 0b78 D1FFFFEB 		bl	VIC_Dummy	@
 734:src/init.c    **** }
 2062              		.loc 1 734 0
 2063 0b7c 0840BDE8 		ldmfd	sp!, {r3, lr}	@
 2064 0b80 1EFF2FE1 		bx	lr	@
 2065              	.L80:
 2066              		.align	2
 2067              	.L79:
 2068 0b84 00000000 		.word	VIC_SpuriousInt
 2069              		.cfi_endproc
 2070              	.LFE16:
 2071              		.size	VIC_DummyTIMER1, .-VIC_DummyTIMER1
 2072              		.align	2
 2073              		.type	VIC_DummyUART0, %function
 2074              	VIC_DummyUART0:
 2075              	.LFB17:
 735:src/init.c    **** 
 736:src/init.c    **** static  void  VIC_DummyUART0 (void)
 737:src/init.c    **** {
 2076              		.loc 1 737 0
 2077              		.cfi_startproc
 2078              		@ Function supports interworking.
 2079              		@ args = 0, pretend = 0, frame = 0
 2080              		@ frame_needed = 0, uses_anonymous_args = 0
 2081 0b88 08402DE9 		stmfd	sp!, {r3, lr}	@,
 2082              	.LCFI18:
 2083              		.cfi_def_cfa_offset 8
 2084              		.cfi_offset 3, -8
 2085              		.cfi_offset 14, -4
 738:src/init.c    ****     VIC_SpuriousInt = VIC_UART0;
 2086              		.loc 1 738 0
 2087 0b8c 10309FE5 		ldr	r3, .L82	@ tmp110,
 2088 0b90 0620A0E3 		mov	r2, #6	@ tmp111,
 2089 0b94 002083E5 		str	r2, [r3]	@ tmp111, VIC_SpuriousInt
 739:src/init.c    ****     VIC_Dummy();
 2090              		.loc 1 739 0
 2091 0b98 C9FFFFEB 		bl	VIC_Dummy	@
 740:src/init.c    **** }
 2092              		.loc 1 740 0
 2093 0b9c 0840BDE8 		ldmfd	sp!, {r3, lr}	@
 2094 0ba0 1EFF2FE1 		bx	lr	@
 2095              	.L83:
 2096              		.align	2
 2097              	.L82:
 2098 0ba4 00000000 		.word	VIC_SpuriousInt
 2099              		.cfi_endproc
 2100              	.LFE17:
 2101              		.size	VIC_DummyUART0, .-VIC_DummyUART0
 2102              		.align	2
 2103              		.type	VIC_DummyUART1, %function
 2104              	VIC_DummyUART1:
 2105              	.LFB18:
 741:src/init.c    **** 
 742:src/init.c    **** static  void  VIC_DummyUART1 (void)
ARM GAS  /tmp/ccjXaC2Q.s 			page 51


 743:src/init.c    **** {
 2106              		.loc 1 743 0
 2107              		.cfi_startproc
 2108              		@ Function supports interworking.
 2109              		@ args = 0, pretend = 0, frame = 0
 2110              		@ frame_needed = 0, uses_anonymous_args = 0
 2111 0ba8 08402DE9 		stmfd	sp!, {r3, lr}	@,
 2112              	.LCFI19:
 2113              		.cfi_def_cfa_offset 8
 2114              		.cfi_offset 3, -8
 2115              		.cfi_offset 14, -4
 744:src/init.c    ****     VIC_SpuriousInt = VIC_UART1;
 2116              		.loc 1 744 0
 2117 0bac 10309FE5 		ldr	r3, .L85	@ tmp110,
 2118 0bb0 0720A0E3 		mov	r2, #7	@ tmp111,
 2119 0bb4 002083E5 		str	r2, [r3]	@ tmp111, VIC_SpuriousInt
 745:src/init.c    ****     VIC_Dummy();
 2120              		.loc 1 745 0
 2121 0bb8 C1FFFFEB 		bl	VIC_Dummy	@
 746:src/init.c    **** }
 2122              		.loc 1 746 0
 2123 0bbc 0840BDE8 		ldmfd	sp!, {r3, lr}	@
 2124 0bc0 1EFF2FE1 		bx	lr	@
 2125              	.L86:
 2126              		.align	2
 2127              	.L85:
 2128 0bc4 00000000 		.word	VIC_SpuriousInt
 2129              		.cfi_endproc
 2130              	.LFE18:
 2131              		.size	VIC_DummyUART1, .-VIC_DummyUART1
 2132              		.align	2
 2133              		.type	VIC_DummyPWM01, %function
 2134              	VIC_DummyPWM01:
 2135              	.LFB19:
 747:src/init.c    **** 
 748:src/init.c    **** static  void  VIC_DummyPWM01 (void)
 749:src/init.c    **** {
 2136              		.loc 1 749 0
 2137              		.cfi_startproc
 2138              		@ Function supports interworking.
 2139              		@ args = 0, pretend = 0, frame = 0
 2140              		@ frame_needed = 0, uses_anonymous_args = 0
 2141 0bc8 08402DE9 		stmfd	sp!, {r3, lr}	@,
 2142              	.LCFI20:
 2143              		.cfi_def_cfa_offset 8
 2144              		.cfi_offset 3, -8
 2145              		.cfi_offset 14, -4
 750:src/init.c    ****     VIC_SpuriousInt = VIC_PWM01;
 2146              		.loc 1 750 0
 2147 0bcc 10309FE5 		ldr	r3, .L88	@ tmp110,
 2148 0bd0 0820A0E3 		mov	r2, #8	@ tmp111,
 2149 0bd4 002083E5 		str	r2, [r3]	@ tmp111, VIC_SpuriousInt
 751:src/init.c    ****     VIC_Dummy();
 2150              		.loc 1 751 0
 2151 0bd8 B9FFFFEB 		bl	VIC_Dummy	@
 752:src/init.c    **** }
 2152              		.loc 1 752 0
ARM GAS  /tmp/ccjXaC2Q.s 			page 52


 2153 0bdc 0840BDE8 		ldmfd	sp!, {r3, lr}	@
 2154 0be0 1EFF2FE1 		bx	lr	@
 2155              	.L89:
 2156              		.align	2
 2157              	.L88:
 2158 0be4 00000000 		.word	VIC_SpuriousInt
 2159              		.cfi_endproc
 2160              	.LFE19:
 2161              		.size	VIC_DummyPWM01, .-VIC_DummyPWM01
 2162              		.align	2
 2163              		.type	VIC_DummyI2C0, %function
 2164              	VIC_DummyI2C0:
 2165              	.LFB20:
 753:src/init.c    **** 
 754:src/init.c    **** static  void  VIC_DummyI2C0 (void)
 755:src/init.c    **** {
 2166              		.loc 1 755 0
 2167              		.cfi_startproc
 2168              		@ Function supports interworking.
 2169              		@ args = 0, pretend = 0, frame = 0
 2170              		@ frame_needed = 0, uses_anonymous_args = 0
 2171 0be8 08402DE9 		stmfd	sp!, {r3, lr}	@,
 2172              	.LCFI21:
 2173              		.cfi_def_cfa_offset 8
 2174              		.cfi_offset 3, -8
 2175              		.cfi_offset 14, -4
 756:src/init.c    ****     VIC_SpuriousInt = VIC_I2C0;
 2176              		.loc 1 756 0
 2177 0bec 10309FE5 		ldr	r3, .L91	@ tmp110,
 2178 0bf0 0920A0E3 		mov	r2, #9	@ tmp111,
 2179 0bf4 002083E5 		str	r2, [r3]	@ tmp111, VIC_SpuriousInt
 757:src/init.c    ****     VIC_Dummy();
 2180              		.loc 1 757 0
 2181 0bf8 B1FFFFEB 		bl	VIC_Dummy	@
 758:src/init.c    **** }
 2182              		.loc 1 758 0
 2183 0bfc 0840BDE8 		ldmfd	sp!, {r3, lr}	@
 2184 0c00 1EFF2FE1 		bx	lr	@
 2185              	.L92:
 2186              		.align	2
 2187              	.L91:
 2188 0c04 00000000 		.word	VIC_SpuriousInt
 2189              		.cfi_endproc
 2190              	.LFE20:
 2191              		.size	VIC_DummyI2C0, .-VIC_DummyI2C0
 2192              		.align	2
 2193              		.type	VIC_DummySPI, %function
 2194              	VIC_DummySPI:
 2195              	.LFB21:
 759:src/init.c    **** 
 760:src/init.c    **** static  void  VIC_DummySPI (void)
 761:src/init.c    **** {
 2196              		.loc 1 761 0
 2197              		.cfi_startproc
 2198              		@ Function supports interworking.
 2199              		@ args = 0, pretend = 0, frame = 0
 2200              		@ frame_needed = 0, uses_anonymous_args = 0
ARM GAS  /tmp/ccjXaC2Q.s 			page 53


 2201 0c08 08402DE9 		stmfd	sp!, {r3, lr}	@,
 2202              	.LCFI22:
 2203              		.cfi_def_cfa_offset 8
 2204              		.cfi_offset 3, -8
 2205              		.cfi_offset 14, -4
 762:src/init.c    ****     VIC_SpuriousInt = VIC_SPI;
 2206              		.loc 1 762 0
 2207 0c0c 10309FE5 		ldr	r3, .L94	@ tmp110,
 2208 0c10 0A20A0E3 		mov	r2, #10	@ tmp111,
 2209 0c14 002083E5 		str	r2, [r3]	@ tmp111, VIC_SpuriousInt
 763:src/init.c    ****     VIC_Dummy();
 2210              		.loc 1 763 0
 2211 0c18 A9FFFFEB 		bl	VIC_Dummy	@
 764:src/init.c    **** }
 2212              		.loc 1 764 0
 2213 0c1c 0840BDE8 		ldmfd	sp!, {r3, lr}	@
 2214 0c20 1EFF2FE1 		bx	lr	@
 2215              	.L95:
 2216              		.align	2
 2217              	.L94:
 2218 0c24 00000000 		.word	VIC_SpuriousInt
 2219              		.cfi_endproc
 2220              	.LFE21:
 2221              		.size	VIC_DummySPI, .-VIC_DummySPI
 2222              		.align	2
 2223              		.type	VIC_DummySSP1, %function
 2224              	VIC_DummySSP1:
 2225              	.LFB22:
 765:src/init.c    **** 
 766:src/init.c    **** static  void  VIC_DummySSP1 (void)
 767:src/init.c    **** {
 2226              		.loc 1 767 0
 2227              		.cfi_startproc
 2228              		@ Function supports interworking.
 2229              		@ args = 0, pretend = 0, frame = 0
 2230              		@ frame_needed = 0, uses_anonymous_args = 0
 2231 0c28 08402DE9 		stmfd	sp!, {r3, lr}	@,
 2232              	.LCFI23:
 2233              		.cfi_def_cfa_offset 8
 2234              		.cfi_offset 3, -8
 2235              		.cfi_offset 14, -4
 768:src/init.c    ****     VIC_SpuriousInt = VIC_SSP1;
 2236              		.loc 1 768 0
 2237 0c2c 10309FE5 		ldr	r3, .L97	@ tmp110,
 2238 0c30 0B20A0E3 		mov	r2, #11	@ tmp111,
 2239 0c34 002083E5 		str	r2, [r3]	@ tmp111, VIC_SpuriousInt
 769:src/init.c    ****     VIC_Dummy();
 2240              		.loc 1 769 0
 2241 0c38 A1FFFFEB 		bl	VIC_Dummy	@
 770:src/init.c    **** }
 2242              		.loc 1 770 0
 2243 0c3c 0840BDE8 		ldmfd	sp!, {r3, lr}	@
 2244 0c40 1EFF2FE1 		bx	lr	@
 2245              	.L98:
 2246              		.align	2
 2247              	.L97:
 2248 0c44 00000000 		.word	VIC_SpuriousInt
ARM GAS  /tmp/ccjXaC2Q.s 			page 54


 2249              		.cfi_endproc
 2250              	.LFE22:
 2251              		.size	VIC_DummySSP1, .-VIC_DummySSP1
 2252              		.align	2
 2253              		.type	VIC_DummyPLL, %function
 2254              	VIC_DummyPLL:
 2255              	.LFB23:
 771:src/init.c    **** 
 772:src/init.c    **** static  void  VIC_DummyPLL (void)
 773:src/init.c    **** {
 2256              		.loc 1 773 0
 2257              		.cfi_startproc
 2258              		@ Function supports interworking.
 2259              		@ args = 0, pretend = 0, frame = 0
 2260              		@ frame_needed = 0, uses_anonymous_args = 0
 2261 0c48 08402DE9 		stmfd	sp!, {r3, lr}	@,
 2262              	.LCFI24:
 2263              		.cfi_def_cfa_offset 8
 2264              		.cfi_offset 3, -8
 2265              		.cfi_offset 14, -4
 774:src/init.c    ****     VIC_SpuriousInt = VIC_PLL;
 2266              		.loc 1 774 0
 2267 0c4c 10309FE5 		ldr	r3, .L100	@ tmp110,
 2268 0c50 0C20A0E3 		mov	r2, #12	@ tmp111,
 2269 0c54 002083E5 		str	r2, [r3]	@ tmp111, VIC_SpuriousInt
 775:src/init.c    ****     VIC_Dummy();
 2270              		.loc 1 775 0
 2271 0c58 99FFFFEB 		bl	VIC_Dummy	@
 776:src/init.c    **** }
 2272              		.loc 1 776 0
 2273 0c5c 0840BDE8 		ldmfd	sp!, {r3, lr}	@
 2274 0c60 1EFF2FE1 		bx	lr	@
 2275              	.L101:
 2276              		.align	2
 2277              	.L100:
 2278 0c64 00000000 		.word	VIC_SpuriousInt
 2279              		.cfi_endproc
 2280              	.LFE23:
 2281              		.size	VIC_DummyPLL, .-VIC_DummyPLL
 2282              		.align	2
 2283              		.type	VIC_DummyRTC, %function
 2284              	VIC_DummyRTC:
 2285              	.LFB24:
 777:src/init.c    **** 
 778:src/init.c    **** static  void  VIC_DummyRTC (void)
 779:src/init.c    **** {
 2286              		.loc 1 779 0
 2287              		.cfi_startproc
 2288              		@ Function supports interworking.
 2289              		@ args = 0, pretend = 0, frame = 0
 2290              		@ frame_needed = 0, uses_anonymous_args = 0
 2291 0c68 08402DE9 		stmfd	sp!, {r3, lr}	@,
 2292              	.LCFI25:
 2293              		.cfi_def_cfa_offset 8
 2294              		.cfi_offset 3, -8
 2295              		.cfi_offset 14, -4
 780:src/init.c    ****     VIC_SpuriousInt = VIC_RTC;
ARM GAS  /tmp/ccjXaC2Q.s 			page 55


 2296              		.loc 1 780 0
 2297 0c6c 10309FE5 		ldr	r3, .L103	@ tmp110,
 2298 0c70 0D20A0E3 		mov	r2, #13	@ tmp111,
 2299 0c74 002083E5 		str	r2, [r3]	@ tmp111, VIC_SpuriousInt
 781:src/init.c    ****     VIC_Dummy();
 2300              		.loc 1 781 0
 2301 0c78 91FFFFEB 		bl	VIC_Dummy	@
 782:src/init.c    **** }
 2302              		.loc 1 782 0
 2303 0c7c 0840BDE8 		ldmfd	sp!, {r3, lr}	@
 2304 0c80 1EFF2FE1 		bx	lr	@
 2305              	.L104:
 2306              		.align	2
 2307              	.L103:
 2308 0c84 00000000 		.word	VIC_SpuriousInt
 2309              		.cfi_endproc
 2310              	.LFE24:
 2311              		.size	VIC_DummyRTC, .-VIC_DummyRTC
 2312              		.align	2
 2313              		.type	VIC_DummyEINT0, %function
 2314              	VIC_DummyEINT0:
 2315              	.LFB25:
 783:src/init.c    **** 
 784:src/init.c    **** static  void  VIC_DummyEINT0 (void)
 785:src/init.c    **** {
 2316              		.loc 1 785 0
 2317              		.cfi_startproc
 2318              		@ Function supports interworking.
 2319              		@ args = 0, pretend = 0, frame = 0
 2320              		@ frame_needed = 0, uses_anonymous_args = 0
 2321 0c88 08402DE9 		stmfd	sp!, {r3, lr}	@,
 2322              	.LCFI26:
 2323              		.cfi_def_cfa_offset 8
 2324              		.cfi_offset 3, -8
 2325              		.cfi_offset 14, -4
 786:src/init.c    ****     VIC_SpuriousInt = VIC_EINT0;
 2326              		.loc 1 786 0
 2327 0c8c 10309FE5 		ldr	r3, .L106	@ tmp110,
 2328 0c90 0E20A0E3 		mov	r2, #14	@ tmp111,
 2329 0c94 002083E5 		str	r2, [r3]	@ tmp111, VIC_SpuriousInt
 787:src/init.c    ****     VIC_Dummy();
 2330              		.loc 1 787 0
 2331 0c98 89FFFFEB 		bl	VIC_Dummy	@
 788:src/init.c    **** }
 2332              		.loc 1 788 0
 2333 0c9c 0840BDE8 		ldmfd	sp!, {r3, lr}	@
 2334 0ca0 1EFF2FE1 		bx	lr	@
 2335              	.L107:
 2336              		.align	2
 2337              	.L106:
 2338 0ca4 00000000 		.word	VIC_SpuriousInt
 2339              		.cfi_endproc
 2340              	.LFE25:
 2341              		.size	VIC_DummyEINT0, .-VIC_DummyEINT0
 2342              		.align	2
 2343              		.type	VIC_DummyEINT1, %function
 2344              	VIC_DummyEINT1:
ARM GAS  /tmp/ccjXaC2Q.s 			page 56


 2345              	.LFB26:
 789:src/init.c    **** 
 790:src/init.c    **** static  void  VIC_DummyEINT1 (void)
 791:src/init.c    **** {
 2346              		.loc 1 791 0
 2347              		.cfi_startproc
 2348              		@ Function supports interworking.
 2349              		@ args = 0, pretend = 0, frame = 0
 2350              		@ frame_needed = 0, uses_anonymous_args = 0
 2351 0ca8 08402DE9 		stmfd	sp!, {r3, lr}	@,
 2352              	.LCFI27:
 2353              		.cfi_def_cfa_offset 8
 2354              		.cfi_offset 3, -8
 2355              		.cfi_offset 14, -4
 792:src/init.c    ****     VIC_SpuriousInt = VIC_EINT1;
 2356              		.loc 1 792 0
 2357 0cac 10309FE5 		ldr	r3, .L109	@ tmp110,
 2358 0cb0 0F20A0E3 		mov	r2, #15	@ tmp111,
 2359 0cb4 002083E5 		str	r2, [r3]	@ tmp111, VIC_SpuriousInt
 793:src/init.c    ****     VIC_Dummy();
 2360              		.loc 1 793 0
 2361 0cb8 81FFFFEB 		bl	VIC_Dummy	@
 794:src/init.c    **** }
 2362              		.loc 1 794 0
 2363 0cbc 0840BDE8 		ldmfd	sp!, {r3, lr}	@
 2364 0cc0 1EFF2FE1 		bx	lr	@
 2365              	.L110:
 2366              		.align	2
 2367              	.L109:
 2368 0cc4 00000000 		.word	VIC_SpuriousInt
 2369              		.cfi_endproc
 2370              	.LFE26:
 2371              		.size	VIC_DummyEINT1, .-VIC_DummyEINT1
 2372              		.align	2
 2373              		.type	VIC_DummyEINT2, %function
 2374              	VIC_DummyEINT2:
 2375              	.LFB27:
 795:src/init.c    **** 
 796:src/init.c    **** static  void  VIC_DummyEINT2 (void)
 797:src/init.c    **** {
 2376              		.loc 1 797 0
 2377              		.cfi_startproc
 2378              		@ Function supports interworking.
 2379              		@ args = 0, pretend = 0, frame = 0
 2380              		@ frame_needed = 0, uses_anonymous_args = 0
 2381 0cc8 08402DE9 		stmfd	sp!, {r3, lr}	@,
 2382              	.LCFI28:
 2383              		.cfi_def_cfa_offset 8
 2384              		.cfi_offset 3, -8
 2385              		.cfi_offset 14, -4
 798:src/init.c    ****     VIC_SpuriousInt = VIC_EINT2;
 2386              		.loc 1 798 0
 2387 0ccc 10309FE5 		ldr	r3, .L112	@ tmp110,
 2388 0cd0 1020A0E3 		mov	r2, #16	@ tmp111,
 2389 0cd4 002083E5 		str	r2, [r3]	@ tmp111, VIC_SpuriousInt
 799:src/init.c    ****     VIC_Dummy();
 2390              		.loc 1 799 0
ARM GAS  /tmp/ccjXaC2Q.s 			page 57


 2391 0cd8 79FFFFEB 		bl	VIC_Dummy	@
 800:src/init.c    **** }
 2392              		.loc 1 800 0
 2393 0cdc 0840BDE8 		ldmfd	sp!, {r3, lr}	@
 2394 0ce0 1EFF2FE1 		bx	lr	@
 2395              	.L113:
 2396              		.align	2
 2397              	.L112:
 2398 0ce4 00000000 		.word	VIC_SpuriousInt
 2399              		.cfi_endproc
 2400              	.LFE27:
 2401              		.size	VIC_DummyEINT2, .-VIC_DummyEINT2
 2402              		.align	2
 2403              		.type	VIC_DummyEINT3, %function
 2404              	VIC_DummyEINT3:
 2405              	.LFB28:
 801:src/init.c    **** 
 802:src/init.c    **** static  void  VIC_DummyEINT3 (void)
 803:src/init.c    **** {
 2406              		.loc 1 803 0
 2407              		.cfi_startproc
 2408              		@ Function supports interworking.
 2409              		@ args = 0, pretend = 0, frame = 0
 2410              		@ frame_needed = 0, uses_anonymous_args = 0
 2411 0ce8 08402DE9 		stmfd	sp!, {r3, lr}	@,
 2412              	.LCFI29:
 2413              		.cfi_def_cfa_offset 8
 2414              		.cfi_offset 3, -8
 2415              		.cfi_offset 14, -4
 804:src/init.c    ****     VIC_SpuriousInt = VIC_EINT3;
 2416              		.loc 1 804 0
 2417 0cec 10309FE5 		ldr	r3, .L115	@ tmp110,
 2418 0cf0 1120A0E3 		mov	r2, #17	@ tmp111,
 2419 0cf4 002083E5 		str	r2, [r3]	@ tmp111, VIC_SpuriousInt
 805:src/init.c    ****     VIC_Dummy();
 2420              		.loc 1 805 0
 2421 0cf8 71FFFFEB 		bl	VIC_Dummy	@
 806:src/init.c    **** }
 2422              		.loc 1 806 0
 2423 0cfc 0840BDE8 		ldmfd	sp!, {r3, lr}	@
 2424 0d00 1EFF2FE1 		bx	lr	@
 2425              	.L116:
 2426              		.align	2
 2427              	.L115:
 2428 0d04 00000000 		.word	VIC_SpuriousInt
 2429              		.cfi_endproc
 2430              	.LFE28:
 2431              		.size	VIC_DummyEINT3, .-VIC_DummyEINT3
 2432              		.align	2
 2433              		.type	VIC_DummyAD0, %function
 2434              	VIC_DummyAD0:
 2435              	.LFB29:
 807:src/init.c    **** 
 808:src/init.c    **** static  void  VIC_DummyAD0 (void)
 809:src/init.c    **** {
 2436              		.loc 1 809 0
 2437              		.cfi_startproc
ARM GAS  /tmp/ccjXaC2Q.s 			page 58


 2438              		@ Function supports interworking.
 2439              		@ args = 0, pretend = 0, frame = 0
 2440              		@ frame_needed = 0, uses_anonymous_args = 0
 2441 0d08 08402DE9 		stmfd	sp!, {r3, lr}	@,
 2442              	.LCFI30:
 2443              		.cfi_def_cfa_offset 8
 2444              		.cfi_offset 3, -8
 2445              		.cfi_offset 14, -4
 810:src/init.c    ****     VIC_SpuriousInt = VIC_AD0;
 2446              		.loc 1 810 0
 2447 0d0c 10309FE5 		ldr	r3, .L118	@ tmp110,
 2448 0d10 1220A0E3 		mov	r2, #18	@ tmp111,
 2449 0d14 002083E5 		str	r2, [r3]	@ tmp111, VIC_SpuriousInt
 811:src/init.c    ****     VIC_Dummy();
 2450              		.loc 1 811 0
 2451 0d18 69FFFFEB 		bl	VIC_Dummy	@
 812:src/init.c    **** }
 2452              		.loc 1 812 0
 2453 0d1c 0840BDE8 		ldmfd	sp!, {r3, lr}	@
 2454 0d20 1EFF2FE1 		bx	lr	@
 2455              	.L119:
 2456              		.align	2
 2457              	.L118:
 2458 0d24 00000000 		.word	VIC_SpuriousInt
 2459              		.cfi_endproc
 2460              	.LFE29:
 2461              		.size	VIC_DummyAD0, .-VIC_DummyAD0
 2462              		.align	2
 2463              		.type	VIC_DummyI2C1, %function
 2464              	VIC_DummyI2C1:
 2465              	.LFB30:
 813:src/init.c    **** 
 814:src/init.c    **** static  void  VIC_DummyI2C1 (void)
 815:src/init.c    **** {
 2466              		.loc 1 815 0
 2467              		.cfi_startproc
 2468              		@ Function supports interworking.
 2469              		@ args = 0, pretend = 0, frame = 0
 2470              		@ frame_needed = 0, uses_anonymous_args = 0
 2471 0d28 08402DE9 		stmfd	sp!, {r3, lr}	@,
 2472              	.LCFI31:
 2473              		.cfi_def_cfa_offset 8
 2474              		.cfi_offset 3, -8
 2475              		.cfi_offset 14, -4
 816:src/init.c    ****     VIC_SpuriousInt = VIC_I2C1;
 2476              		.loc 1 816 0
 2477 0d2c 10309FE5 		ldr	r3, .L121	@ tmp110,
 2478 0d30 1320A0E3 		mov	r2, #19	@ tmp111,
 2479 0d34 002083E5 		str	r2, [r3]	@ tmp111, VIC_SpuriousInt
 817:src/init.c    ****     VIC_Dummy();
 2480              		.loc 1 817 0
 2481 0d38 61FFFFEB 		bl	VIC_Dummy	@
 818:src/init.c    **** }
 2482              		.loc 1 818 0
 2483 0d3c 0840BDE8 		ldmfd	sp!, {r3, lr}	@
 2484 0d40 1EFF2FE1 		bx	lr	@
 2485              	.L122:
ARM GAS  /tmp/ccjXaC2Q.s 			page 59


 2486              		.align	2
 2487              	.L121:
 2488 0d44 00000000 		.word	VIC_SpuriousInt
 2489              		.cfi_endproc
 2490              	.LFE30:
 2491              		.size	VIC_DummyI2C1, .-VIC_DummyI2C1
 2492              		.align	2
 2493              		.type	VIC_DummyBOD, %function
 2494              	VIC_DummyBOD:
 2495              	.LFB31:
 819:src/init.c    **** 
 820:src/init.c    **** static  void  VIC_DummyBOD (void)
 821:src/init.c    **** {
 2496              		.loc 1 821 0
 2497              		.cfi_startproc
 2498              		@ Function supports interworking.
 2499              		@ args = 0, pretend = 0, frame = 0
 2500              		@ frame_needed = 0, uses_anonymous_args = 0
 2501 0d48 08402DE9 		stmfd	sp!, {r3, lr}	@,
 2502              	.LCFI32:
 2503              		.cfi_def_cfa_offset 8
 2504              		.cfi_offset 3, -8
 2505              		.cfi_offset 14, -4
 822:src/init.c    ****     VIC_SpuriousInt = VIC_BOD;
 2506              		.loc 1 822 0
 2507 0d4c 10309FE5 		ldr	r3, .L124	@ tmp110,
 2508 0d50 1420A0E3 		mov	r2, #20	@ tmp111,
 2509 0d54 002083E5 		str	r2, [r3]	@ tmp111, VIC_SpuriousInt
 823:src/init.c    ****     VIC_Dummy();
 2510              		.loc 1 823 0
 2511 0d58 59FFFFEB 		bl	VIC_Dummy	@
 824:src/init.c    **** }
 2512              		.loc 1 824 0
 2513 0d5c 0840BDE8 		ldmfd	sp!, {r3, lr}	@
 2514 0d60 1EFF2FE1 		bx	lr	@
 2515              	.L125:
 2516              		.align	2
 2517              	.L124:
 2518 0d64 00000000 		.word	VIC_SpuriousInt
 2519              		.cfi_endproc
 2520              	.LFE31:
 2521              		.size	VIC_DummyBOD, .-VIC_DummyBOD
 2522              		.align	2
 2523              		.type	VIC_DummyETHERNET, %function
 2524              	VIC_DummyETHERNET:
 2525              	.LFB32:
 825:src/init.c    **** 
 826:src/init.c    **** static  void  VIC_DummyETHERNET (void)
 827:src/init.c    **** {
 2526              		.loc 1 827 0
 2527              		.cfi_startproc
 2528              		@ Function supports interworking.
 2529              		@ args = 0, pretend = 0, frame = 0
 2530              		@ frame_needed = 0, uses_anonymous_args = 0
 2531 0d68 08402DE9 		stmfd	sp!, {r3, lr}	@,
 2532              	.LCFI33:
 2533              		.cfi_def_cfa_offset 8
ARM GAS  /tmp/ccjXaC2Q.s 			page 60


 2534              		.cfi_offset 3, -8
 2535              		.cfi_offset 14, -4
 828:src/init.c    ****     VIC_SpuriousInt = VIC_ETHERNET;
 2536              		.loc 1 828 0
 2537 0d6c 10309FE5 		ldr	r3, .L127	@ tmp110,
 2538 0d70 1520A0E3 		mov	r2, #21	@ tmp111,
 2539 0d74 002083E5 		str	r2, [r3]	@ tmp111, VIC_SpuriousInt
 829:src/init.c    ****     VIC_Dummy();
 2540              		.loc 1 829 0
 2541 0d78 51FFFFEB 		bl	VIC_Dummy	@
 830:src/init.c    **** }
 2542              		.loc 1 830 0
 2543 0d7c 0840BDE8 		ldmfd	sp!, {r3, lr}	@
 2544 0d80 1EFF2FE1 		bx	lr	@
 2545              	.L128:
 2546              		.align	2
 2547              	.L127:
 2548 0d84 00000000 		.word	VIC_SpuriousInt
 2549              		.cfi_endproc
 2550              	.LFE32:
 2551              		.size	VIC_DummyETHERNET, .-VIC_DummyETHERNET
 2552              		.align	2
 2553              		.type	VIC_DummyUSB, %function
 2554              	VIC_DummyUSB:
 2555              	.LFB33:
 831:src/init.c    **** 
 832:src/init.c    **** static  void  VIC_DummyUSB (void)
 833:src/init.c    **** {
 2556              		.loc 1 833 0
 2557              		.cfi_startproc
 2558              		@ Function supports interworking.
 2559              		@ args = 0, pretend = 0, frame = 0
 2560              		@ frame_needed = 0, uses_anonymous_args = 0
 2561 0d88 08402DE9 		stmfd	sp!, {r3, lr}	@,
 2562              	.LCFI34:
 2563              		.cfi_def_cfa_offset 8
 2564              		.cfi_offset 3, -8
 2565              		.cfi_offset 14, -4
 834:src/init.c    ****     VIC_SpuriousInt = VIC_USB;
 2566              		.loc 1 834 0
 2567 0d8c 10309FE5 		ldr	r3, .L130	@ tmp110,
 2568 0d90 1620A0E3 		mov	r2, #22	@ tmp111,
 2569 0d94 002083E5 		str	r2, [r3]	@ tmp111, VIC_SpuriousInt
 835:src/init.c    ****     VIC_Dummy();
 2570              		.loc 1 835 0
 2571 0d98 49FFFFEB 		bl	VIC_Dummy	@
 836:src/init.c    **** }
 2572              		.loc 1 836 0
 2573 0d9c 0840BDE8 		ldmfd	sp!, {r3, lr}	@
 2574 0da0 1EFF2FE1 		bx	lr	@
 2575              	.L131:
 2576              		.align	2
 2577              	.L130:
 2578 0da4 00000000 		.word	VIC_SpuriousInt
 2579              		.cfi_endproc
 2580              	.LFE33:
 2581              		.size	VIC_DummyUSB, .-VIC_DummyUSB
ARM GAS  /tmp/ccjXaC2Q.s 			page 61


 2582              		.align	2
 2583              		.type	VIC_DummyCAN01, %function
 2584              	VIC_DummyCAN01:
 2585              	.LFB34:
 837:src/init.c    **** 
 838:src/init.c    **** static  void  VIC_DummyCAN01 (void)
 839:src/init.c    **** {
 2586              		.loc 1 839 0
 2587              		.cfi_startproc
 2588              		@ Function supports interworking.
 2589              		@ args = 0, pretend = 0, frame = 0
 2590              		@ frame_needed = 0, uses_anonymous_args = 0
 2591 0da8 08402DE9 		stmfd	sp!, {r3, lr}	@,
 2592              	.LCFI35:
 2593              		.cfi_def_cfa_offset 8
 2594              		.cfi_offset 3, -8
 2595              		.cfi_offset 14, -4
 840:src/init.c    ****     VIC_SpuriousInt = VIC_CAN12;
 2596              		.loc 1 840 0
 2597 0dac 10309FE5 		ldr	r3, .L133	@ tmp110,
 2598 0db0 1720A0E3 		mov	r2, #23	@ tmp111,
 2599 0db4 002083E5 		str	r2, [r3]	@ tmp111, VIC_SpuriousInt
 841:src/init.c    ****     VIC_Dummy();
 2600              		.loc 1 841 0
 2601 0db8 41FFFFEB 		bl	VIC_Dummy	@
 842:src/init.c    **** }
 2602              		.loc 1 842 0
 2603 0dbc 0840BDE8 		ldmfd	sp!, {r3, lr}	@
 2604 0dc0 1EFF2FE1 		bx	lr	@
 2605              	.L134:
 2606              		.align	2
 2607              	.L133:
 2608 0dc4 00000000 		.word	VIC_SpuriousInt
 2609              		.cfi_endproc
 2610              	.LFE34:
 2611              		.size	VIC_DummyCAN01, .-VIC_DummyCAN01
 2612              		.align	2
 2613              		.type	VIC_DummyMMC, %function
 2614              	VIC_DummyMMC:
 2615              	.LFB35:
 843:src/init.c    **** 
 844:src/init.c    **** static  void  VIC_DummyMMC (void)
 845:src/init.c    **** {
 2616              		.loc 1 845 0
 2617              		.cfi_startproc
 2618              		@ Function supports interworking.
 2619              		@ args = 0, pretend = 0, frame = 0
 2620              		@ frame_needed = 0, uses_anonymous_args = 0
 2621 0dc8 08402DE9 		stmfd	sp!, {r3, lr}	@,
 2622              	.LCFI36:
 2623              		.cfi_def_cfa_offset 8
 2624              		.cfi_offset 3, -8
 2625              		.cfi_offset 14, -4
 846:src/init.c    ****     VIC_SpuriousInt = VIC_MMC;
 2626              		.loc 1 846 0
 2627 0dcc 10309FE5 		ldr	r3, .L136	@ tmp110,
 2628 0dd0 1820A0E3 		mov	r2, #24	@ tmp111,
ARM GAS  /tmp/ccjXaC2Q.s 			page 62


 2629 0dd4 002083E5 		str	r2, [r3]	@ tmp111, VIC_SpuriousInt
 847:src/init.c    ****     VIC_Dummy();
 2630              		.loc 1 847 0
 2631 0dd8 39FFFFEB 		bl	VIC_Dummy	@
 848:src/init.c    **** }
 2632              		.loc 1 848 0
 2633 0ddc 0840BDE8 		ldmfd	sp!, {r3, lr}	@
 2634 0de0 1EFF2FE1 		bx	lr	@
 2635              	.L137:
 2636              		.align	2
 2637              	.L136:
 2638 0de4 00000000 		.word	VIC_SpuriousInt
 2639              		.cfi_endproc
 2640              	.LFE35:
 2641              		.size	VIC_DummyMMC, .-VIC_DummyMMC
 2642              		.align	2
 2643              		.type	VIC_DummyGP_DMA, %function
 2644              	VIC_DummyGP_DMA:
 2645              	.LFB36:
 849:src/init.c    **** 
 850:src/init.c    **** static  void  VIC_DummyGP_DMA (void)
 851:src/init.c    **** {
 2646              		.loc 1 851 0
 2647              		.cfi_startproc
 2648              		@ Function supports interworking.
 2649              		@ args = 0, pretend = 0, frame = 0
 2650              		@ frame_needed = 0, uses_anonymous_args = 0
 2651 0de8 08402DE9 		stmfd	sp!, {r3, lr}	@,
 2652              	.LCFI37:
 2653              		.cfi_def_cfa_offset 8
 2654              		.cfi_offset 3, -8
 2655              		.cfi_offset 14, -4
 852:src/init.c    ****     VIC_SpuriousInt = VIC_GP_DMA;
 2656              		.loc 1 852 0
 2657 0dec 10309FE5 		ldr	r3, .L139	@ tmp110,
 2658 0df0 1920A0E3 		mov	r2, #25	@ tmp111,
 2659 0df4 002083E5 		str	r2, [r3]	@ tmp111, VIC_SpuriousInt
 853:src/init.c    ****     VIC_Dummy();
 2660              		.loc 1 853 0
 2661 0df8 31FFFFEB 		bl	VIC_Dummy	@
 854:src/init.c    **** }
 2662              		.loc 1 854 0
 2663 0dfc 0840BDE8 		ldmfd	sp!, {r3, lr}	@
 2664 0e00 1EFF2FE1 		bx	lr	@
 2665              	.L140:
 2666              		.align	2
 2667              	.L139:
 2668 0e04 00000000 		.word	VIC_SpuriousInt
 2669              		.cfi_endproc
 2670              	.LFE36:
 2671              		.size	VIC_DummyGP_DMA, .-VIC_DummyGP_DMA
 2672              		.align	2
 2673              		.type	VIC_DummyTIMER2, %function
 2674              	VIC_DummyTIMER2:
 2675              	.LFB37:
 855:src/init.c    **** 
 856:src/init.c    **** static  void  VIC_DummyTIMER2 (void)
ARM GAS  /tmp/ccjXaC2Q.s 			page 63


 857:src/init.c    **** {
 2676              		.loc 1 857 0
 2677              		.cfi_startproc
 2678              		@ Function supports interworking.
 2679              		@ args = 0, pretend = 0, frame = 0
 2680              		@ frame_needed = 0, uses_anonymous_args = 0
 2681 0e08 08402DE9 		stmfd	sp!, {r3, lr}	@,
 2682              	.LCFI38:
 2683              		.cfi_def_cfa_offset 8
 2684              		.cfi_offset 3, -8
 2685              		.cfi_offset 14, -4
 858:src/init.c    ****     VIC_SpuriousInt = VIC_TIMER2;
 2686              		.loc 1 858 0
 2687 0e0c 10309FE5 		ldr	r3, .L142	@ tmp110,
 2688 0e10 1A20A0E3 		mov	r2, #26	@ tmp111,
 2689 0e14 002083E5 		str	r2, [r3]	@ tmp111, VIC_SpuriousInt
 859:src/init.c    ****     VIC_Dummy();
 2690              		.loc 1 859 0
 2691 0e18 29FFFFEB 		bl	VIC_Dummy	@
 860:src/init.c    **** }
 2692              		.loc 1 860 0
 2693 0e1c 0840BDE8 		ldmfd	sp!, {r3, lr}	@
 2694 0e20 1EFF2FE1 		bx	lr	@
 2695              	.L143:
 2696              		.align	2
 2697              	.L142:
 2698 0e24 00000000 		.word	VIC_SpuriousInt
 2699              		.cfi_endproc
 2700              	.LFE37:
 2701              		.size	VIC_DummyTIMER2, .-VIC_DummyTIMER2
 2702              		.align	2
 2703              		.type	VIC_DummyTIMER3, %function
 2704              	VIC_DummyTIMER3:
 2705              	.LFB38:
 861:src/init.c    **** 
 862:src/init.c    **** static  void  VIC_DummyTIMER3 (void)
 863:src/init.c    **** {
 2706              		.loc 1 863 0
 2707              		.cfi_startproc
 2708              		@ Function supports interworking.
 2709              		@ args = 0, pretend = 0, frame = 0
 2710              		@ frame_needed = 0, uses_anonymous_args = 0
 2711 0e28 08402DE9 		stmfd	sp!, {r3, lr}	@,
 2712              	.LCFI39:
 2713              		.cfi_def_cfa_offset 8
 2714              		.cfi_offset 3, -8
 2715              		.cfi_offset 14, -4
 864:src/init.c    ****     VIC_SpuriousInt = VIC_TIMER3;
 2716              		.loc 1 864 0
 2717 0e2c 10309FE5 		ldr	r3, .L145	@ tmp110,
 2718 0e30 1B20A0E3 		mov	r2, #27	@ tmp111,
 2719 0e34 002083E5 		str	r2, [r3]	@ tmp111, VIC_SpuriousInt
 865:src/init.c    ****     VIC_Dummy();
 2720              		.loc 1 865 0
 2721 0e38 21FFFFEB 		bl	VIC_Dummy	@
 866:src/init.c    **** }
 2722              		.loc 1 866 0
ARM GAS  /tmp/ccjXaC2Q.s 			page 64


 2723 0e3c 0840BDE8 		ldmfd	sp!, {r3, lr}	@
 2724 0e40 1EFF2FE1 		bx	lr	@
 2725              	.L146:
 2726              		.align	2
 2727              	.L145:
 2728 0e44 00000000 		.word	VIC_SpuriousInt
 2729              		.cfi_endproc
 2730              	.LFE38:
 2731              		.size	VIC_DummyTIMER3, .-VIC_DummyTIMER3
 2732              		.align	2
 2733              		.type	VIC_DummyUART2, %function
 2734              	VIC_DummyUART2:
 2735              	.LFB39:
 867:src/init.c    **** 
 868:src/init.c    **** static  void  VIC_DummyUART2 (void)
 869:src/init.c    **** {
 2736              		.loc 1 869 0
 2737              		.cfi_startproc
 2738              		@ Function supports interworking.
 2739              		@ args = 0, pretend = 0, frame = 0
 2740              		@ frame_needed = 0, uses_anonymous_args = 0
 2741 0e48 08402DE9 		stmfd	sp!, {r3, lr}	@,
 2742              	.LCFI40:
 2743              		.cfi_def_cfa_offset 8
 2744              		.cfi_offset 3, -8
 2745              		.cfi_offset 14, -4
 870:src/init.c    ****     VIC_SpuriousInt = VIC_UART2;
 2746              		.loc 1 870 0
 2747 0e4c 10309FE5 		ldr	r3, .L148	@ tmp110,
 2748 0e50 1C20A0E3 		mov	r2, #28	@ tmp111,
 2749 0e54 002083E5 		str	r2, [r3]	@ tmp111, VIC_SpuriousInt
 871:src/init.c    ****     VIC_Dummy();
 2750              		.loc 1 871 0
 2751 0e58 19FFFFEB 		bl	VIC_Dummy	@
 872:src/init.c    **** }
 2752              		.loc 1 872 0
 2753 0e5c 0840BDE8 		ldmfd	sp!, {r3, lr}	@
 2754 0e60 1EFF2FE1 		bx	lr	@
 2755              	.L149:
 2756              		.align	2
 2757              	.L148:
 2758 0e64 00000000 		.word	VIC_SpuriousInt
 2759              		.cfi_endproc
 2760              	.LFE39:
 2761              		.size	VIC_DummyUART2, .-VIC_DummyUART2
 2762              		.align	2
 2763              		.type	VIC_DummyUART3, %function
 2764              	VIC_DummyUART3:
 2765              	.LFB40:
 873:src/init.c    **** 
 874:src/init.c    **** static  void  VIC_DummyUART3 (void)
 875:src/init.c    **** {
 2766              		.loc 1 875 0
 2767              		.cfi_startproc
 2768              		@ Function supports interworking.
 2769              		@ args = 0, pretend = 0, frame = 0
 2770              		@ frame_needed = 0, uses_anonymous_args = 0
ARM GAS  /tmp/ccjXaC2Q.s 			page 65


 2771 0e68 08402DE9 		stmfd	sp!, {r3, lr}	@,
 2772              	.LCFI41:
 2773              		.cfi_def_cfa_offset 8
 2774              		.cfi_offset 3, -8
 2775              		.cfi_offset 14, -4
 876:src/init.c    ****     VIC_SpuriousInt = VIC_UART3;
 2776              		.loc 1 876 0
 2777 0e6c 10309FE5 		ldr	r3, .L151	@ tmp110,
 2778 0e70 1D20A0E3 		mov	r2, #29	@ tmp111,
 2779 0e74 002083E5 		str	r2, [r3]	@ tmp111, VIC_SpuriousInt
 877:src/init.c    ****     VIC_Dummy();
 2780              		.loc 1 877 0
 2781 0e78 11FFFFEB 		bl	VIC_Dummy	@
 878:src/init.c    **** }
 2782              		.loc 1 878 0
 2783 0e7c 0840BDE8 		ldmfd	sp!, {r3, lr}	@
 2784 0e80 1EFF2FE1 		bx	lr	@
 2785              	.L152:
 2786              		.align	2
 2787              	.L151:
 2788 0e84 00000000 		.word	VIC_SpuriousInt
 2789              		.cfi_endproc
 2790              	.LFE40:
 2791              		.size	VIC_DummyUART3, .-VIC_DummyUART3
 2792              		.align	2
 2793              		.type	VIC_DummyI2C2, %function
 2794              	VIC_DummyI2C2:
 2795              	.LFB41:
 879:src/init.c    **** 
 880:src/init.c    **** static  void  VIC_DummyI2C2 (void)
 881:src/init.c    **** {
 2796              		.loc 1 881 0
 2797              		.cfi_startproc
 2798              		@ Function supports interworking.
 2799              		@ args = 0, pretend = 0, frame = 0
 2800              		@ frame_needed = 0, uses_anonymous_args = 0
 2801 0e88 08402DE9 		stmfd	sp!, {r3, lr}	@,
 2802              	.LCFI42:
 2803              		.cfi_def_cfa_offset 8
 2804              		.cfi_offset 3, -8
 2805              		.cfi_offset 14, -4
 882:src/init.c    ****     VIC_SpuriousInt = VIC_I2C2;
 2806              		.loc 1 882 0
 2807 0e8c 10309FE5 		ldr	r3, .L154	@ tmp110,
 2808 0e90 1E20A0E3 		mov	r2, #30	@ tmp111,
 2809 0e94 002083E5 		str	r2, [r3]	@ tmp111, VIC_SpuriousInt
 883:src/init.c    ****     VIC_Dummy();
 2810              		.loc 1 883 0
 2811 0e98 09FFFFEB 		bl	VIC_Dummy	@
 884:src/init.c    **** }
 2812              		.loc 1 884 0
 2813 0e9c 0840BDE8 		ldmfd	sp!, {r3, lr}	@
 2814 0ea0 1EFF2FE1 		bx	lr	@
 2815              	.L155:
 2816              		.align	2
 2817              	.L154:
 2818 0ea4 00000000 		.word	VIC_SpuriousInt
ARM GAS  /tmp/ccjXaC2Q.s 			page 66


 2819              		.cfi_endproc
 2820              	.LFE41:
 2821              		.size	VIC_DummyI2C2, .-VIC_DummyI2C2
 2822              		.align	2
 2823              		.type	VIC_DummyI2S, %function
 2824              	VIC_DummyI2S:
 2825              	.LFB42:
 885:src/init.c    **** 
 886:src/init.c    **** static  void  VIC_DummyI2S (void)
 887:src/init.c    **** {
 2826              		.loc 1 887 0
 2827              		.cfi_startproc
 2828              		@ Function supports interworking.
 2829              		@ args = 0, pretend = 0, frame = 0
 2830              		@ frame_needed = 0, uses_anonymous_args = 0
 2831 0ea8 08402DE9 		stmfd	sp!, {r3, lr}	@,
 2832              	.LCFI43:
 2833              		.cfi_def_cfa_offset 8
 2834              		.cfi_offset 3, -8
 2835              		.cfi_offset 14, -4
 888:src/init.c    ****     VIC_SpuriousInt = VIC_I2S;
 2836              		.loc 1 888 0
 2837 0eac 10309FE5 		ldr	r3, .L157	@ tmp110,
 2838 0eb0 1F20A0E3 		mov	r2, #31	@ tmp111,
 2839 0eb4 002083E5 		str	r2, [r3]	@ tmp111, VIC_SpuriousInt
 889:src/init.c    ****     VIC_Dummy();
 2840              		.loc 1 889 0
 2841 0eb8 01FFFFEB 		bl	VIC_Dummy	@
 890:src/init.c    **** }
 2842              		.loc 1 890 0
 2843 0ebc 0840BDE8 		ldmfd	sp!, {r3, lr}	@
 2844 0ec0 1EFF2FE1 		bx	lr	@
 2845              	.L158:
 2846              		.align	2
 2847              	.L157:
 2848 0ec4 00000000 		.word	VIC_SpuriousInt
 2849              		.cfi_endproc
 2850              	.LFE42:
 2851              		.size	VIC_DummyI2S, .-VIC_DummyI2S
 2852              	.Letext0:
 2853              		.file 2 "./inc/lpc2378.h"
 2854              		.file 3 "./inc/pins.h"
 2855              		.file 4 "./inc/uarts.h"
 2856              		.file 5 "./inc/init.h"
 2857              		.section	.debug_info,"",%progbits
 2858              	.Ldebug_info0:
 2859 0000 C9210000 		.4byte	0x21c9
 2860 0004 0200     		.2byte	0x2
 2861 0006 00000000 		.4byte	.Ldebug_abbrev0
 2862 000a 04       		.byte	0x4
 2863 000b 01       		.uleb128 0x1
 2864 000c 2F0F0000 		.4byte	.LASF505
 2865 0010 01       		.byte	0x1
 2866 0011 84050000 		.4byte	.LASF506
 2867 0015 050F0000 		.4byte	.LASF507
 2868 0019 00000000 		.4byte	.Ltext0
 2869 001d C80E0000 		.4byte	.Letext0
ARM GAS  /tmp/ccjXaC2Q.s 			page 67


 2870 0021 00000000 		.4byte	.Ldebug_line0
 2871 0025 02       		.uleb128 0x2
 2872 0026 04       		.byte	0x4
 2873 0027 07       		.byte	0x7
 2874 0028 3C100000 		.4byte	.LASF0
 2875 002c 03       		.uleb128 0x3
 2876 002d 04       		.byte	0x4
 2877 002e 05       		.byte	0x5
 2878 002f 696E7400 		.ascii	"int\000"
 2879 0033 04       		.uleb128 0x4
 2880 0034 A2080000 		.4byte	.LASF2
 2881 0038 02       		.byte	0x2
 2882 0039 0102     		.2byte	0x201
 2883 003b 3F000000 		.4byte	0x3f
 2884 003f 02       		.uleb128 0x2
 2885 0040 01       		.byte	0x1
 2886 0041 08       		.byte	0x8
 2887 0042 1E110000 		.4byte	.LASF1
 2888 0046 04       		.uleb128 0x4
 2889 0047 890C0000 		.4byte	.LASF3
 2890 004b 02       		.byte	0x2
 2891 004c 0202     		.2byte	0x202
 2892 004e 52000000 		.4byte	0x52
 2893 0052 02       		.uleb128 0x2
 2894 0053 02       		.byte	0x2
 2895 0054 07       		.byte	0x7
 2896 0055 D2120000 		.4byte	.LASF4
 2897 0059 04       		.uleb128 0x4
 2898 005a 65030000 		.4byte	.LASF5
 2899 005e 02       		.byte	0x2
 2900 005f 0302     		.2byte	0x203
 2901 0061 25000000 		.4byte	0x25
 2902 0065 05       		.uleb128 0x5
 2903 0066 6A000000 		.4byte	.LASF417
 2904 006a B001     		.2byte	0x1b0
 2905 006c 02       		.byte	0x2
 2906 006d 0502     		.2byte	0x205
 2907 006f 24190000 		.4byte	0x1924
 2908 0073 06       		.uleb128 0x6
 2909 0074 E50C0000 		.4byte	.LASF6
 2910 0078 02       		.byte	0x2
 2911 0079 0702     		.2byte	0x207
 2912 007b 33000000 		.4byte	0x33
 2913 007f 02       		.byte	0x2
 2914 0080 23       		.byte	0x23
 2915 0081 00       		.uleb128 0
 2916 0082 06       		.uleb128 0x6
 2917 0083 F7020000 		.4byte	.LASF7
 2918 0087 02       		.byte	0x2
 2919 0088 0802     		.2byte	0x208
 2920 008a 33000000 		.4byte	0x33
 2921 008e 02       		.byte	0x2
 2922 008f 23       		.byte	0x23
 2923 0090 01       		.uleb128 0x1
 2924 0091 06       		.uleb128 0x6
 2925 0092 01030000 		.4byte	.LASF8
 2926 0096 02       		.byte	0x2
ARM GAS  /tmp/ccjXaC2Q.s 			page 68


 2927 0097 0902     		.2byte	0x209
 2928 0099 33000000 		.4byte	0x33
 2929 009d 02       		.byte	0x2
 2930 009e 23       		.byte	0x23
 2931 009f 02       		.uleb128 0x2
 2932 00a0 06       		.uleb128 0x6
 2933 00a1 0B030000 		.4byte	.LASF9
 2934 00a5 02       		.byte	0x2
 2935 00a6 0A02     		.2byte	0x20a
 2936 00a8 33000000 		.4byte	0x33
 2937 00ac 02       		.byte	0x2
 2938 00ad 23       		.byte	0x23
 2939 00ae 03       		.uleb128 0x3
 2940 00af 06       		.uleb128 0x6
 2941 00b0 82010000 		.4byte	.LASF10
 2942 00b4 02       		.byte	0x2
 2943 00b5 0B02     		.2byte	0x20b
 2944 00b7 33000000 		.4byte	0x33
 2945 00bb 02       		.byte	0x2
 2946 00bc 23       		.byte	0x23
 2947 00bd 04       		.uleb128 0x4
 2948 00be 06       		.uleb128 0x6
 2949 00bf 1F030000 		.4byte	.LASF11
 2950 00c3 02       		.byte	0x2
 2951 00c4 0C02     		.2byte	0x20c
 2952 00c6 33000000 		.4byte	0x33
 2953 00ca 02       		.byte	0x2
 2954 00cb 23       		.byte	0x23
 2955 00cc 05       		.uleb128 0x5
 2956 00cd 06       		.uleb128 0x6
 2957 00ce 29030000 		.4byte	.LASF12
 2958 00d2 02       		.byte	0x2
 2959 00d3 0D02     		.2byte	0x20d
 2960 00d5 33000000 		.4byte	0x33
 2961 00d9 02       		.byte	0x2
 2962 00da 23       		.byte	0x23
 2963 00db 06       		.uleb128 0x6
 2964 00dc 06       		.uleb128 0x6
 2965 00dd 33030000 		.4byte	.LASF13
 2966 00e1 02       		.byte	0x2
 2967 00e2 0E02     		.2byte	0x20e
 2968 00e4 33000000 		.4byte	0x33
 2969 00e8 02       		.byte	0x2
 2970 00e9 23       		.byte	0x23
 2971 00ea 07       		.uleb128 0x7
 2972 00eb 06       		.uleb128 0x6
 2973 00ec 3D030000 		.4byte	.LASF14
 2974 00f0 02       		.byte	0x2
 2975 00f1 0F02     		.2byte	0x20f
 2976 00f3 33000000 		.4byte	0x33
 2977 00f7 02       		.byte	0x2
 2978 00f8 23       		.byte	0x23
 2979 00f9 08       		.uleb128 0x8
 2980 00fa 06       		.uleb128 0x6
 2981 00fb 47030000 		.4byte	.LASF15
 2982 00ff 02       		.byte	0x2
 2983 0100 1002     		.2byte	0x210
ARM GAS  /tmp/ccjXaC2Q.s 			page 69


 2984 0102 33000000 		.4byte	0x33
 2985 0106 02       		.byte	0x2
 2986 0107 23       		.byte	0x23
 2987 0108 09       		.uleb128 0x9
 2988 0109 06       		.uleb128 0x6
 2989 010a 82030000 		.4byte	.LASF16
 2990 010e 02       		.byte	0x2
 2991 010f 1102     		.2byte	0x211
 2992 0111 33000000 		.4byte	0x33
 2993 0115 02       		.byte	0x2
 2994 0116 23       		.byte	0x23
 2995 0117 0A       		.uleb128 0xa
 2996 0118 06       		.uleb128 0x6
 2997 0119 8C030000 		.4byte	.LASF17
 2998 011d 02       		.byte	0x2
 2999 011e 1202     		.2byte	0x212
 3000 0120 33000000 		.4byte	0x33
 3001 0124 02       		.byte	0x2
 3002 0125 23       		.byte	0x23
 3003 0126 0B       		.uleb128 0xb
 3004 0127 06       		.uleb128 0x6
 3005 0128 96030000 		.4byte	.LASF18
 3006 012c 02       		.byte	0x2
 3007 012d 1302     		.2byte	0x213
 3008 012f 33000000 		.4byte	0x33
 3009 0133 02       		.byte	0x2
 3010 0134 23       		.byte	0x23
 3011 0135 0C       		.uleb128 0xc
 3012 0136 06       		.uleb128 0x6
 3013 0137 A0030000 		.4byte	.LASF19
 3014 013b 02       		.byte	0x2
 3015 013c 1402     		.2byte	0x214
 3016 013e 33000000 		.4byte	0x33
 3017 0142 02       		.byte	0x2
 3018 0143 23       		.byte	0x23
 3019 0144 0D       		.uleb128 0xd
 3020 0145 06       		.uleb128 0x6
 3021 0146 AA030000 		.4byte	.LASF20
 3022 014a 02       		.byte	0x2
 3023 014b 1502     		.2byte	0x215
 3024 014d 33000000 		.4byte	0x33
 3025 0151 02       		.byte	0x2
 3026 0152 23       		.byte	0x23
 3027 0153 0E       		.uleb128 0xe
 3028 0154 06       		.uleb128 0x6
 3029 0155 B4030000 		.4byte	.LASF21
 3030 0159 02       		.byte	0x2
 3031 015a 1602     		.2byte	0x216
 3032 015c 33000000 		.4byte	0x33
 3033 0160 02       		.byte	0x2
 3034 0161 23       		.byte	0x23
 3035 0162 0F       		.uleb128 0xf
 3036 0163 06       		.uleb128 0x6
 3037 0164 11040000 		.4byte	.LASF22
 3038 0168 02       		.byte	0x2
 3039 0169 1702     		.2byte	0x217
 3040 016b 33000000 		.4byte	0x33
ARM GAS  /tmp/ccjXaC2Q.s 			page 70


 3041 016f 02       		.byte	0x2
 3042 0170 23       		.byte	0x23
 3043 0171 10       		.uleb128 0x10
 3044 0172 06       		.uleb128 0x6
 3045 0173 1B040000 		.4byte	.LASF23
 3046 0177 02       		.byte	0x2
 3047 0178 1802     		.2byte	0x218
 3048 017a 33000000 		.4byte	0x33
 3049 017e 02       		.byte	0x2
 3050 017f 23       		.byte	0x23
 3051 0180 11       		.uleb128 0x11
 3052 0181 06       		.uleb128 0x6
 3053 0182 25040000 		.4byte	.LASF24
 3054 0186 02       		.byte	0x2
 3055 0187 1902     		.2byte	0x219
 3056 0189 33000000 		.4byte	0x33
 3057 018d 02       		.byte	0x2
 3058 018e 23       		.byte	0x23
 3059 018f 12       		.uleb128 0x12
 3060 0190 06       		.uleb128 0x6
 3061 0191 2F040000 		.4byte	.LASF25
 3062 0195 02       		.byte	0x2
 3063 0196 1A02     		.2byte	0x21a
 3064 0198 33000000 		.4byte	0x33
 3065 019c 02       		.byte	0x2
 3066 019d 23       		.byte	0x23
 3067 019e 13       		.uleb128 0x13
 3068 019f 06       		.uleb128 0x6
 3069 01a0 39040000 		.4byte	.LASF26
 3070 01a4 02       		.byte	0x2
 3071 01a5 1B02     		.2byte	0x21b
 3072 01a7 33000000 		.4byte	0x33
 3073 01ab 02       		.byte	0x2
 3074 01ac 23       		.byte	0x23
 3075 01ad 14       		.uleb128 0x14
 3076 01ae 06       		.uleb128 0x6
 3077 01af 43040000 		.4byte	.LASF27
 3078 01b3 02       		.byte	0x2
 3079 01b4 1C02     		.2byte	0x21c
 3080 01b6 33000000 		.4byte	0x33
 3081 01ba 02       		.byte	0x2
 3082 01bb 23       		.byte	0x23
 3083 01bc 15       		.uleb128 0x15
 3084 01bd 06       		.uleb128 0x6
 3085 01be 4D040000 		.4byte	.LASF28
 3086 01c2 02       		.byte	0x2
 3087 01c3 1D02     		.2byte	0x21d
 3088 01c5 33000000 		.4byte	0x33
 3089 01c9 02       		.byte	0x2
 3090 01ca 23       		.byte	0x23
 3091 01cb 16       		.uleb128 0x16
 3092 01cc 06       		.uleb128 0x6
 3093 01cd 57040000 		.4byte	.LASF29
 3094 01d1 02       		.byte	0x2
 3095 01d2 1E02     		.2byte	0x21e
 3096 01d4 33000000 		.4byte	0x33
 3097 01d8 02       		.byte	0x2
ARM GAS  /tmp/ccjXaC2Q.s 			page 71


 3098 01d9 23       		.byte	0x23
 3099 01da 17       		.uleb128 0x17
 3100 01db 06       		.uleb128 0x6
 3101 01dc 61040000 		.4byte	.LASF30
 3102 01e0 02       		.byte	0x2
 3103 01e1 1F02     		.2byte	0x21f
 3104 01e3 33000000 		.4byte	0x33
 3105 01e7 02       		.byte	0x2
 3106 01e8 23       		.byte	0x23
 3107 01e9 18       		.uleb128 0x18
 3108 01ea 06       		.uleb128 0x6
 3109 01eb 6B040000 		.4byte	.LASF31
 3110 01ef 02       		.byte	0x2
 3111 01f0 2002     		.2byte	0x220
 3112 01f2 33000000 		.4byte	0x33
 3113 01f6 02       		.byte	0x2
 3114 01f7 23       		.byte	0x23
 3115 01f8 19       		.uleb128 0x19
 3116 01f9 06       		.uleb128 0x6
 3117 01fa 8F040000 		.4byte	.LASF32
 3118 01fe 02       		.byte	0x2
 3119 01ff 2102     		.2byte	0x221
 3120 0201 33000000 		.4byte	0x33
 3121 0205 02       		.byte	0x2
 3122 0206 23       		.byte	0x23
 3123 0207 1A       		.uleb128 0x1a
 3124 0208 06       		.uleb128 0x6
 3125 0209 99040000 		.4byte	.LASF33
 3126 020d 02       		.byte	0x2
 3127 020e 2202     		.2byte	0x222
 3128 0210 33000000 		.4byte	0x33
 3129 0214 02       		.byte	0x2
 3130 0215 23       		.byte	0x23
 3131 0216 1B       		.uleb128 0x1b
 3132 0217 06       		.uleb128 0x6
 3133 0218 A3040000 		.4byte	.LASF34
 3134 021c 02       		.byte	0x2
 3135 021d 2302     		.2byte	0x223
 3136 021f 33000000 		.4byte	0x33
 3137 0223 02       		.byte	0x2
 3138 0224 23       		.byte	0x23
 3139 0225 1C       		.uleb128 0x1c
 3140 0226 06       		.uleb128 0x6
 3141 0227 AD040000 		.4byte	.LASF35
 3142 022b 02       		.byte	0x2
 3143 022c 2402     		.2byte	0x224
 3144 022e 33000000 		.4byte	0x33
 3145 0232 02       		.byte	0x2
 3146 0233 23       		.byte	0x23
 3147 0234 1D       		.uleb128 0x1d
 3148 0235 06       		.uleb128 0x6
 3149 0236 B7040000 		.4byte	.LASF36
 3150 023a 02       		.byte	0x2
 3151 023b 2502     		.2byte	0x225
 3152 023d 33000000 		.4byte	0x33
 3153 0241 02       		.byte	0x2
 3154 0242 23       		.byte	0x23
ARM GAS  /tmp/ccjXaC2Q.s 			page 72


 3155 0243 1E       		.uleb128 0x1e
 3156 0244 06       		.uleb128 0x6
 3157 0245 C1040000 		.4byte	.LASF37
 3158 0249 02       		.byte	0x2
 3159 024a 2602     		.2byte	0x226
 3160 024c 33000000 		.4byte	0x33
 3161 0250 02       		.byte	0x2
 3162 0251 23       		.byte	0x23
 3163 0252 1F       		.uleb128 0x1f
 3164 0253 06       		.uleb128 0x6
 3165 0254 AC050000 		.4byte	.LASF38
 3166 0258 02       		.byte	0x2
 3167 0259 2702     		.2byte	0x227
 3168 025b 33000000 		.4byte	0x33
 3169 025f 02       		.byte	0x2
 3170 0260 23       		.byte	0x23
 3171 0261 20       		.uleb128 0x20
 3172 0262 06       		.uleb128 0x6
 3173 0263 B6050000 		.4byte	.LASF39
 3174 0267 02       		.byte	0x2
 3175 0268 2802     		.2byte	0x228
 3176 026a 33000000 		.4byte	0x33
 3177 026e 02       		.byte	0x2
 3178 026f 23       		.byte	0x23
 3179 0270 21       		.uleb128 0x21
 3180 0271 06       		.uleb128 0x6
 3181 0272 C0050000 		.4byte	.LASF40
 3182 0276 02       		.byte	0x2
 3183 0277 2902     		.2byte	0x229
 3184 0279 33000000 		.4byte	0x33
 3185 027d 02       		.byte	0x2
 3186 027e 23       		.byte	0x23
 3187 027f 22       		.uleb128 0x22
 3188 0280 06       		.uleb128 0x6
 3189 0281 CA050000 		.4byte	.LASF41
 3190 0285 02       		.byte	0x2
 3191 0286 2A02     		.2byte	0x22a
 3192 0288 33000000 		.4byte	0x33
 3193 028c 02       		.byte	0x2
 3194 028d 23       		.byte	0x23
 3195 028e 23       		.uleb128 0x23
 3196 028f 06       		.uleb128 0x6
 3197 0290 D4050000 		.4byte	.LASF42
 3198 0294 02       		.byte	0x2
 3199 0295 2B02     		.2byte	0x22b
 3200 0297 33000000 		.4byte	0x33
 3201 029b 02       		.byte	0x2
 3202 029c 23       		.byte	0x23
 3203 029d 24       		.uleb128 0x24
 3204 029e 06       		.uleb128 0x6
 3205 029f DE050000 		.4byte	.LASF43
 3206 02a3 02       		.byte	0x2
 3207 02a4 2C02     		.2byte	0x22c
 3208 02a6 33000000 		.4byte	0x33
 3209 02aa 02       		.byte	0x2
 3210 02ab 23       		.byte	0x23
 3211 02ac 25       		.uleb128 0x25
ARM GAS  /tmp/ccjXaC2Q.s 			page 73


 3212 02ad 06       		.uleb128 0x6
 3213 02ae E8050000 		.4byte	.LASF44
 3214 02b2 02       		.byte	0x2
 3215 02b3 2D02     		.2byte	0x22d
 3216 02b5 33000000 		.4byte	0x33
 3217 02b9 02       		.byte	0x2
 3218 02ba 23       		.byte	0x23
 3219 02bb 26       		.uleb128 0x26
 3220 02bc 06       		.uleb128 0x6
 3221 02bd F2050000 		.4byte	.LASF45
 3222 02c1 02       		.byte	0x2
 3223 02c2 2E02     		.2byte	0x22e
 3224 02c4 33000000 		.4byte	0x33
 3225 02c8 02       		.byte	0x2
 3226 02c9 23       		.byte	0x23
 3227 02ca 27       		.uleb128 0x27
 3228 02cb 06       		.uleb128 0x6
 3229 02cc FC050000 		.4byte	.LASF46
 3230 02d0 02       		.byte	0x2
 3231 02d1 2F02     		.2byte	0x22f
 3232 02d3 33000000 		.4byte	0x33
 3233 02d7 02       		.byte	0x2
 3234 02d8 23       		.byte	0x23
 3235 02d9 28       		.uleb128 0x28
 3236 02da 06       		.uleb128 0x6
 3237 02db 06060000 		.4byte	.LASF47
 3238 02df 02       		.byte	0x2
 3239 02e0 3002     		.2byte	0x230
 3240 02e2 33000000 		.4byte	0x33
 3241 02e6 02       		.byte	0x2
 3242 02e7 23       		.byte	0x23
 3243 02e8 29       		.uleb128 0x29
 3244 02e9 06       		.uleb128 0x6
 3245 02ea 23060000 		.4byte	.LASF48
 3246 02ee 02       		.byte	0x2
 3247 02ef 3102     		.2byte	0x231
 3248 02f1 33000000 		.4byte	0x33
 3249 02f5 02       		.byte	0x2
 3250 02f6 23       		.byte	0x23
 3251 02f7 2A       		.uleb128 0x2a
 3252 02f8 06       		.uleb128 0x6
 3253 02f9 2D060000 		.4byte	.LASF49
 3254 02fd 02       		.byte	0x2
 3255 02fe 3202     		.2byte	0x232
 3256 0300 33000000 		.4byte	0x33
 3257 0304 02       		.byte	0x2
 3258 0305 23       		.byte	0x23
 3259 0306 2B       		.uleb128 0x2b
 3260 0307 06       		.uleb128 0x6
 3261 0308 37060000 		.4byte	.LASF50
 3262 030c 02       		.byte	0x2
 3263 030d 3302     		.2byte	0x233
 3264 030f 33000000 		.4byte	0x33
 3265 0313 02       		.byte	0x2
 3266 0314 23       		.byte	0x23
 3267 0315 2C       		.uleb128 0x2c
 3268 0316 06       		.uleb128 0x6
ARM GAS  /tmp/ccjXaC2Q.s 			page 74


 3269 0317 41060000 		.4byte	.LASF51
 3270 031b 02       		.byte	0x2
 3271 031c 3402     		.2byte	0x234
 3272 031e 33000000 		.4byte	0x33
 3273 0322 02       		.byte	0x2
 3274 0323 23       		.byte	0x23
 3275 0324 2D       		.uleb128 0x2d
 3276 0325 06       		.uleb128 0x6
 3277 0326 4B060000 		.4byte	.LASF52
 3278 032a 02       		.byte	0x2
 3279 032b 3502     		.2byte	0x235
 3280 032d 33000000 		.4byte	0x33
 3281 0331 02       		.byte	0x2
 3282 0332 23       		.byte	0x23
 3283 0333 2E       		.uleb128 0x2e
 3284 0334 06       		.uleb128 0x6
 3285 0335 55060000 		.4byte	.LASF53
 3286 0339 02       		.byte	0x2
 3287 033a 3602     		.2byte	0x236
 3288 033c 33000000 		.4byte	0x33
 3289 0340 02       		.byte	0x2
 3290 0341 23       		.byte	0x23
 3291 0342 2F       		.uleb128 0x2f
 3292 0343 06       		.uleb128 0x6
 3293 0344 04070000 		.4byte	.LASF54
 3294 0348 02       		.byte	0x2
 3295 0349 3702     		.2byte	0x237
 3296 034b 33000000 		.4byte	0x33
 3297 034f 02       		.byte	0x2
 3298 0350 23       		.byte	0x23
 3299 0351 30       		.uleb128 0x30
 3300 0352 06       		.uleb128 0x6
 3301 0353 0E070000 		.4byte	.LASF55
 3302 0357 02       		.byte	0x2
 3303 0358 3802     		.2byte	0x238
 3304 035a 33000000 		.4byte	0x33
 3305 035e 02       		.byte	0x2
 3306 035f 23       		.byte	0x23
 3307 0360 31       		.uleb128 0x31
 3308 0361 06       		.uleb128 0x6
 3309 0362 18070000 		.4byte	.LASF56
 3310 0366 02       		.byte	0x2
 3311 0367 3902     		.2byte	0x239
 3312 0369 33000000 		.4byte	0x33
 3313 036d 02       		.byte	0x2
 3314 036e 23       		.byte	0x23
 3315 036f 32       		.uleb128 0x32
 3316 0370 06       		.uleb128 0x6
 3317 0371 22070000 		.4byte	.LASF57
 3318 0375 02       		.byte	0x2
 3319 0376 3A02     		.2byte	0x23a
 3320 0378 33000000 		.4byte	0x33
 3321 037c 02       		.byte	0x2
 3322 037d 23       		.byte	0x23
 3323 037e 33       		.uleb128 0x33
 3324 037f 06       		.uleb128 0x6
 3325 0380 2C070000 		.4byte	.LASF58
ARM GAS  /tmp/ccjXaC2Q.s 			page 75


 3326 0384 02       		.byte	0x2
 3327 0385 3B02     		.2byte	0x23b
 3328 0387 33000000 		.4byte	0x33
 3329 038b 02       		.byte	0x2
 3330 038c 23       		.byte	0x23
 3331 038d 34       		.uleb128 0x34
 3332 038e 06       		.uleb128 0x6
 3333 038f 36070000 		.4byte	.LASF59
 3334 0393 02       		.byte	0x2
 3335 0394 3C02     		.2byte	0x23c
 3336 0396 33000000 		.4byte	0x33
 3337 039a 02       		.byte	0x2
 3338 039b 23       		.byte	0x23
 3339 039c 35       		.uleb128 0x35
 3340 039d 06       		.uleb128 0x6
 3341 039e 40070000 		.4byte	.LASF60
 3342 03a2 02       		.byte	0x2
 3343 03a3 3D02     		.2byte	0x23d
 3344 03a5 33000000 		.4byte	0x33
 3345 03a9 02       		.byte	0x2
 3346 03aa 23       		.byte	0x23
 3347 03ab 36       		.uleb128 0x36
 3348 03ac 06       		.uleb128 0x6
 3349 03ad 4A070000 		.4byte	.LASF61
 3350 03b1 02       		.byte	0x2
 3351 03b2 3E02     		.2byte	0x23e
 3352 03b4 33000000 		.4byte	0x33
 3353 03b8 02       		.byte	0x2
 3354 03b9 23       		.byte	0x23
 3355 03ba 37       		.uleb128 0x37
 3356 03bb 06       		.uleb128 0x6
 3357 03bc 54070000 		.4byte	.LASF62
 3358 03c0 02       		.byte	0x2
 3359 03c1 3F02     		.2byte	0x23f
 3360 03c3 33000000 		.4byte	0x33
 3361 03c7 02       		.byte	0x2
 3362 03c8 23       		.byte	0x23
 3363 03c9 38       		.uleb128 0x38
 3364 03ca 06       		.uleb128 0x6
 3365 03cb 5E070000 		.4byte	.LASF63
 3366 03cf 02       		.byte	0x2
 3367 03d0 4002     		.2byte	0x240
 3368 03d2 33000000 		.4byte	0x33
 3369 03d6 02       		.byte	0x2
 3370 03d7 23       		.byte	0x23
 3371 03d8 39       		.uleb128 0x39
 3372 03d9 06       		.uleb128 0x6
 3373 03da 97070000 		.4byte	.LASF64
 3374 03de 02       		.byte	0x2
 3375 03df 4102     		.2byte	0x241
 3376 03e1 33000000 		.4byte	0x33
 3377 03e5 02       		.byte	0x2
 3378 03e6 23       		.byte	0x23
 3379 03e7 3A       		.uleb128 0x3a
 3380 03e8 06       		.uleb128 0x6
 3381 03e9 A1070000 		.4byte	.LASF65
 3382 03ed 02       		.byte	0x2
ARM GAS  /tmp/ccjXaC2Q.s 			page 76


 3383 03ee 4202     		.2byte	0x242
 3384 03f0 33000000 		.4byte	0x33
 3385 03f4 02       		.byte	0x2
 3386 03f5 23       		.byte	0x23
 3387 03f6 3B       		.uleb128 0x3b
 3388 03f7 06       		.uleb128 0x6
 3389 03f8 AB070000 		.4byte	.LASF66
 3390 03fc 02       		.byte	0x2
 3391 03fd 4302     		.2byte	0x243
 3392 03ff 33000000 		.4byte	0x33
 3393 0403 02       		.byte	0x2
 3394 0404 23       		.byte	0x23
 3395 0405 3C       		.uleb128 0x3c
 3396 0406 06       		.uleb128 0x6
 3397 0407 B5070000 		.4byte	.LASF67
 3398 040b 02       		.byte	0x2
 3399 040c 4402     		.2byte	0x244
 3400 040e 33000000 		.4byte	0x33
 3401 0412 02       		.byte	0x2
 3402 0413 23       		.byte	0x23
 3403 0414 3D       		.uleb128 0x3d
 3404 0415 06       		.uleb128 0x6
 3405 0416 BF070000 		.4byte	.LASF68
 3406 041a 02       		.byte	0x2
 3407 041b 4502     		.2byte	0x245
 3408 041d 33000000 		.4byte	0x33
 3409 0421 02       		.byte	0x2
 3410 0422 23       		.byte	0x23
 3411 0423 3E       		.uleb128 0x3e
 3412 0424 06       		.uleb128 0x6
 3413 0425 C9070000 		.4byte	.LASF69
 3414 0429 02       		.byte	0x2
 3415 042a 4602     		.2byte	0x246
 3416 042c 33000000 		.4byte	0x33
 3417 0430 02       		.byte	0x2
 3418 0431 23       		.byte	0x23
 3419 0432 3F       		.uleb128 0x3f
 3420 0433 06       		.uleb128 0x6
 3421 0434 72070000 		.4byte	.LASF70
 3422 0438 02       		.byte	0x2
 3423 0439 4702     		.2byte	0x247
 3424 043b 33000000 		.4byte	0x33
 3425 043f 02       		.byte	0x2
 3426 0440 23       		.byte	0x23
 3427 0441 40       		.uleb128 0x40
 3428 0442 06       		.uleb128 0x6
 3429 0443 5C080000 		.4byte	.LASF71
 3430 0447 02       		.byte	0x2
 3431 0448 4802     		.2byte	0x248
 3432 044a 33000000 		.4byte	0x33
 3433 044e 02       		.byte	0x2
 3434 044f 23       		.byte	0x23
 3435 0450 41       		.uleb128 0x41
 3436 0451 06       		.uleb128 0x6
 3437 0452 66080000 		.4byte	.LASF72
 3438 0456 02       		.byte	0x2
 3439 0457 4902     		.2byte	0x249
ARM GAS  /tmp/ccjXaC2Q.s 			page 77


 3440 0459 33000000 		.4byte	0x33
 3441 045d 02       		.byte	0x2
 3442 045e 23       		.byte	0x23
 3443 045f 42       		.uleb128 0x42
 3444 0460 06       		.uleb128 0x6
 3445 0461 70080000 		.4byte	.LASF73
 3446 0465 02       		.byte	0x2
 3447 0466 4A02     		.2byte	0x24a
 3448 0468 33000000 		.4byte	0x33
 3449 046c 02       		.byte	0x2
 3450 046d 23       		.byte	0x23
 3451 046e 43       		.uleb128 0x43
 3452 046f 06       		.uleb128 0x6
 3453 0470 7A080000 		.4byte	.LASF74
 3454 0474 02       		.byte	0x2
 3455 0475 4B02     		.2byte	0x24b
 3456 0477 33000000 		.4byte	0x33
 3457 047b 02       		.byte	0x2
 3458 047c 23       		.byte	0x23
 3459 047d 44       		.uleb128 0x44
 3460 047e 06       		.uleb128 0x6
 3461 047f 84080000 		.4byte	.LASF75
 3462 0483 02       		.byte	0x2
 3463 0484 4C02     		.2byte	0x24c
 3464 0486 33000000 		.4byte	0x33
 3465 048a 02       		.byte	0x2
 3466 048b 23       		.byte	0x23
 3467 048c 45       		.uleb128 0x45
 3468 048d 06       		.uleb128 0x6
 3469 048e 8E080000 		.4byte	.LASF76
 3470 0492 02       		.byte	0x2
 3471 0493 4D02     		.2byte	0x24d
 3472 0495 33000000 		.4byte	0x33
 3473 0499 02       		.byte	0x2
 3474 049a 23       		.byte	0x23
 3475 049b 46       		.uleb128 0x46
 3476 049c 06       		.uleb128 0x6
 3477 049d 98080000 		.4byte	.LASF77
 3478 04a1 02       		.byte	0x2
 3479 04a2 4E02     		.2byte	0x24e
 3480 04a4 33000000 		.4byte	0x33
 3481 04a8 02       		.byte	0x2
 3482 04a9 23       		.byte	0x23
 3483 04aa 47       		.uleb128 0x47
 3484 04ab 06       		.uleb128 0x6
 3485 04ac 550A0000 		.4byte	.LASF78
 3486 04b0 02       		.byte	0x2
 3487 04b1 4F02     		.2byte	0x24f
 3488 04b3 33000000 		.4byte	0x33
 3489 04b7 02       		.byte	0x2
 3490 04b8 23       		.byte	0x23
 3491 04b9 48       		.uleb128 0x48
 3492 04ba 06       		.uleb128 0x6
 3493 04bb AA080000 		.4byte	.LASF79
 3494 04bf 02       		.byte	0x2
 3495 04c0 5002     		.2byte	0x250
 3496 04c2 33000000 		.4byte	0x33
ARM GAS  /tmp/ccjXaC2Q.s 			page 78


 3497 04c6 02       		.byte	0x2
 3498 04c7 23       		.byte	0x23
 3499 04c8 49       		.uleb128 0x49
 3500 04c9 06       		.uleb128 0x6
 3501 04ca E4080000 		.4byte	.LASF80
 3502 04ce 02       		.byte	0x2
 3503 04cf 5102     		.2byte	0x251
 3504 04d1 33000000 		.4byte	0x33
 3505 04d5 02       		.byte	0x2
 3506 04d6 23       		.byte	0x23
 3507 04d7 4A       		.uleb128 0x4a
 3508 04d8 06       		.uleb128 0x6
 3509 04d9 EE080000 		.4byte	.LASF81
 3510 04dd 02       		.byte	0x2
 3511 04de 5202     		.2byte	0x252
 3512 04e0 33000000 		.4byte	0x33
 3513 04e4 02       		.byte	0x2
 3514 04e5 23       		.byte	0x23
 3515 04e6 4B       		.uleb128 0x4b
 3516 04e7 06       		.uleb128 0x6
 3517 04e8 F8080000 		.4byte	.LASF82
 3518 04ec 02       		.byte	0x2
 3519 04ed 5302     		.2byte	0x253
 3520 04ef 33000000 		.4byte	0x33
 3521 04f3 02       		.byte	0x2
 3522 04f4 23       		.byte	0x23
 3523 04f5 4C       		.uleb128 0x4c
 3524 04f6 06       		.uleb128 0x6
 3525 04f7 02090000 		.4byte	.LASF83
 3526 04fb 02       		.byte	0x2
 3527 04fc 5402     		.2byte	0x254
 3528 04fe 33000000 		.4byte	0x33
 3529 0502 02       		.byte	0x2
 3530 0503 23       		.byte	0x23
 3531 0504 4D       		.uleb128 0x4d
 3532 0505 06       		.uleb128 0x6
 3533 0506 0C090000 		.4byte	.LASF84
 3534 050a 02       		.byte	0x2
 3535 050b 5502     		.2byte	0x255
 3536 050d 33000000 		.4byte	0x33
 3537 0511 02       		.byte	0x2
 3538 0512 23       		.byte	0x23
 3539 0513 4E       		.uleb128 0x4e
 3540 0514 06       		.uleb128 0x6
 3541 0515 16090000 		.4byte	.LASF85
 3542 0519 02       		.byte	0x2
 3543 051a 5602     		.2byte	0x256
 3544 051c 33000000 		.4byte	0x33
 3545 0520 02       		.byte	0x2
 3546 0521 23       		.byte	0x23
 3547 0522 4F       		.uleb128 0x4f
 3548 0523 06       		.uleb128 0x6
 3549 0524 DD090000 		.4byte	.LASF86
 3550 0528 02       		.byte	0x2
 3551 0529 5702     		.2byte	0x257
 3552 052b 33000000 		.4byte	0x33
 3553 052f 02       		.byte	0x2
ARM GAS  /tmp/ccjXaC2Q.s 			page 79


 3554 0530 23       		.byte	0x23
 3555 0531 50       		.uleb128 0x50
 3556 0532 06       		.uleb128 0x6
 3557 0533 E7090000 		.4byte	.LASF87
 3558 0537 02       		.byte	0x2
 3559 0538 5802     		.2byte	0x258
 3560 053a 33000000 		.4byte	0x33
 3561 053e 02       		.byte	0x2
 3562 053f 23       		.byte	0x23
 3563 0540 51       		.uleb128 0x51
 3564 0541 06       		.uleb128 0x6
 3565 0542 F1090000 		.4byte	.LASF88
 3566 0546 02       		.byte	0x2
 3567 0547 5902     		.2byte	0x259
 3568 0549 33000000 		.4byte	0x33
 3569 054d 02       		.byte	0x2
 3570 054e 23       		.byte	0x23
 3571 054f 52       		.uleb128 0x52
 3572 0550 06       		.uleb128 0x6
 3573 0551 FB090000 		.4byte	.LASF89
 3574 0555 02       		.byte	0x2
 3575 0556 5A02     		.2byte	0x25a
 3576 0558 33000000 		.4byte	0x33
 3577 055c 02       		.byte	0x2
 3578 055d 23       		.byte	0x23
 3579 055e 53       		.uleb128 0x53
 3580 055f 06       		.uleb128 0x6
 3581 0560 050A0000 		.4byte	.LASF90
 3582 0564 02       		.byte	0x2
 3583 0565 5B02     		.2byte	0x25b
 3584 0567 33000000 		.4byte	0x33
 3585 056b 02       		.byte	0x2
 3586 056c 23       		.byte	0x23
 3587 056d 54       		.uleb128 0x54
 3588 056e 06       		.uleb128 0x6
 3589 056f 0F0A0000 		.4byte	.LASF91
 3590 0573 02       		.byte	0x2
 3591 0574 5C02     		.2byte	0x25c
 3592 0576 33000000 		.4byte	0x33
 3593 057a 02       		.byte	0x2
 3594 057b 23       		.byte	0x23
 3595 057c 55       		.uleb128 0x55
 3596 057d 06       		.uleb128 0x6
 3597 057e 190A0000 		.4byte	.LASF92
 3598 0582 02       		.byte	0x2
 3599 0583 5D02     		.2byte	0x25d
 3600 0585 33000000 		.4byte	0x33
 3601 0589 02       		.byte	0x2
 3602 058a 23       		.byte	0x23
 3603 058b 56       		.uleb128 0x56
 3604 058c 06       		.uleb128 0x6
 3605 058d 230A0000 		.4byte	.LASF93
 3606 0591 02       		.byte	0x2
 3607 0592 5E02     		.2byte	0x25e
 3608 0594 33000000 		.4byte	0x33
 3609 0598 02       		.byte	0x2
 3610 0599 23       		.byte	0x23
ARM GAS  /tmp/ccjXaC2Q.s 			page 80


 3611 059a 57       		.uleb128 0x57
 3612 059b 06       		.uleb128 0x6
 3613 059c 2D0A0000 		.4byte	.LASF94
 3614 05a0 02       		.byte	0x2
 3615 05a1 5F02     		.2byte	0x25f
 3616 05a3 33000000 		.4byte	0x33
 3617 05a7 02       		.byte	0x2
 3618 05a8 23       		.byte	0x23
 3619 05a9 58       		.uleb128 0x58
 3620 05aa 06       		.uleb128 0x6
 3621 05ab 370A0000 		.4byte	.LASF95
 3622 05af 02       		.byte	0x2
 3623 05b0 6002     		.2byte	0x260
 3624 05b2 33000000 		.4byte	0x33
 3625 05b6 02       		.byte	0x2
 3626 05b7 23       		.byte	0x23
 3627 05b8 59       		.uleb128 0x59
 3628 05b9 06       		.uleb128 0x6
 3629 05ba 710A0000 		.4byte	.LASF96
 3630 05be 02       		.byte	0x2
 3631 05bf 6102     		.2byte	0x261
 3632 05c1 33000000 		.4byte	0x33
 3633 05c5 02       		.byte	0x2
 3634 05c6 23       		.byte	0x23
 3635 05c7 5A       		.uleb128 0x5a
 3636 05c8 06       		.uleb128 0x6
 3637 05c9 7B0A0000 		.4byte	.LASF97
 3638 05cd 02       		.byte	0x2
 3639 05ce 6202     		.2byte	0x262
 3640 05d0 33000000 		.4byte	0x33
 3641 05d4 02       		.byte	0x2
 3642 05d5 23       		.byte	0x23
 3643 05d6 5B       		.uleb128 0x5b
 3644 05d7 06       		.uleb128 0x6
 3645 05d8 850A0000 		.4byte	.LASF98
 3646 05dc 02       		.byte	0x2
 3647 05dd 6302     		.2byte	0x263
 3648 05df 33000000 		.4byte	0x33
 3649 05e3 02       		.byte	0x2
 3650 05e4 23       		.byte	0x23
 3651 05e5 5C       		.uleb128 0x5c
 3652 05e6 06       		.uleb128 0x6
 3653 05e7 8F0A0000 		.4byte	.LASF99
 3654 05eb 02       		.byte	0x2
 3655 05ec 6402     		.2byte	0x264
 3656 05ee 33000000 		.4byte	0x33
 3657 05f2 02       		.byte	0x2
 3658 05f3 23       		.byte	0x23
 3659 05f4 5D       		.uleb128 0x5d
 3660 05f5 06       		.uleb128 0x6
 3661 05f6 990A0000 		.4byte	.LASF100
 3662 05fa 02       		.byte	0x2
 3663 05fb 6502     		.2byte	0x265
 3664 05fd 33000000 		.4byte	0x33
 3665 0601 02       		.byte	0x2
 3666 0602 23       		.byte	0x23
 3667 0603 5E       		.uleb128 0x5e
ARM GAS  /tmp/ccjXaC2Q.s 			page 81


 3668 0604 06       		.uleb128 0x6
 3669 0605 A30A0000 		.4byte	.LASF101
 3670 0609 02       		.byte	0x2
 3671 060a 6602     		.2byte	0x266
 3672 060c 33000000 		.4byte	0x33
 3673 0610 02       		.byte	0x2
 3674 0611 23       		.byte	0x23
 3675 0612 5F       		.uleb128 0x5f
 3676 0613 06       		.uleb128 0x6
 3677 0614 490B0000 		.4byte	.LASF102
 3678 0618 02       		.byte	0x2
 3679 0619 6702     		.2byte	0x267
 3680 061b 33000000 		.4byte	0x33
 3681 061f 02       		.byte	0x2
 3682 0620 23       		.byte	0x23
 3683 0621 60       		.uleb128 0x60
 3684 0622 06       		.uleb128 0x6
 3685 0623 530B0000 		.4byte	.LASF103
 3686 0627 02       		.byte	0x2
 3687 0628 6802     		.2byte	0x268
 3688 062a 33000000 		.4byte	0x33
 3689 062e 02       		.byte	0x2
 3690 062f 23       		.byte	0x23
 3691 0630 61       		.uleb128 0x61
 3692 0631 06       		.uleb128 0x6
 3693 0632 5D0B0000 		.4byte	.LASF104
 3694 0636 02       		.byte	0x2
 3695 0637 6902     		.2byte	0x269
 3696 0639 33000000 		.4byte	0x33
 3697 063d 02       		.byte	0x2
 3698 063e 23       		.byte	0x23
 3699 063f 62       		.uleb128 0x62
 3700 0640 06       		.uleb128 0x6
 3701 0641 670B0000 		.4byte	.LASF105
 3702 0645 02       		.byte	0x2
 3703 0646 6A02     		.2byte	0x26a
 3704 0648 33000000 		.4byte	0x33
 3705 064c 02       		.byte	0x2
 3706 064d 23       		.byte	0x23
 3707 064e 63       		.uleb128 0x63
 3708 064f 06       		.uleb128 0x6
 3709 0650 710B0000 		.4byte	.LASF106
 3710 0654 02       		.byte	0x2
 3711 0655 6B02     		.2byte	0x26b
 3712 0657 33000000 		.4byte	0x33
 3713 065b 02       		.byte	0x2
 3714 065c 23       		.byte	0x23
 3715 065d 64       		.uleb128 0x64
 3716 065e 06       		.uleb128 0x6
 3717 065f 7B0B0000 		.4byte	.LASF107
 3718 0663 02       		.byte	0x2
 3719 0664 6C02     		.2byte	0x26c
 3720 0666 33000000 		.4byte	0x33
 3721 066a 02       		.byte	0x2
 3722 066b 23       		.byte	0x23
 3723 066c 65       		.uleb128 0x65
 3724 066d 06       		.uleb128 0x6
ARM GAS  /tmp/ccjXaC2Q.s 			page 82


 3725 066e 850B0000 		.4byte	.LASF108
 3726 0672 02       		.byte	0x2
 3727 0673 6D02     		.2byte	0x26d
 3728 0675 33000000 		.4byte	0x33
 3729 0679 02       		.byte	0x2
 3730 067a 23       		.byte	0x23
 3731 067b 66       		.uleb128 0x66
 3732 067c 06       		.uleb128 0x6
 3733 067d 8F0B0000 		.4byte	.LASF109
 3734 0681 02       		.byte	0x2
 3735 0682 6E02     		.2byte	0x26e
 3736 0684 33000000 		.4byte	0x33
 3737 0688 02       		.byte	0x2
 3738 0689 23       		.byte	0x23
 3739 068a 67       		.uleb128 0x67
 3740 068b 06       		.uleb128 0x6
 3741 068c 990B0000 		.4byte	.LASF110
 3742 0690 02       		.byte	0x2
 3743 0691 6F02     		.2byte	0x26f
 3744 0693 33000000 		.4byte	0x33
 3745 0697 02       		.byte	0x2
 3746 0698 23       		.byte	0x23
 3747 0699 68       		.uleb128 0x68
 3748 069a 06       		.uleb128 0x6
 3749 069b A30B0000 		.4byte	.LASF111
 3750 069f 02       		.byte	0x2
 3751 06a0 7002     		.2byte	0x270
 3752 06a2 33000000 		.4byte	0x33
 3753 06a6 02       		.byte	0x2
 3754 06a7 23       		.byte	0x23
 3755 06a8 69       		.uleb128 0x69
 3756 06a9 06       		.uleb128 0x6
 3757 06aa D50B0000 		.4byte	.LASF112
 3758 06ae 02       		.byte	0x2
 3759 06af 7102     		.2byte	0x271
 3760 06b1 33000000 		.4byte	0x33
 3761 06b5 02       		.byte	0x2
 3762 06b6 23       		.byte	0x23
 3763 06b7 6A       		.uleb128 0x6a
 3764 06b8 06       		.uleb128 0x6
 3765 06b9 DF0B0000 		.4byte	.LASF113
 3766 06bd 02       		.byte	0x2
 3767 06be 7202     		.2byte	0x272
 3768 06c0 33000000 		.4byte	0x33
 3769 06c4 02       		.byte	0x2
 3770 06c5 23       		.byte	0x23
 3771 06c6 6B       		.uleb128 0x6b
 3772 06c7 06       		.uleb128 0x6
 3773 06c8 E90B0000 		.4byte	.LASF114
 3774 06cc 02       		.byte	0x2
 3775 06cd 7302     		.2byte	0x273
 3776 06cf 33000000 		.4byte	0x33
 3777 06d3 02       		.byte	0x2
 3778 06d4 23       		.byte	0x23
 3779 06d5 6C       		.uleb128 0x6c
 3780 06d6 06       		.uleb128 0x6
 3781 06d7 F30B0000 		.4byte	.LASF115
ARM GAS  /tmp/ccjXaC2Q.s 			page 83


 3782 06db 02       		.byte	0x2
 3783 06dc 7402     		.2byte	0x274
 3784 06de 33000000 		.4byte	0x33
 3785 06e2 02       		.byte	0x2
 3786 06e3 23       		.byte	0x23
 3787 06e4 6D       		.uleb128 0x6d
 3788 06e5 06       		.uleb128 0x6
 3789 06e6 FD0B0000 		.4byte	.LASF116
 3790 06ea 02       		.byte	0x2
 3791 06eb 7502     		.2byte	0x275
 3792 06ed 33000000 		.4byte	0x33
 3793 06f1 02       		.byte	0x2
 3794 06f2 23       		.byte	0x23
 3795 06f3 6E       		.uleb128 0x6e
 3796 06f4 06       		.uleb128 0x6
 3797 06f5 070C0000 		.4byte	.LASF117
 3798 06f9 02       		.byte	0x2
 3799 06fa 7602     		.2byte	0x276
 3800 06fc 33000000 		.4byte	0x33
 3801 0700 02       		.byte	0x2
 3802 0701 23       		.byte	0x23
 3803 0702 6F       		.uleb128 0x6f
 3804 0703 06       		.uleb128 0x6
 3805 0704 F40C0000 		.4byte	.LASF118
 3806 0708 02       		.byte	0x2
 3807 0709 7702     		.2byte	0x277
 3808 070b 33000000 		.4byte	0x33
 3809 070f 02       		.byte	0x2
 3810 0710 23       		.byte	0x23
 3811 0711 70       		.uleb128 0x70
 3812 0712 06       		.uleb128 0x6
 3813 0713 FE0C0000 		.4byte	.LASF119
 3814 0717 02       		.byte	0x2
 3815 0718 7802     		.2byte	0x278
 3816 071a 33000000 		.4byte	0x33
 3817 071e 02       		.byte	0x2
 3818 071f 23       		.byte	0x23
 3819 0720 71       		.uleb128 0x71
 3820 0721 06       		.uleb128 0x6
 3821 0722 080D0000 		.4byte	.LASF120
 3822 0726 02       		.byte	0x2
 3823 0727 7902     		.2byte	0x279
 3824 0729 33000000 		.4byte	0x33
 3825 072d 02       		.byte	0x2
 3826 072e 23       		.byte	0x23
 3827 072f 72       		.uleb128 0x72
 3828 0730 06       		.uleb128 0x6
 3829 0731 120D0000 		.4byte	.LASF121
 3830 0735 02       		.byte	0x2
 3831 0736 7A02     		.2byte	0x27a
 3832 0738 33000000 		.4byte	0x33
 3833 073c 02       		.byte	0x2
 3834 073d 23       		.byte	0x23
 3835 073e 73       		.uleb128 0x73
 3836 073f 06       		.uleb128 0x6
 3837 0740 1C0D0000 		.4byte	.LASF122
 3838 0744 02       		.byte	0x2
ARM GAS  /tmp/ccjXaC2Q.s 			page 84


 3839 0745 7B02     		.2byte	0x27b
 3840 0747 33000000 		.4byte	0x33
 3841 074b 02       		.byte	0x2
 3842 074c 23       		.byte	0x23
 3843 074d 74       		.uleb128 0x74
 3844 074e 06       		.uleb128 0x6
 3845 074f 260D0000 		.4byte	.LASF123
 3846 0753 02       		.byte	0x2
 3847 0754 7C02     		.2byte	0x27c
 3848 0756 33000000 		.4byte	0x33
 3849 075a 02       		.byte	0x2
 3850 075b 23       		.byte	0x23
 3851 075c 75       		.uleb128 0x75
 3852 075d 06       		.uleb128 0x6
 3853 075e 300D0000 		.4byte	.LASF124
 3854 0762 02       		.byte	0x2
 3855 0763 7D02     		.2byte	0x27d
 3856 0765 33000000 		.4byte	0x33
 3857 0769 02       		.byte	0x2
 3858 076a 23       		.byte	0x23
 3859 076b 76       		.uleb128 0x76
 3860 076c 06       		.uleb128 0x6
 3861 076d 3A0D0000 		.4byte	.LASF125
 3862 0771 02       		.byte	0x2
 3863 0772 7E02     		.2byte	0x27e
 3864 0774 33000000 		.4byte	0x33
 3865 0778 02       		.byte	0x2
 3866 0779 23       		.byte	0x23
 3867 077a 77       		.uleb128 0x77
 3868 077b 06       		.uleb128 0x6
 3869 077c 440D0000 		.4byte	.LASF126
 3870 0780 02       		.byte	0x2
 3871 0781 7F02     		.2byte	0x27f
 3872 0783 33000000 		.4byte	0x33
 3873 0787 02       		.byte	0x2
 3874 0788 23       		.byte	0x23
 3875 0789 78       		.uleb128 0x78
 3876 078a 06       		.uleb128 0x6
 3877 078b 4E0D0000 		.4byte	.LASF127
 3878 078f 02       		.byte	0x2
 3879 0790 8002     		.2byte	0x280
 3880 0792 33000000 		.4byte	0x33
 3881 0796 02       		.byte	0x2
 3882 0797 23       		.byte	0x23
 3883 0798 79       		.uleb128 0x79
 3884 0799 06       		.uleb128 0x6
 3885 079a 760D0000 		.4byte	.LASF128
 3886 079e 02       		.byte	0x2
 3887 079f 8102     		.2byte	0x281
 3888 07a1 33000000 		.4byte	0x33
 3889 07a5 02       		.byte	0x2
 3890 07a6 23       		.byte	0x23
 3891 07a7 7A       		.uleb128 0x7a
 3892 07a8 06       		.uleb128 0x6
 3893 07a9 800D0000 		.4byte	.LASF129
 3894 07ad 02       		.byte	0x2
 3895 07ae 8202     		.2byte	0x282
ARM GAS  /tmp/ccjXaC2Q.s 			page 85


 3896 07b0 33000000 		.4byte	0x33
 3897 07b4 02       		.byte	0x2
 3898 07b5 23       		.byte	0x23
 3899 07b6 7B       		.uleb128 0x7b
 3900 07b7 06       		.uleb128 0x6
 3901 07b8 8A0D0000 		.4byte	.LASF130
 3902 07bc 02       		.byte	0x2
 3903 07bd 8302     		.2byte	0x283
 3904 07bf 33000000 		.4byte	0x33
 3905 07c3 02       		.byte	0x2
 3906 07c4 23       		.byte	0x23
 3907 07c5 7C       		.uleb128 0x7c
 3908 07c6 06       		.uleb128 0x6
 3909 07c7 940D0000 		.4byte	.LASF131
 3910 07cb 02       		.byte	0x2
 3911 07cc 8402     		.2byte	0x284
 3912 07ce 33000000 		.4byte	0x33
 3913 07d2 02       		.byte	0x2
 3914 07d3 23       		.byte	0x23
 3915 07d4 7D       		.uleb128 0x7d
 3916 07d5 06       		.uleb128 0x6
 3917 07d6 9E0D0000 		.4byte	.LASF132
 3918 07da 02       		.byte	0x2
 3919 07db 8502     		.2byte	0x285
 3920 07dd 33000000 		.4byte	0x33
 3921 07e1 02       		.byte	0x2
 3922 07e2 23       		.byte	0x23
 3923 07e3 7E       		.uleb128 0x7e
 3924 07e4 06       		.uleb128 0x6
 3925 07e5 A80D0000 		.4byte	.LASF133
 3926 07e9 02       		.byte	0x2
 3927 07ea 8602     		.2byte	0x286
 3928 07ec 33000000 		.4byte	0x33
 3929 07f0 02       		.byte	0x2
 3930 07f1 23       		.byte	0x23
 3931 07f2 7F       		.uleb128 0x7f
 3932 07f3 06       		.uleb128 0x6
 3933 07f4 1E020000 		.4byte	.LASF134
 3934 07f8 02       		.byte	0x2
 3935 07f9 8702     		.2byte	0x287
 3936 07fb 33000000 		.4byte	0x33
 3937 07ff 03       		.byte	0x3
 3938 0800 23       		.byte	0x23
 3939 0801 8001     		.uleb128 0x80
 3940 0803 06       		.uleb128 0x6
 3941 0804 160E0000 		.4byte	.LASF135
 3942 0808 02       		.byte	0x2
 3943 0809 8802     		.2byte	0x288
 3944 080b 33000000 		.4byte	0x33
 3945 080f 03       		.byte	0x3
 3946 0810 23       		.byte	0x23
 3947 0811 8101     		.uleb128 0x81
 3948 0813 06       		.uleb128 0x6
 3949 0814 200E0000 		.4byte	.LASF136
 3950 0818 02       		.byte	0x2
 3951 0819 8902     		.2byte	0x289
 3952 081b 33000000 		.4byte	0x33
ARM GAS  /tmp/ccjXaC2Q.s 			page 86


 3953 081f 03       		.byte	0x3
 3954 0820 23       		.byte	0x23
 3955 0821 8201     		.uleb128 0x82
 3956 0823 06       		.uleb128 0x6
 3957 0824 2A0E0000 		.4byte	.LASF137
 3958 0828 02       		.byte	0x2
 3959 0829 8A02     		.2byte	0x28a
 3960 082b 33000000 		.4byte	0x33
 3961 082f 03       		.byte	0x3
 3962 0830 23       		.byte	0x23
 3963 0831 8301     		.uleb128 0x83
 3964 0833 06       		.uleb128 0x6
 3965 0834 AD0A0000 		.4byte	.LASF138
 3966 0838 02       		.byte	0x2
 3967 0839 8B02     		.2byte	0x28b
 3968 083b 59000000 		.4byte	0x59
 3969 083f 03       		.byte	0x3
 3970 0840 23       		.byte	0x23
 3971 0841 8401     		.uleb128 0x84
 3972 0843 06       		.uleb128 0x6
 3973 0844 4C020000 		.4byte	.LASF139
 3974 0848 02       		.byte	0x2
 3975 0849 8C02     		.2byte	0x28c
 3976 084b 59000000 		.4byte	0x59
 3977 084f 03       		.byte	0x3
 3978 0850 23       		.byte	0x23
 3979 0851 8801     		.uleb128 0x88
 3980 0853 06       		.uleb128 0x6
 3981 0854 59130000 		.4byte	.LASF140
 3982 0858 02       		.byte	0x2
 3983 0859 8D02     		.2byte	0x28d
 3984 085b 33000000 		.4byte	0x33
 3985 085f 03       		.byte	0x3
 3986 0860 23       		.byte	0x23
 3987 0861 8C01     		.uleb128 0x8c
 3988 0863 06       		.uleb128 0x6
 3989 0864 980E0000 		.4byte	.LASF141
 3990 0868 02       		.byte	0x2
 3991 0869 8E02     		.2byte	0x28e
 3992 086b 33000000 		.4byte	0x33
 3993 086f 03       		.byte	0x3
 3994 0870 23       		.byte	0x23
 3995 0871 8D01     		.uleb128 0x8d
 3996 0873 06       		.uleb128 0x6
 3997 0874 A20E0000 		.4byte	.LASF142
 3998 0878 02       		.byte	0x2
 3999 0879 8F02     		.2byte	0x28f
 4000 087b 33000000 		.4byte	0x33
 4001 087f 03       		.byte	0x3
 4002 0880 23       		.byte	0x23
 4003 0881 8E01     		.uleb128 0x8e
 4004 0883 06       		.uleb128 0x6
 4005 0884 AC0E0000 		.4byte	.LASF143
 4006 0888 02       		.byte	0x2
 4007 0889 9002     		.2byte	0x290
 4008 088b 33000000 		.4byte	0x33
 4009 088f 03       		.byte	0x3
ARM GAS  /tmp/ccjXaC2Q.s 			page 87


 4010 0890 23       		.byte	0x23
 4011 0891 8F01     		.uleb128 0x8f
 4012 0893 06       		.uleb128 0x6
 4013 0894 B00F0000 		.4byte	.LASF144
 4014 0898 02       		.byte	0x2
 4015 0899 9102     		.2byte	0x291
 4016 089b 33000000 		.4byte	0x33
 4017 089f 03       		.byte	0x3
 4018 08a0 23       		.byte	0x23
 4019 08a1 9001     		.uleb128 0x90
 4020 08a3 06       		.uleb128 0x6
 4021 08a4 BA0F0000 		.4byte	.LASF145
 4022 08a8 02       		.byte	0x2
 4023 08a9 9202     		.2byte	0x292
 4024 08ab 33000000 		.4byte	0x33
 4025 08af 03       		.byte	0x3
 4026 08b0 23       		.byte	0x23
 4027 08b1 9101     		.uleb128 0x91
 4028 08b3 06       		.uleb128 0x6
 4029 08b4 C40F0000 		.4byte	.LASF146
 4030 08b8 02       		.byte	0x2
 4031 08b9 9302     		.2byte	0x293
 4032 08bb 33000000 		.4byte	0x33
 4033 08bf 03       		.byte	0x3
 4034 08c0 23       		.byte	0x23
 4035 08c1 9201     		.uleb128 0x92
 4036 08c3 06       		.uleb128 0x6
 4037 08c4 CE0F0000 		.4byte	.LASF147
 4038 08c8 02       		.byte	0x2
 4039 08c9 9402     		.2byte	0x294
 4040 08cb 33000000 		.4byte	0x33
 4041 08cf 03       		.byte	0x3
 4042 08d0 23       		.byte	0x23
 4043 08d1 9301     		.uleb128 0x93
 4044 08d3 06       		.uleb128 0x6
 4045 08d4 D80F0000 		.4byte	.LASF148
 4046 08d8 02       		.byte	0x2
 4047 08d9 9502     		.2byte	0x295
 4048 08db 33000000 		.4byte	0x33
 4049 08df 03       		.byte	0x3
 4050 08e0 23       		.byte	0x23
 4051 08e1 9401     		.uleb128 0x94
 4052 08e3 06       		.uleb128 0x6
 4053 08e4 E20F0000 		.4byte	.LASF149
 4054 08e8 02       		.byte	0x2
 4055 08e9 9602     		.2byte	0x296
 4056 08eb 33000000 		.4byte	0x33
 4057 08ef 03       		.byte	0x3
 4058 08f0 23       		.byte	0x23
 4059 08f1 9501     		.uleb128 0x95
 4060 08f3 06       		.uleb128 0x6
 4061 08f4 EC0F0000 		.4byte	.LASF150
 4062 08f8 02       		.byte	0x2
 4063 08f9 9702     		.2byte	0x297
 4064 08fb 33000000 		.4byte	0x33
 4065 08ff 03       		.byte	0x3
 4066 0900 23       		.byte	0x23
ARM GAS  /tmp/ccjXaC2Q.s 			page 88


 4067 0901 9601     		.uleb128 0x96
 4068 0903 06       		.uleb128 0x6
 4069 0904 F60F0000 		.4byte	.LASF151
 4070 0908 02       		.byte	0x2
 4071 0909 9802     		.2byte	0x298
 4072 090b 33000000 		.4byte	0x33
 4073 090f 03       		.byte	0x3
 4074 0910 23       		.byte	0x23
 4075 0911 9701     		.uleb128 0x97
 4076 0913 06       		.uleb128 0x6
 4077 0914 00100000 		.4byte	.LASF152
 4078 0918 02       		.byte	0x2
 4079 0919 9902     		.2byte	0x299
 4080 091b 33000000 		.4byte	0x33
 4081 091f 03       		.byte	0x3
 4082 0920 23       		.byte	0x23
 4083 0921 9801     		.uleb128 0x98
 4084 0923 06       		.uleb128 0x6
 4085 0924 0A100000 		.4byte	.LASF153
 4086 0928 02       		.byte	0x2
 4087 0929 9A02     		.2byte	0x29a
 4088 092b 33000000 		.4byte	0x33
 4089 092f 03       		.byte	0x3
 4090 0930 23       		.byte	0x23
 4091 0931 9901     		.uleb128 0x99
 4092 0933 06       		.uleb128 0x6
 4093 0934 58100000 		.4byte	.LASF154
 4094 0938 02       		.byte	0x2
 4095 0939 9B02     		.2byte	0x29b
 4096 093b 33000000 		.4byte	0x33
 4097 093f 03       		.byte	0x3
 4098 0940 23       		.byte	0x23
 4099 0941 9A01     		.uleb128 0x9a
 4100 0943 06       		.uleb128 0x6
 4101 0944 62100000 		.4byte	.LASF155
 4102 0948 02       		.byte	0x2
 4103 0949 9C02     		.2byte	0x29c
 4104 094b 33000000 		.4byte	0x33
 4105 094f 03       		.byte	0x3
 4106 0950 23       		.byte	0x23
 4107 0951 9B01     		.uleb128 0x9b
 4108 0953 06       		.uleb128 0x6
 4109 0954 6C100000 		.4byte	.LASF156
 4110 0958 02       		.byte	0x2
 4111 0959 9D02     		.2byte	0x29d
 4112 095b 33000000 		.4byte	0x33
 4113 095f 03       		.byte	0x3
 4114 0960 23       		.byte	0x23
 4115 0961 9C01     		.uleb128 0x9c
 4116 0963 06       		.uleb128 0x6
 4117 0964 76100000 		.4byte	.LASF157
 4118 0968 02       		.byte	0x2
 4119 0969 9E02     		.2byte	0x29e
 4120 096b 33000000 		.4byte	0x33
 4121 096f 03       		.byte	0x3
 4122 0970 23       		.byte	0x23
 4123 0971 9D01     		.uleb128 0x9d
ARM GAS  /tmp/ccjXaC2Q.s 			page 89


 4124 0973 06       		.uleb128 0x6
 4125 0974 80100000 		.4byte	.LASF158
 4126 0978 02       		.byte	0x2
 4127 0979 9F02     		.2byte	0x29f
 4128 097b 33000000 		.4byte	0x33
 4129 097f 03       		.byte	0x3
 4130 0980 23       		.byte	0x23
 4131 0981 9E01     		.uleb128 0x9e
 4132 0983 06       		.uleb128 0x6
 4133 0984 8A100000 		.4byte	.LASF159
 4134 0988 02       		.byte	0x2
 4135 0989 A002     		.2byte	0x2a0
 4136 098b 33000000 		.4byte	0x33
 4137 098f 03       		.byte	0x3
 4138 0990 23       		.byte	0x23
 4139 0991 9F01     		.uleb128 0x9f
 4140 0993 06       		.uleb128 0x6
 4141 0994 20050000 		.4byte	.LASF160
 4142 0998 02       		.byte	0x2
 4143 0999 A102     		.2byte	0x2a1
 4144 099b 33000000 		.4byte	0x33
 4145 099f 03       		.byte	0x3
 4146 09a0 23       		.byte	0x23
 4147 09a1 A001     		.uleb128 0xa0
 4148 09a3 06       		.uleb128 0x6
 4149 09a4 2A050000 		.4byte	.LASF161
 4150 09a8 02       		.byte	0x2
 4151 09a9 A202     		.2byte	0x2a2
 4152 09ab 33000000 		.4byte	0x33
 4153 09af 03       		.byte	0x3
 4154 09b0 23       		.byte	0x23
 4155 09b1 A101     		.uleb128 0xa1
 4156 09b3 06       		.uleb128 0x6
 4157 09b4 34050000 		.4byte	.LASF162
 4158 09b8 02       		.byte	0x2
 4159 09b9 A302     		.2byte	0x2a3
 4160 09bb 33000000 		.4byte	0x33
 4161 09bf 03       		.byte	0x3
 4162 09c0 23       		.byte	0x23
 4163 09c1 A201     		.uleb128 0xa2
 4164 09c3 06       		.uleb128 0x6
 4165 09c4 3E050000 		.4byte	.LASF163
 4166 09c8 02       		.byte	0x2
 4167 09c9 A402     		.2byte	0x2a4
 4168 09cb 33000000 		.4byte	0x33
 4169 09cf 03       		.byte	0x3
 4170 09d0 23       		.byte	0x23
 4171 09d1 A301     		.uleb128 0xa3
 4172 09d3 06       		.uleb128 0x6
 4173 09d4 48050000 		.4byte	.LASF164
 4174 09d8 02       		.byte	0x2
 4175 09d9 A502     		.2byte	0x2a5
 4176 09db 33000000 		.4byte	0x33
 4177 09df 03       		.byte	0x3
 4178 09e0 23       		.byte	0x23
 4179 09e1 A401     		.uleb128 0xa4
 4180 09e3 06       		.uleb128 0x6
ARM GAS  /tmp/ccjXaC2Q.s 			page 90


 4181 09e4 52050000 		.4byte	.LASF165
 4182 09e8 02       		.byte	0x2
 4183 09e9 A602     		.2byte	0x2a6
 4184 09eb 33000000 		.4byte	0x33
 4185 09ef 03       		.byte	0x3
 4186 09f0 23       		.byte	0x23
 4187 09f1 A501     		.uleb128 0xa5
 4188 09f3 06       		.uleb128 0x6
 4189 09f4 5C050000 		.4byte	.LASF166
 4190 09f8 02       		.byte	0x2
 4191 09f9 A702     		.2byte	0x2a7
 4192 09fb 33000000 		.4byte	0x33
 4193 09ff 03       		.byte	0x3
 4194 0a00 23       		.byte	0x23
 4195 0a01 A601     		.uleb128 0xa6
 4196 0a03 06       		.uleb128 0x6
 4197 0a04 66050000 		.4byte	.LASF167
 4198 0a08 02       		.byte	0x2
 4199 0a09 A802     		.2byte	0x2a8
 4200 0a0b 33000000 		.4byte	0x33
 4201 0a0f 03       		.byte	0x3
 4202 0a10 23       		.byte	0x23
 4203 0a11 A701     		.uleb128 0xa7
 4204 0a13 06       		.uleb128 0x6
 4205 0a14 70050000 		.4byte	.LASF168
 4206 0a18 02       		.byte	0x2
 4207 0a19 A902     		.2byte	0x2a9
 4208 0a1b 33000000 		.4byte	0x33
 4209 0a1f 03       		.byte	0x3
 4210 0a20 23       		.byte	0x23
 4211 0a21 A801     		.uleb128 0xa8
 4212 0a23 06       		.uleb128 0x6
 4213 0a24 7A050000 		.4byte	.LASF169
 4214 0a28 02       		.byte	0x2
 4215 0a29 AA02     		.2byte	0x2aa
 4216 0a2b 33000000 		.4byte	0x33
 4217 0a2f 03       		.byte	0x3
 4218 0a30 23       		.byte	0x23
 4219 0a31 A901     		.uleb128 0xa9
 4220 0a33 06       		.uleb128 0x6
 4221 0a34 E3020000 		.4byte	.LASF170
 4222 0a38 02       		.byte	0x2
 4223 0a39 AB02     		.2byte	0x2ab
 4224 0a3b 33000000 		.4byte	0x33
 4225 0a3f 03       		.byte	0x3
 4226 0a40 23       		.byte	0x23
 4227 0a41 AA01     		.uleb128 0xaa
 4228 0a43 06       		.uleb128 0x6
 4229 0a44 F6010000 		.4byte	.LASF171
 4230 0a48 02       		.byte	0x2
 4231 0a49 AC02     		.2byte	0x2ac
 4232 0a4b 33000000 		.4byte	0x33
 4233 0a4f 03       		.byte	0x3
 4234 0a50 23       		.byte	0x23
 4235 0a51 AB01     		.uleb128 0xab
 4236 0a53 06       		.uleb128 0x6
 4237 0a54 00020000 		.4byte	.LASF172
ARM GAS  /tmp/ccjXaC2Q.s 			page 91


 4238 0a58 02       		.byte	0x2
 4239 0a59 AD02     		.2byte	0x2ad
 4240 0a5b 33000000 		.4byte	0x33
 4241 0a5f 03       		.byte	0x3
 4242 0a60 23       		.byte	0x23
 4243 0a61 AC01     		.uleb128 0xac
 4244 0a63 06       		.uleb128 0x6
 4245 0a64 0A020000 		.4byte	.LASF173
 4246 0a68 02       		.byte	0x2
 4247 0a69 AE02     		.2byte	0x2ae
 4248 0a6b 33000000 		.4byte	0x33
 4249 0a6f 03       		.byte	0x3
 4250 0a70 23       		.byte	0x23
 4251 0a71 AD01     		.uleb128 0xad
 4252 0a73 06       		.uleb128 0x6
 4253 0a74 5B030000 		.4byte	.LASF174
 4254 0a78 02       		.byte	0x2
 4255 0a79 AF02     		.2byte	0x2af
 4256 0a7b 33000000 		.4byte	0x33
 4257 0a7f 03       		.byte	0x3
 4258 0a80 23       		.byte	0x23
 4259 0a81 AE01     		.uleb128 0xae
 4260 0a83 06       		.uleb128 0x6
 4261 0a84 75040000 		.4byte	.LASF175
 4262 0a88 02       		.byte	0x2
 4263 0a89 B002     		.2byte	0x2b0
 4264 0a8b 33000000 		.4byte	0x33
 4265 0a8f 03       		.byte	0x3
 4266 0a90 23       		.byte	0x23
 4267 0a91 AF01     		.uleb128 0xaf
 4268 0a93 06       		.uleb128 0x6
 4269 0a94 96060000 		.4byte	.LASF176
 4270 0a98 02       		.byte	0x2
 4271 0a99 B102     		.2byte	0x2b1
 4272 0a9b 33000000 		.4byte	0x33
 4273 0a9f 03       		.byte	0x3
 4274 0aa0 23       		.byte	0x23
 4275 0aa1 B001     		.uleb128 0xb0
 4276 0aa3 06       		.uleb128 0x6
 4277 0aa4 A0060000 		.4byte	.LASF177
 4278 0aa8 02       		.byte	0x2
 4279 0aa9 B202     		.2byte	0x2b2
 4280 0aab 33000000 		.4byte	0x33
 4281 0aaf 03       		.byte	0x3
 4282 0ab0 23       		.byte	0x23
 4283 0ab1 B101     		.uleb128 0xb1
 4284 0ab3 06       		.uleb128 0x6
 4285 0ab4 AA060000 		.4byte	.LASF178
 4286 0ab8 02       		.byte	0x2
 4287 0ab9 B302     		.2byte	0x2b3
 4288 0abb 33000000 		.4byte	0x33
 4289 0abf 03       		.byte	0x3
 4290 0ac0 23       		.byte	0x23
 4291 0ac1 B201     		.uleb128 0xb2
 4292 0ac3 06       		.uleb128 0x6
 4293 0ac4 B4060000 		.4byte	.LASF179
 4294 0ac8 02       		.byte	0x2
ARM GAS  /tmp/ccjXaC2Q.s 			page 92


 4295 0ac9 B402     		.2byte	0x2b4
 4296 0acb 33000000 		.4byte	0x33
 4297 0acf 03       		.byte	0x3
 4298 0ad0 23       		.byte	0x23
 4299 0ad1 B301     		.uleb128 0xb3
 4300 0ad3 06       		.uleb128 0x6
 4301 0ad4 BE060000 		.4byte	.LASF180
 4302 0ad8 02       		.byte	0x2
 4303 0ad9 B502     		.2byte	0x2b5
 4304 0adb 33000000 		.4byte	0x33
 4305 0adf 03       		.byte	0x3
 4306 0ae0 23       		.byte	0x23
 4307 0ae1 B401     		.uleb128 0xb4
 4308 0ae3 06       		.uleb128 0x6
 4309 0ae4 C8060000 		.4byte	.LASF181
 4310 0ae8 02       		.byte	0x2
 4311 0ae9 B602     		.2byte	0x2b6
 4312 0aeb 33000000 		.4byte	0x33
 4313 0aef 03       		.byte	0x3
 4314 0af0 23       		.byte	0x23
 4315 0af1 B501     		.uleb128 0xb5
 4316 0af3 06       		.uleb128 0x6
 4317 0af4 D2060000 		.4byte	.LASF182
 4318 0af8 02       		.byte	0x2
 4319 0af9 B702     		.2byte	0x2b7
 4320 0afb 33000000 		.4byte	0x33
 4321 0aff 03       		.byte	0x3
 4322 0b00 23       		.byte	0x23
 4323 0b01 B601     		.uleb128 0xb6
 4324 0b03 06       		.uleb128 0x6
 4325 0b04 DC060000 		.4byte	.LASF183
 4326 0b08 02       		.byte	0x2
 4327 0b09 B802     		.2byte	0x2b8
 4328 0b0b 33000000 		.4byte	0x33
 4329 0b0f 03       		.byte	0x3
 4330 0b10 23       		.byte	0x23
 4331 0b11 B701     		.uleb128 0xb7
 4332 0b13 06       		.uleb128 0x6
 4333 0b14 E6060000 		.4byte	.LASF184
 4334 0b18 02       		.byte	0x2
 4335 0b19 B902     		.2byte	0x2b9
 4336 0b1b 33000000 		.4byte	0x33
 4337 0b1f 03       		.byte	0x3
 4338 0b20 23       		.byte	0x23
 4339 0b21 B801     		.uleb128 0xb8
 4340 0b23 06       		.uleb128 0x6
 4341 0b24 F0060000 		.4byte	.LASF185
 4342 0b28 02       		.byte	0x2
 4343 0b29 BA02     		.2byte	0x2ba
 4344 0b2b 33000000 		.4byte	0x33
 4345 0b2f 03       		.byte	0x3
 4346 0b30 23       		.byte	0x23
 4347 0b31 B901     		.uleb128 0xb9
 4348 0b33 06       		.uleb128 0x6
 4349 0b34 68070000 		.4byte	.LASF186
 4350 0b38 02       		.byte	0x2
 4351 0b39 BB02     		.2byte	0x2bb
ARM GAS  /tmp/ccjXaC2Q.s 			page 93


 4352 0b3b 33000000 		.4byte	0x33
 4353 0b3f 03       		.byte	0x3
 4354 0b40 23       		.byte	0x23
 4355 0b41 BA01     		.uleb128 0xba
 4356 0b43 06       		.uleb128 0x6
 4357 0b44 79070000 		.4byte	.LASF187
 4358 0b48 02       		.byte	0x2
 4359 0b49 BC02     		.2byte	0x2bc
 4360 0b4b 33000000 		.4byte	0x33
 4361 0b4f 03       		.byte	0x3
 4362 0b50 23       		.byte	0x23
 4363 0b51 BB01     		.uleb128 0xbb
 4364 0b53 06       		.uleb128 0x6
 4365 0b54 83070000 		.4byte	.LASF188
 4366 0b58 02       		.byte	0x2
 4367 0b59 BD02     		.2byte	0x2bd
 4368 0b5b 33000000 		.4byte	0x33
 4369 0b5f 03       		.byte	0x3
 4370 0b60 23       		.byte	0x23
 4371 0b61 BC01     		.uleb128 0xbc
 4372 0b63 06       		.uleb128 0x6
 4373 0b64 8D070000 		.4byte	.LASF189
 4374 0b68 02       		.byte	0x2
 4375 0b69 BE02     		.2byte	0x2be
 4376 0b6b 33000000 		.4byte	0x33
 4377 0b6f 03       		.byte	0x3
 4378 0b70 23       		.byte	0x23
 4379 0b71 BD01     		.uleb128 0xbd
 4380 0b73 06       		.uleb128 0x6
 4381 0b74 DD070000 		.4byte	.LASF190
 4382 0b78 02       		.byte	0x2
 4383 0b79 BF02     		.2byte	0x2bf
 4384 0b7b 33000000 		.4byte	0x33
 4385 0b7f 03       		.byte	0x3
 4386 0b80 23       		.byte	0x23
 4387 0b81 BE01     		.uleb128 0xbe
 4388 0b83 06       		.uleb128 0x6
 4389 0b84 D3070000 		.4byte	.LASF191
 4390 0b88 02       		.byte	0x2
 4391 0b89 C002     		.2byte	0x2c0
 4392 0b8b 33000000 		.4byte	0x33
 4393 0b8f 03       		.byte	0x3
 4394 0b90 23       		.byte	0x23
 4395 0b91 BF01     		.uleb128 0xbf
 4396 0b93 06       		.uleb128 0x6
 4397 0b94 BD0A0000 		.4byte	.LASF192
 4398 0b98 02       		.byte	0x2
 4399 0b99 C102     		.2byte	0x2c1
 4400 0b9b 33000000 		.4byte	0x33
 4401 0b9f 03       		.byte	0x3
 4402 0ba0 23       		.byte	0x23
 4403 0ba1 C001     		.uleb128 0xc0
 4404 0ba3 06       		.uleb128 0x6
 4405 0ba4 16080000 		.4byte	.LASF193
 4406 0ba8 02       		.byte	0x2
 4407 0ba9 C202     		.2byte	0x2c2
 4408 0bab 33000000 		.4byte	0x33
ARM GAS  /tmp/ccjXaC2Q.s 			page 94


 4409 0baf 03       		.byte	0x3
 4410 0bb0 23       		.byte	0x23
 4411 0bb1 C101     		.uleb128 0xc1
 4412 0bb3 06       		.uleb128 0x6
 4413 0bb4 20080000 		.4byte	.LASF194
 4414 0bb8 02       		.byte	0x2
 4415 0bb9 C302     		.2byte	0x2c3
 4416 0bbb 33000000 		.4byte	0x33
 4417 0bbf 03       		.byte	0x3
 4418 0bc0 23       		.byte	0x23
 4419 0bc1 C201     		.uleb128 0xc2
 4420 0bc3 06       		.uleb128 0x6
 4421 0bc4 2A080000 		.4byte	.LASF195
 4422 0bc8 02       		.byte	0x2
 4423 0bc9 C402     		.2byte	0x2c4
 4424 0bcb 33000000 		.4byte	0x33
 4425 0bcf 03       		.byte	0x3
 4426 0bd0 23       		.byte	0x23
 4427 0bd1 C301     		.uleb128 0xc3
 4428 0bd3 06       		.uleb128 0x6
 4429 0bd4 7F040000 		.4byte	.LASF196
 4430 0bd8 02       		.byte	0x2
 4431 0bd9 C502     		.2byte	0x2c5
 4432 0bdb 59000000 		.4byte	0x59
 4433 0bdf 03       		.byte	0x3
 4434 0be0 23       		.byte	0x23
 4435 0be1 C401     		.uleb128 0xc4
 4436 0be3 06       		.uleb128 0x6
 4437 0be4 34080000 		.4byte	.LASF197
 4438 0be8 02       		.byte	0x2
 4439 0be9 C602     		.2byte	0x2c6
 4440 0beb 33000000 		.4byte	0x33
 4441 0bef 03       		.byte	0x3
 4442 0bf0 23       		.byte	0x23
 4443 0bf1 C801     		.uleb128 0xc8
 4444 0bf3 06       		.uleb128 0x6
 4445 0bf4 3E080000 		.4byte	.LASF198
 4446 0bf8 02       		.byte	0x2
 4447 0bf9 C702     		.2byte	0x2c7
 4448 0bfb 33000000 		.4byte	0x33
 4449 0bff 03       		.byte	0x3
 4450 0c00 23       		.byte	0x23
 4451 0c01 C901     		.uleb128 0xc9
 4452 0c03 06       		.uleb128 0x6
 4453 0c04 3E0E0000 		.4byte	.LASF199
 4454 0c08 02       		.byte	0x2
 4455 0c09 C802     		.2byte	0x2c8
 4456 0c0b 33000000 		.4byte	0x33
 4457 0c0f 03       		.byte	0x3
 4458 0c10 23       		.byte	0x23
 4459 0c11 CA01     		.uleb128 0xca
 4460 0c13 06       		.uleb128 0x6
 4461 0c14 700E0000 		.4byte	.LASF200
 4462 0c18 02       		.byte	0x2
 4463 0c19 C902     		.2byte	0x2c9
 4464 0c1b 33000000 		.4byte	0x33
 4465 0c1f 03       		.byte	0x3
ARM GAS  /tmp/ccjXaC2Q.s 			page 95


 4466 0c20 23       		.byte	0x23
 4467 0c21 CB01     		.uleb128 0xcb
 4468 0c23 06       		.uleb128 0x6
 4469 0c24 6C0D0000 		.4byte	.LASF201
 4470 0c28 02       		.byte	0x2
 4471 0c29 CA02     		.2byte	0x2ca
 4472 0c2b 33000000 		.4byte	0x33
 4473 0c2f 03       		.byte	0x3
 4474 0c30 23       		.byte	0x23
 4475 0c31 CC01     		.uleb128 0xcc
 4476 0c33 06       		.uleb128 0x6
 4477 0c34 B70B0000 		.4byte	.LASF202
 4478 0c38 02       		.byte	0x2
 4479 0c39 CB02     		.2byte	0x2cb
 4480 0c3b 33000000 		.4byte	0x33
 4481 0c3f 03       		.byte	0x3
 4482 0c40 23       		.byte	0x23
 4483 0c41 CD01     		.uleb128 0xcd
 4484 0c43 06       		.uleb128 0x6
 4485 0c44 410A0000 		.4byte	.LASF203
 4486 0c48 02       		.byte	0x2
 4487 0c49 CC02     		.2byte	0x2cc
 4488 0c4b 33000000 		.4byte	0x33
 4489 0c4f 03       		.byte	0x3
 4490 0c50 23       		.byte	0x23
 4491 0c51 CE01     		.uleb128 0xce
 4492 0c53 06       		.uleb128 0x6
 4493 0c54 4B0A0000 		.4byte	.LASF204
 4494 0c58 02       		.byte	0x2
 4495 0c59 CD02     		.2byte	0x2cd
 4496 0c5b 33000000 		.4byte	0x33
 4497 0c5f 03       		.byte	0x3
 4498 0c60 23       		.byte	0x23
 4499 0c61 CF01     		.uleb128 0xcf
 4500 0c63 06       		.uleb128 0x6
 4501 0c64 79090000 		.4byte	.LASF205
 4502 0c68 02       		.byte	0x2
 4503 0c69 CE02     		.2byte	0x2ce
 4504 0c6b 33000000 		.4byte	0x33
 4505 0c6f 03       		.byte	0x3
 4506 0c70 23       		.byte	0x23
 4507 0c71 D001     		.uleb128 0xd0
 4508 0c73 06       		.uleb128 0x6
 4509 0c74 83090000 		.4byte	.LASF206
 4510 0c78 02       		.byte	0x2
 4511 0c79 CF02     		.2byte	0x2cf
 4512 0c7b 33000000 		.4byte	0x33
 4513 0c7f 03       		.byte	0x3
 4514 0c80 23       		.byte	0x23
 4515 0c81 D101     		.uleb128 0xd1
 4516 0c83 06       		.uleb128 0x6
 4517 0c84 8D090000 		.4byte	.LASF207
 4518 0c88 02       		.byte	0x2
 4519 0c89 D002     		.2byte	0x2d0
 4520 0c8b 33000000 		.4byte	0x33
 4521 0c8f 03       		.byte	0x3
 4522 0c90 23       		.byte	0x23
ARM GAS  /tmp/ccjXaC2Q.s 			page 96


 4523 0c91 D201     		.uleb128 0xd2
 4524 0c93 06       		.uleb128 0x6
 4525 0c94 97090000 		.4byte	.LASF208
 4526 0c98 02       		.byte	0x2
 4527 0c99 D102     		.2byte	0x2d1
 4528 0c9b 33000000 		.4byte	0x33
 4529 0c9f 03       		.byte	0x3
 4530 0ca0 23       		.byte	0x23
 4531 0ca1 D301     		.uleb128 0xd3
 4532 0ca3 06       		.uleb128 0x6
 4533 0ca4 A1090000 		.4byte	.LASF209
 4534 0ca8 02       		.byte	0x2
 4535 0ca9 D202     		.2byte	0x2d2
 4536 0cab 33000000 		.4byte	0x33
 4537 0caf 03       		.byte	0x3
 4538 0cb0 23       		.byte	0x23
 4539 0cb1 D401     		.uleb128 0xd4
 4540 0cb3 06       		.uleb128 0x6
 4541 0cb4 AB090000 		.4byte	.LASF210
 4542 0cb8 02       		.byte	0x2
 4543 0cb9 D302     		.2byte	0x2d3
 4544 0cbb 33000000 		.4byte	0x33
 4545 0cbf 03       		.byte	0x3
 4546 0cc0 23       		.byte	0x23
 4547 0cc1 D501     		.uleb128 0xd5
 4548 0cc3 06       		.uleb128 0x6
 4549 0cc4 B5090000 		.4byte	.LASF211
 4550 0cc8 02       		.byte	0x2
 4551 0cc9 D402     		.2byte	0x2d4
 4552 0ccb 33000000 		.4byte	0x33
 4553 0ccf 03       		.byte	0x3
 4554 0cd0 23       		.byte	0x23
 4555 0cd1 D601     		.uleb128 0xd6
 4556 0cd3 06       		.uleb128 0x6
 4557 0cd4 BF090000 		.4byte	.LASF212
 4558 0cd8 02       		.byte	0x2
 4559 0cd9 D502     		.2byte	0x2d5
 4560 0cdb 33000000 		.4byte	0x33
 4561 0cdf 03       		.byte	0x3
 4562 0ce0 23       		.byte	0x23
 4563 0ce1 D701     		.uleb128 0xd7
 4564 0ce3 06       		.uleb128 0x6
 4565 0ce4 C9090000 		.4byte	.LASF213
 4566 0ce8 02       		.byte	0x2
 4567 0ce9 D602     		.2byte	0x2d6
 4568 0ceb 33000000 		.4byte	0x33
 4569 0cef 03       		.byte	0x3
 4570 0cf0 23       		.byte	0x23
 4571 0cf1 D801     		.uleb128 0xd8
 4572 0cf3 06       		.uleb128 0x6
 4573 0cf4 D3090000 		.4byte	.LASF214
 4574 0cf8 02       		.byte	0x2
 4575 0cf9 D702     		.2byte	0x2d7
 4576 0cfb 33000000 		.4byte	0x33
 4577 0cff 03       		.byte	0x3
 4578 0d00 23       		.byte	0x23
 4579 0d01 D901     		.uleb128 0xd9
ARM GAS  /tmp/ccjXaC2Q.s 			page 97


 4580 0d03 06       		.uleb128 0x6
 4581 0d04 82120000 		.4byte	.LASF215
 4582 0d08 02       		.byte	0x2
 4583 0d09 D802     		.2byte	0x2d8
 4584 0d0b 33000000 		.4byte	0x33
 4585 0d0f 03       		.byte	0x3
 4586 0d10 23       		.byte	0x23
 4587 0d11 DA01     		.uleb128 0xda
 4588 0d13 06       		.uleb128 0x6
 4589 0d14 AA120000 		.4byte	.LASF216
 4590 0d18 02       		.byte	0x2
 4591 0d19 D902     		.2byte	0x2d9
 4592 0d1b 33000000 		.4byte	0x33
 4593 0d1f 03       		.byte	0x3
 4594 0d20 23       		.byte	0x23
 4595 0d21 DB01     		.uleb128 0xdb
 4596 0d23 06       		.uleb128 0x6
 4597 0d24 E4000000 		.4byte	.LASF217
 4598 0d28 02       		.byte	0x2
 4599 0d29 DA02     		.2byte	0x2da
 4600 0d2b 33000000 		.4byte	0x33
 4601 0d2f 03       		.byte	0x3
 4602 0d30 23       		.byte	0x23
 4603 0d31 DC01     		.uleb128 0xdc
 4604 0d33 06       		.uleb128 0x6
 4605 0d34 28100000 		.4byte	.LASF218
 4606 0d38 02       		.byte	0x2
 4607 0d39 DB02     		.2byte	0x2db
 4608 0d3b 33000000 		.4byte	0x33
 4609 0d3f 03       		.byte	0x3
 4610 0d40 23       		.byte	0x23
 4611 0d41 DD01     		.uleb128 0xdd
 4612 0d43 06       		.uleb128 0x6
 4613 0d44 580D0000 		.4byte	.LASF219
 4614 0d48 02       		.byte	0x2
 4615 0d49 DC02     		.2byte	0x2dc
 4616 0d4b 33000000 		.4byte	0x33
 4617 0d4f 03       		.byte	0x3
 4618 0d50 23       		.byte	0x23
 4619 0d51 DE01     		.uleb128 0xde
 4620 0d53 06       		.uleb128 0x6
 4621 0d54 2B130000 		.4byte	.LASF220
 4622 0d58 02       		.byte	0x2
 4623 0d59 DD02     		.2byte	0x2dd
 4624 0d5b 33000000 		.4byte	0x33
 4625 0d5f 03       		.byte	0x3
 4626 0d60 23       		.byte	0x23
 4627 0d61 DF01     		.uleb128 0xdf
 4628 0d63 06       		.uleb128 0x6
 4629 0d64 D10A0000 		.4byte	.LASF221
 4630 0d68 02       		.byte	0x2
 4631 0d69 DE02     		.2byte	0x2de
 4632 0d6b 33000000 		.4byte	0x33
 4633 0d6f 03       		.byte	0x3
 4634 0d70 23       		.byte	0x23
 4635 0d71 E001     		.uleb128 0xe0
 4636 0d73 06       		.uleb128 0x6
ARM GAS  /tmp/ccjXaC2Q.s 			page 98


 4637 0d74 DB0A0000 		.4byte	.LASF222
 4638 0d78 02       		.byte	0x2
 4639 0d79 DF02     		.2byte	0x2df
 4640 0d7b 33000000 		.4byte	0x33
 4641 0d7f 03       		.byte	0x3
 4642 0d80 23       		.byte	0x23
 4643 0d81 E101     		.uleb128 0xe1
 4644 0d83 06       		.uleb128 0x6
 4645 0d84 E50A0000 		.4byte	.LASF223
 4646 0d88 02       		.byte	0x2
 4647 0d89 E002     		.2byte	0x2e0
 4648 0d8b 33000000 		.4byte	0x33
 4649 0d8f 03       		.byte	0x3
 4650 0d90 23       		.byte	0x23
 4651 0d91 E201     		.uleb128 0xe2
 4652 0d93 06       		.uleb128 0x6
 4653 0d94 EF0A0000 		.4byte	.LASF224
 4654 0d98 02       		.byte	0x2
 4655 0d99 E102     		.2byte	0x2e1
 4656 0d9b 33000000 		.4byte	0x33
 4657 0d9f 03       		.byte	0x3
 4658 0da0 23       		.byte	0x23
 4659 0da1 E301     		.uleb128 0xe3
 4660 0da3 06       		.uleb128 0x6
 4661 0da4 F90A0000 		.4byte	.LASF225
 4662 0da8 02       		.byte	0x2
 4663 0da9 E202     		.2byte	0x2e2
 4664 0dab 33000000 		.4byte	0x33
 4665 0daf 03       		.byte	0x3
 4666 0db0 23       		.byte	0x23
 4667 0db1 E401     		.uleb128 0xe4
 4668 0db3 06       		.uleb128 0x6
 4669 0db4 030B0000 		.4byte	.LASF226
 4670 0db8 02       		.byte	0x2
 4671 0db9 E302     		.2byte	0x2e3
 4672 0dbb 33000000 		.4byte	0x33
 4673 0dbf 03       		.byte	0x3
 4674 0dc0 23       		.byte	0x23
 4675 0dc1 E501     		.uleb128 0xe5
 4676 0dc3 06       		.uleb128 0x6
 4677 0dc4 0D0B0000 		.4byte	.LASF227
 4678 0dc8 02       		.byte	0x2
 4679 0dc9 E402     		.2byte	0x2e4
 4680 0dcb 33000000 		.4byte	0x33
 4681 0dcf 03       		.byte	0x3
 4682 0dd0 23       		.byte	0x23
 4683 0dd1 E601     		.uleb128 0xe6
 4684 0dd3 06       		.uleb128 0x6
 4685 0dd4 170B0000 		.4byte	.LASF228
 4686 0dd8 02       		.byte	0x2
 4687 0dd9 E502     		.2byte	0x2e5
 4688 0ddb 33000000 		.4byte	0x33
 4689 0ddf 03       		.byte	0x3
 4690 0de0 23       		.byte	0x23
 4691 0de1 E701     		.uleb128 0xe7
 4692 0de3 06       		.uleb128 0x6
 4693 0de4 210B0000 		.4byte	.LASF229
ARM GAS  /tmp/ccjXaC2Q.s 			page 99


 4694 0de8 02       		.byte	0x2
 4695 0de9 E602     		.2byte	0x2e6
 4696 0deb 33000000 		.4byte	0x33
 4697 0def 03       		.byte	0x3
 4698 0df0 23       		.byte	0x23
 4699 0df1 E801     		.uleb128 0xe8
 4700 0df3 06       		.uleb128 0x6
 4701 0df4 2B0B0000 		.4byte	.LASF230
 4702 0df8 02       		.byte	0x2
 4703 0df9 E702     		.2byte	0x2e7
 4704 0dfb 33000000 		.4byte	0x33
 4705 0dff 03       		.byte	0x3
 4706 0e00 23       		.byte	0x23
 4707 0e01 E901     		.uleb128 0xe9
 4708 0e03 06       		.uleb128 0x6
 4709 0e04 9F130000 		.4byte	.LASF231
 4710 0e08 02       		.byte	0x2
 4711 0e09 E802     		.2byte	0x2e8
 4712 0e0b 33000000 		.4byte	0x33
 4713 0e0f 03       		.byte	0x3
 4714 0e10 23       		.byte	0x23
 4715 0e11 EA01     		.uleb128 0xea
 4716 0e13 06       		.uleb128 0x6
 4717 0e14 BD130000 		.4byte	.LASF232
 4718 0e18 02       		.byte	0x2
 4719 0e19 E902     		.2byte	0x2e9
 4720 0e1b 33000000 		.4byte	0x33
 4721 0e1f 03       		.byte	0x3
 4722 0e20 23       		.byte	0x23
 4723 0e21 EB01     		.uleb128 0xeb
 4724 0e23 06       		.uleb128 0x6
 4725 0e24 DB130000 		.4byte	.LASF233
 4726 0e28 02       		.byte	0x2
 4727 0e29 EA02     		.2byte	0x2ea
 4728 0e2b 33000000 		.4byte	0x33
 4729 0e2f 03       		.byte	0x3
 4730 0e30 23       		.byte	0x23
 4731 0e31 EC01     		.uleb128 0xec
 4732 0e33 06       		.uleb128 0x6
 4733 0e34 F9130000 		.4byte	.LASF234
 4734 0e38 02       		.byte	0x2
 4735 0e39 EB02     		.2byte	0x2eb
 4736 0e3b 33000000 		.4byte	0x33
 4737 0e3f 03       		.byte	0x3
 4738 0e40 23       		.byte	0x23
 4739 0e41 ED01     		.uleb128 0xed
 4740 0e43 06       		.uleb128 0x6
 4741 0e44 14100000 		.4byte	.LASF235
 4742 0e48 02       		.byte	0x2
 4743 0e49 EC02     		.2byte	0x2ec
 4744 0e4b 33000000 		.4byte	0x33
 4745 0e4f 03       		.byte	0x3
 4746 0e50 23       		.byte	0x23
 4747 0e51 EE01     		.uleb128 0xee
 4748 0e53 06       		.uleb128 0x6
 4749 0e54 16140000 		.4byte	.LASF236
 4750 0e58 02       		.byte	0x2
ARM GAS  /tmp/ccjXaC2Q.s 			page 100


 4751 0e59 ED02     		.2byte	0x2ed
 4752 0e5b 33000000 		.4byte	0x33
 4753 0e5f 03       		.byte	0x3
 4754 0e60 23       		.byte	0x23
 4755 0e61 EF01     		.uleb128 0xef
 4756 0e63 06       		.uleb128 0x6
 4757 0e64 750C0000 		.4byte	.LASF237
 4758 0e68 02       		.byte	0x2
 4759 0e69 EE02     		.2byte	0x2ee
 4760 0e6b 33000000 		.4byte	0x33
 4761 0e6f 03       		.byte	0x3
 4762 0e70 23       		.byte	0x23
 4763 0e71 F001     		.uleb128 0xf0
 4764 0e73 06       		.uleb128 0x6
 4765 0e74 7F0C0000 		.4byte	.LASF238
 4766 0e78 02       		.byte	0x2
 4767 0e79 EF02     		.2byte	0x2ef
 4768 0e7b 33000000 		.4byte	0x33
 4769 0e7f 03       		.byte	0x3
 4770 0e80 23       		.byte	0x23
 4771 0e81 F101     		.uleb128 0xf1
 4772 0e83 06       		.uleb128 0x6
 4773 0e84 E3110000 		.4byte	.LASF239
 4774 0e88 02       		.byte	0x2
 4775 0e89 F002     		.2byte	0x2f0
 4776 0e8b 33000000 		.4byte	0x33
 4777 0e8f 03       		.byte	0x3
 4778 0e90 23       		.byte	0x23
 4779 0e91 F201     		.uleb128 0xf2
 4780 0e93 06       		.uleb128 0x6
 4781 0e94 920C0000 		.4byte	.LASF240
 4782 0e98 02       		.byte	0x2
 4783 0e99 F102     		.2byte	0x2f1
 4784 0e9b 33000000 		.4byte	0x33
 4785 0e9f 03       		.byte	0x3
 4786 0ea0 23       		.byte	0x23
 4787 0ea1 F301     		.uleb128 0xf3
 4788 0ea3 06       		.uleb128 0x6
 4789 0ea4 9C0C0000 		.4byte	.LASF241
 4790 0ea8 02       		.byte	0x2
 4791 0ea9 F202     		.2byte	0x2f2
 4792 0eab 33000000 		.4byte	0x33
 4793 0eaf 03       		.byte	0x3
 4794 0eb0 23       		.byte	0x23
 4795 0eb1 F401     		.uleb128 0xf4
 4796 0eb3 06       		.uleb128 0x6
 4797 0eb4 A60C0000 		.4byte	.LASF242
 4798 0eb8 02       		.byte	0x2
 4799 0eb9 F302     		.2byte	0x2f3
 4800 0ebb 33000000 		.4byte	0x33
 4801 0ebf 03       		.byte	0x3
 4802 0ec0 23       		.byte	0x23
 4803 0ec1 F501     		.uleb128 0xf5
 4804 0ec3 06       		.uleb128 0x6
 4805 0ec4 B00C0000 		.4byte	.LASF243
 4806 0ec8 02       		.byte	0x2
 4807 0ec9 F402     		.2byte	0x2f4
ARM GAS  /tmp/ccjXaC2Q.s 			page 101


 4808 0ecb 33000000 		.4byte	0x33
 4809 0ecf 03       		.byte	0x3
 4810 0ed0 23       		.byte	0x23
 4811 0ed1 F601     		.uleb128 0xf6
 4812 0ed3 06       		.uleb128 0x6
 4813 0ed4 BA0C0000 		.4byte	.LASF244
 4814 0ed8 02       		.byte	0x2
 4815 0ed9 F502     		.2byte	0x2f5
 4816 0edb 33000000 		.4byte	0x33
 4817 0edf 03       		.byte	0x3
 4818 0ee0 23       		.byte	0x23
 4819 0ee1 F701     		.uleb128 0xf7
 4820 0ee3 06       		.uleb128 0x6
 4821 0ee4 C40C0000 		.4byte	.LASF245
 4822 0ee8 02       		.byte	0x2
 4823 0ee9 F602     		.2byte	0x2f6
 4824 0eeb 33000000 		.4byte	0x33
 4825 0eef 03       		.byte	0x3
 4826 0ef0 23       		.byte	0x23
 4827 0ef1 F801     		.uleb128 0xf8
 4828 0ef3 06       		.uleb128 0x6
 4829 0ef4 CE0C0000 		.4byte	.LASF246
 4830 0ef8 02       		.byte	0x2
 4831 0ef9 F702     		.2byte	0x2f7
 4832 0efb 33000000 		.4byte	0x33
 4833 0eff 03       		.byte	0x3
 4834 0f00 23       		.byte	0x23
 4835 0f01 F901     		.uleb128 0xf9
 4836 0f03 06       		.uleb128 0x6
 4837 0f04 6E120000 		.4byte	.LASF247
 4838 0f08 02       		.byte	0x2
 4839 0f09 F802     		.2byte	0x2f8
 4840 0f0b 33000000 		.4byte	0x33
 4841 0f0f 03       		.byte	0x3
 4842 0f10 23       		.byte	0x23
 4843 0f11 FA01     		.uleb128 0xfa
 4844 0f13 06       		.uleb128 0x6
 4845 0f14 96020000 		.4byte	.LASF248
 4846 0f18 02       		.byte	0x2
 4847 0f19 F902     		.2byte	0x2f9
 4848 0f1b 33000000 		.4byte	0x33
 4849 0f1f 03       		.byte	0x3
 4850 0f20 23       		.byte	0x23
 4851 0f21 FB01     		.uleb128 0xfb
 4852 0f23 06       		.uleb128 0x6
 4853 0f24 96120000 		.4byte	.LASF249
 4854 0f28 02       		.byte	0x2
 4855 0f29 FA02     		.2byte	0x2fa
 4856 0f2b 33000000 		.4byte	0x33
 4857 0f2f 03       		.byte	0x3
 4858 0f30 23       		.byte	0x23
 4859 0f31 FC01     		.uleb128 0xfc
 4860 0f33 06       		.uleb128 0x6
 4861 0f34 CF020000 		.4byte	.LASF250
 4862 0f38 02       		.byte	0x2
 4863 0f39 FB02     		.2byte	0x2fb
 4864 0f3b 33000000 		.4byte	0x33
ARM GAS  /tmp/ccjXaC2Q.s 			page 102


 4865 0f3f 03       		.byte	0x3
 4866 0f40 23       		.byte	0x23
 4867 0f41 FD01     		.uleb128 0xfd
 4868 0f43 06       		.uleb128 0x6
 4869 0f44 BE120000 		.4byte	.LASF251
 4870 0f48 02       		.byte	0x2
 4871 0f49 FC02     		.2byte	0x2fc
 4872 0f4b 33000000 		.4byte	0x33
 4873 0f4f 03       		.byte	0x3
 4874 0f50 23       		.byte	0x23
 4875 0f51 FE01     		.uleb128 0xfe
 4876 0f53 06       		.uleb128 0x6
 4877 0f54 8E0E0000 		.4byte	.LASF252
 4878 0f58 02       		.byte	0x2
 4879 0f59 FD02     		.2byte	0x2fd
 4880 0f5b 33000000 		.4byte	0x33
 4881 0f5f 03       		.byte	0x3
 4882 0f60 23       		.byte	0x23
 4883 0f61 FF01     		.uleb128 0xff
 4884 0f63 06       		.uleb128 0x6
 4885 0f64 2A140000 		.4byte	.LASF253
 4886 0f68 02       		.byte	0x2
 4887 0f69 FE02     		.2byte	0x2fe
 4888 0f6b 33000000 		.4byte	0x33
 4889 0f6f 03       		.byte	0x3
 4890 0f70 23       		.byte	0x23
 4891 0f71 8002     		.uleb128 0x100
 4892 0f73 06       		.uleb128 0x6
 4893 0f74 48140000 		.4byte	.LASF254
 4894 0f78 02       		.byte	0x2
 4895 0f79 FF02     		.2byte	0x2ff
 4896 0f7b 33000000 		.4byte	0x33
 4897 0f7f 03       		.byte	0x3
 4898 0f80 23       		.byte	0x23
 4899 0f81 8102     		.uleb128 0x101
 4900 0f83 06       		.uleb128 0x6
 4901 0f84 4E100000 		.4byte	.LASF255
 4902 0f88 02       		.byte	0x2
 4903 0f89 0003     		.2byte	0x300
 4904 0f8b 33000000 		.4byte	0x33
 4905 0f8f 03       		.byte	0x3
 4906 0f90 23       		.byte	0x23
 4907 0f91 8202     		.uleb128 0x102
 4908 0f93 06       		.uleb128 0x6
 4909 0f94 00000000 		.4byte	.LASF256
 4910 0f98 02       		.byte	0x2
 4911 0f99 0103     		.2byte	0x301
 4912 0f9b 33000000 		.4byte	0x33
 4913 0f9f 03       		.byte	0x3
 4914 0fa0 23       		.byte	0x23
 4915 0fa1 8302     		.uleb128 0x103
 4916 0fa3 06       		.uleb128 0x6
 4917 0fa4 5B110000 		.4byte	.LASF257
 4918 0fa8 02       		.byte	0x2
 4919 0fa9 0203     		.2byte	0x302
 4920 0fab 33000000 		.4byte	0x33
 4921 0faf 03       		.byte	0x3
ARM GAS  /tmp/ccjXaC2Q.s 			page 103


 4922 0fb0 23       		.byte	0x23
 4923 0fb1 8402     		.uleb128 0x104
 4924 0fb3 06       		.uleb128 0x6
 4925 0fb4 1E000000 		.4byte	.LASF258
 4926 0fb8 02       		.byte	0x2
 4927 0fb9 0303     		.2byte	0x303
 4928 0fbb 33000000 		.4byte	0x33
 4929 0fbf 03       		.byte	0x3
 4930 0fc0 23       		.byte	0x23
 4931 0fc1 8502     		.uleb128 0x105
 4932 0fc3 06       		.uleb128 0x6
 4933 0fc4 9E100000 		.4byte	.LASF259
 4934 0fc8 02       		.byte	0x2
 4935 0fc9 0403     		.2byte	0x304
 4936 0fcb 33000000 		.4byte	0x33
 4937 0fcf 03       		.byte	0x3
 4938 0fd0 23       		.byte	0x23
 4939 0fd1 8602     		.uleb128 0x106
 4940 0fd3 06       		.uleb128 0x6
 4941 0fd4 AD0B0000 		.4byte	.LASF260
 4942 0fd8 02       		.byte	0x2
 4943 0fd9 0503     		.2byte	0x305
 4944 0fdb 33000000 		.4byte	0x33
 4945 0fdf 03       		.byte	0x3
 4946 0fe0 23       		.byte	0x23
 4947 0fe1 8702     		.uleb128 0x107
 4948 0fe3 06       		.uleb128 0x6
 4949 0fe4 57000000 		.4byte	.LASF261
 4950 0fe8 02       		.byte	0x2
 4951 0fe9 0603     		.2byte	0x306
 4952 0feb 33000000 		.4byte	0x33
 4953 0fef 03       		.byte	0x3
 4954 0ff0 23       		.byte	0x23
 4955 0ff1 8802     		.uleb128 0x108
 4956 0ff3 06       		.uleb128 0x6
 4957 0ff4 B2100000 		.4byte	.LASF262
 4958 0ff8 02       		.byte	0x2
 4959 0ff9 0703     		.2byte	0x307
 4960 0ffb 33000000 		.4byte	0x33
 4961 0fff 03       		.byte	0x3
 4962 1000 23       		.byte	0x23
 4963 1001 8902     		.uleb128 0x109
 4964 1003 06       		.uleb128 0x6
 4965 1004 DC100000 		.4byte	.LASF263
 4966 1008 02       		.byte	0x2
 4967 1009 0803     		.2byte	0x308
 4968 100b 33000000 		.4byte	0x33
 4969 100f 03       		.byte	0x3
 4970 1010 23       		.byte	0x23
 4971 1011 8A02     		.uleb128 0x10a
 4972 1013 06       		.uleb128 0x6
 4973 1014 E6100000 		.4byte	.LASF264
 4974 1018 02       		.byte	0x2
 4975 1019 0903     		.2byte	0x309
 4976 101b 33000000 		.4byte	0x33
 4977 101f 03       		.byte	0x3
 4978 1020 23       		.byte	0x23
ARM GAS  /tmp/ccjXaC2Q.s 			page 104


 4979 1021 8B02     		.uleb128 0x10b
 4980 1023 06       		.uleb128 0x6
 4981 1024 350B0000 		.4byte	.LASF265
 4982 1028 02       		.byte	0x2
 4983 1029 0A03     		.2byte	0x30a
 4984 102b 33000000 		.4byte	0x33
 4985 102f 03       		.byte	0x3
 4986 1030 23       		.byte	0x23
 4987 1031 8C02     		.uleb128 0x10c
 4988 1033 06       		.uleb128 0x6
 4989 1034 110C0000 		.4byte	.LASF266
 4990 1038 02       		.byte	0x2
 4991 1039 0B03     		.2byte	0x30b
 4992 103b 33000000 		.4byte	0x33
 4993 103f 03       		.byte	0x3
 4994 1040 23       		.byte	0x23
 4995 1041 8D02     		.uleb128 0x10d
 4996 1043 06       		.uleb128 0x6
 4997 1044 1B0C0000 		.4byte	.LASF267
 4998 1048 02       		.byte	0x2
 4999 1049 0C03     		.2byte	0x30c
 5000 104b 33000000 		.4byte	0x33
 5001 104f 03       		.byte	0x3
 5002 1050 23       		.byte	0x23
 5003 1051 8E02     		.uleb128 0x10e
 5004 1053 06       		.uleb128 0x6
 5005 1054 250C0000 		.4byte	.LASF268
 5006 1058 02       		.byte	0x2
 5007 1059 0D03     		.2byte	0x30d
 5008 105b 33000000 		.4byte	0x33
 5009 105f 03       		.byte	0x3
 5010 1060 23       		.byte	0x23
 5011 1061 8F02     		.uleb128 0x10f
 5012 1063 06       		.uleb128 0x6
 5013 1064 CC080000 		.4byte	.LASF269
 5014 1068 02       		.byte	0x2
 5015 1069 0E03     		.2byte	0x30e
 5016 106b 33000000 		.4byte	0x33
 5017 106f 03       		.byte	0x3
 5018 1070 23       		.byte	0x23
 5019 1071 9002     		.uleb128 0x110
 5020 1073 06       		.uleb128 0x6
 5021 1074 E5120000 		.4byte	.LASF270
 5022 1078 02       		.byte	0x2
 5023 1079 0F03     		.2byte	0x30f
 5024 107b 33000000 		.4byte	0x33
 5025 107f 03       		.byte	0x3
 5026 1080 23       		.byte	0x23
 5027 1081 9102     		.uleb128 0x111
 5028 1083 06       		.uleb128 0x6
 5029 1084 EF120000 		.4byte	.LASF271
 5030 1088 02       		.byte	0x2
 5031 1089 1003     		.2byte	0x310
 5032 108b 33000000 		.4byte	0x33
 5033 108f 03       		.byte	0x3
 5034 1090 23       		.byte	0x23
 5035 1091 9202     		.uleb128 0x112
ARM GAS  /tmp/ccjXaC2Q.s 			page 105


 5036 1093 06       		.uleb128 0x6
 5037 1094 F9120000 		.4byte	.LASF272
 5038 1098 02       		.byte	0x2
 5039 1099 1103     		.2byte	0x311
 5040 109b 33000000 		.4byte	0x33
 5041 109f 03       		.byte	0x3
 5042 10a0 23       		.byte	0x23
 5043 10a1 9302     		.uleb128 0x113
 5044 10a3 06       		.uleb128 0x6
 5045 10a4 03130000 		.4byte	.LASF273
 5046 10a8 02       		.byte	0x2
 5047 10a9 1203     		.2byte	0x312
 5048 10ab 33000000 		.4byte	0x33
 5049 10af 03       		.byte	0x3
 5050 10b0 23       		.byte	0x23
 5051 10b1 9402     		.uleb128 0x114
 5052 10b3 06       		.uleb128 0x6
 5053 10b4 17130000 		.4byte	.LASF274
 5054 10b8 02       		.byte	0x2
 5055 10b9 1303     		.2byte	0x313
 5056 10bb 33000000 		.4byte	0x33
 5057 10bf 03       		.byte	0x3
 5058 10c0 23       		.byte	0x23
 5059 10c1 9502     		.uleb128 0x115
 5060 10c3 06       		.uleb128 0x6
 5061 10c4 BE030000 		.4byte	.LASF275
 5062 10c8 02       		.byte	0x2
 5063 10c9 1403     		.2byte	0x314
 5064 10cb 33000000 		.4byte	0x33
 5065 10cf 03       		.byte	0x3
 5066 10d0 23       		.byte	0x23
 5067 10d1 9602     		.uleb128 0x116
 5068 10d3 06       		.uleb128 0x6
 5069 10d4 3F130000 		.4byte	.LASF276
 5070 10d8 02       		.byte	0x2
 5071 10d9 1503     		.2byte	0x315
 5072 10db 33000000 		.4byte	0x33
 5073 10df 03       		.byte	0x3
 5074 10e0 23       		.byte	0x23
 5075 10e1 9702     		.uleb128 0x117
 5076 10e3 06       		.uleb128 0x6
 5077 10e4 620D0000 		.4byte	.LASF277
 5078 10e8 02       		.byte	0x2
 5079 10e9 1603     		.2byte	0x316
 5080 10eb 33000000 		.4byte	0x33
 5081 10ef 03       		.byte	0x3
 5082 10f0 23       		.byte	0x23
 5083 10f1 9802     		.uleb128 0x118
 5084 10f3 06       		.uleb128 0x6
 5085 10f4 49130000 		.4byte	.LASF278
 5086 10f8 02       		.byte	0x2
 5087 10f9 1703     		.2byte	0x317
 5088 10fb 33000000 		.4byte	0x33
 5089 10ff 03       		.byte	0x3
 5090 1100 23       		.byte	0x23
 5091 1101 9902     		.uleb128 0x119
 5092 1103 06       		.uleb128 0x6
ARM GAS  /tmp/ccjXaC2Q.s 			page 106


 5093 1104 6A130000 		.4byte	.LASF279
 5094 1108 02       		.byte	0x2
 5095 1109 1803     		.2byte	0x318
 5096 110b 33000000 		.4byte	0x33
 5097 110f 03       		.byte	0x3
 5098 1110 23       		.byte	0x23
 5099 1111 9A02     		.uleb128 0x11a
 5100 1113 06       		.uleb128 0x6
 5101 1114 74130000 		.4byte	.LASF280
 5102 1118 02       		.byte	0x2
 5103 1119 1903     		.2byte	0x319
 5104 111b 33000000 		.4byte	0x33
 5105 111f 03       		.byte	0x3
 5106 1120 23       		.byte	0x23
 5107 1121 9B02     		.uleb128 0x11b
 5108 1123 06       		.uleb128 0x6
 5109 1124 7E130000 		.4byte	.LASF281
 5110 1128 02       		.byte	0x2
 5111 1129 1A03     		.2byte	0x31a
 5112 112b 33000000 		.4byte	0x33
 5113 112f 03       		.byte	0x3
 5114 1130 23       		.byte	0x23
 5115 1131 9C02     		.uleb128 0x11c
 5116 1133 06       		.uleb128 0x6
 5117 1134 B20D0000 		.4byte	.LASF282
 5118 1138 02       		.byte	0x2
 5119 1139 1B03     		.2byte	0x31b
 5120 113b 33000000 		.4byte	0x33
 5121 113f 03       		.byte	0x3
 5122 1140 23       		.byte	0x23
 5123 1141 9D02     		.uleb128 0x11d
 5124 1143 06       		.uleb128 0x6
 5125 1144 BC0D0000 		.4byte	.LASF283
 5126 1148 02       		.byte	0x2
 5127 1149 1C03     		.2byte	0x31c
 5128 114b 33000000 		.4byte	0x33
 5129 114f 03       		.byte	0x3
 5130 1150 23       		.byte	0x23
 5131 1151 9E02     		.uleb128 0x11e
 5132 1153 06       		.uleb128 0x6
 5133 1154 C60D0000 		.4byte	.LASF284
 5134 1158 02       		.byte	0x2
 5135 1159 1D03     		.2byte	0x31d
 5136 115b 33000000 		.4byte	0x33
 5137 115f 03       		.byte	0x3
 5138 1160 23       		.byte	0x23
 5139 1161 9F02     		.uleb128 0x11f
 5140 1163 06       		.uleb128 0x6
 5141 1164 D1000000 		.4byte	.LASF285
 5142 1168 02       		.byte	0x2
 5143 1169 1E03     		.2byte	0x31e
 5144 116b 33000000 		.4byte	0x33
 5145 116f 03       		.byte	0x3
 5146 1170 23       		.byte	0x23
 5147 1171 A002     		.uleb128 0x120
 5148 1173 06       		.uleb128 0x6
 5149 1174 340E0000 		.4byte	.LASF286
ARM GAS  /tmp/ccjXaC2Q.s 			page 107


 5150 1178 02       		.byte	0x2
 5151 1179 1F03     		.2byte	0x31f
 5152 117b 33000000 		.4byte	0x33
 5153 117f 03       		.byte	0x3
 5154 1180 23       		.byte	0x23
 5155 1181 A102     		.uleb128 0x121
 5156 1183 06       		.uleb128 0x6
 5157 1184 EE000000 		.4byte	.LASF287
 5158 1188 02       		.byte	0x2
 5159 1189 2003     		.2byte	0x320
 5160 118b 33000000 		.4byte	0x33
 5161 118f 03       		.byte	0x3
 5162 1190 23       		.byte	0x23
 5163 1191 A202     		.uleb128 0x122
 5164 1193 06       		.uleb128 0x6
 5165 1194 480E0000 		.4byte	.LASF288
 5166 1198 02       		.byte	0x2
 5167 1199 2103     		.2byte	0x321
 5168 119b 33000000 		.4byte	0x33
 5169 119f 03       		.byte	0x3
 5170 11a0 23       		.byte	0x23
 5171 11a1 A302     		.uleb128 0x123
 5172 11a3 06       		.uleb128 0x6
 5173 11a4 520E0000 		.4byte	.LASF289
 5174 11a8 02       		.byte	0x2
 5175 11a9 2203     		.2byte	0x322
 5176 11ab 33000000 		.4byte	0x33
 5177 11af 03       		.byte	0x3
 5178 11b0 23       		.byte	0x23
 5179 11b1 A402     		.uleb128 0x124
 5180 11b3 06       		.uleb128 0x6
 5181 11b4 5C0E0000 		.4byte	.LASF290
 5182 11b8 02       		.byte	0x2
 5183 11b9 2303     		.2byte	0x323
 5184 11bb 33000000 		.4byte	0x33
 5185 11bf 03       		.byte	0x3
 5186 11c0 23       		.byte	0x23
 5187 11c1 A502     		.uleb128 0x125
 5188 11c3 06       		.uleb128 0x6
 5189 11c4 660E0000 		.4byte	.LASF291
 5190 11c8 02       		.byte	0x2
 5191 11c9 2403     		.2byte	0x324
 5192 11cb 33000000 		.4byte	0x33
 5193 11cf 03       		.byte	0x3
 5194 11d0 23       		.byte	0x23
 5195 11d1 A602     		.uleb128 0x126
 5196 11d3 06       		.uleb128 0x6
 5197 11d4 34010000 		.4byte	.LASF292
 5198 11d8 02       		.byte	0x2
 5199 11d9 2503     		.2byte	0x325
 5200 11db 33000000 		.4byte	0x33
 5201 11df 03       		.byte	0x3
 5202 11e0 23       		.byte	0x23
 5203 11e1 A702     		.uleb128 0x127
 5204 11e3 06       		.uleb128 0x6
 5205 11e4 7A0E0000 		.4byte	.LASF293
 5206 11e8 02       		.byte	0x2
ARM GAS  /tmp/ccjXaC2Q.s 			page 108


 5207 11e9 2603     		.2byte	0x326
 5208 11eb 33000000 		.4byte	0x33
 5209 11ef 03       		.byte	0x3
 5210 11f0 23       		.byte	0x23
 5211 11f1 A802     		.uleb128 0x128
 5212 11f3 06       		.uleb128 0x6
 5213 11f4 840E0000 		.4byte	.LASF294
 5214 11f8 02       		.byte	0x2
 5215 11f9 2703     		.2byte	0x327
 5216 11fb 33000000 		.4byte	0x33
 5217 11ff 03       		.byte	0x3
 5218 1200 23       		.byte	0x23
 5219 1201 A902     		.uleb128 0x129
 5220 1203 06       		.uleb128 0x6
 5221 1204 6E010000 		.4byte	.LASF295
 5222 1208 02       		.byte	0x2
 5223 1209 2803     		.2byte	0x328
 5224 120b 33000000 		.4byte	0x33
 5225 120f 03       		.byte	0x3
 5226 1210 23       		.byte	0x23
 5227 1211 AA02     		.uleb128 0x12a
 5228 1213 06       		.uleb128 0x6
 5229 1214 78010000 		.4byte	.LASF296
 5230 1218 02       		.byte	0x2
 5231 1219 2903     		.2byte	0x329
 5232 121b 33000000 		.4byte	0x33
 5233 121f 03       		.byte	0x3
 5234 1220 23       		.byte	0x23
 5235 1221 AB02     		.uleb128 0x12b
 5236 1223 06       		.uleb128 0x6
 5237 1224 48080000 		.4byte	.LASF297
 5238 1228 02       		.byte	0x2
 5239 1229 2A03     		.2byte	0x32a
 5240 122b 33000000 		.4byte	0x33
 5241 122f 03       		.byte	0x3
 5242 1230 23       		.byte	0x23
 5243 1231 AC02     		.uleb128 0x12c
 5244 1233 06       		.uleb128 0x6
 5245 1234 B60E0000 		.4byte	.LASF298
 5246 1238 02       		.byte	0x2
 5247 1239 2B03     		.2byte	0x32b
 5248 123b 33000000 		.4byte	0x33
 5249 123f 03       		.byte	0x3
 5250 1240 23       		.byte	0x23
 5251 1241 AD02     		.uleb128 0x12d
 5252 1243 06       		.uleb128 0x6
 5253 1244 C00E0000 		.4byte	.LASF299
 5254 1248 02       		.byte	0x2
 5255 1249 2C03     		.2byte	0x32c
 5256 124b 33000000 		.4byte	0x33
 5257 124f 03       		.byte	0x3
 5258 1250 23       		.byte	0x23
 5259 1251 AE02     		.uleb128 0x12e
 5260 1253 06       		.uleb128 0x6
 5261 1254 CA0E0000 		.4byte	.LASF300
 5262 1258 02       		.byte	0x2
 5263 1259 2D03     		.2byte	0x32d
ARM GAS  /tmp/ccjXaC2Q.s 			page 109


 5264 125b 33000000 		.4byte	0x33
 5265 125f 03       		.byte	0x3
 5266 1260 23       		.byte	0x23
 5267 1261 AF02     		.uleb128 0x12f
 5268 1263 06       		.uleb128 0x6
 5269 1264 03140000 		.4byte	.LASF301
 5270 1268 02       		.byte	0x2
 5271 1269 2E03     		.2byte	0x32e
 5272 126b 33000000 		.4byte	0x33
 5273 126f 03       		.byte	0x3
 5274 1270 23       		.byte	0x23
 5275 1271 B002     		.uleb128 0x130
 5276 1273 06       		.uleb128 0x6
 5277 1274 D9020000 		.4byte	.LASF302
 5278 1278 02       		.byte	0x2
 5279 1279 2F03     		.2byte	0x32f
 5280 127b 33000000 		.4byte	0x33
 5281 127f 03       		.byte	0x3
 5282 1280 23       		.byte	0x23
 5283 1281 B102     		.uleb128 0x131
 5284 1283 06       		.uleb128 0x6
 5285 1284 ED020000 		.4byte	.LASF303
 5286 1288 02       		.byte	0x2
 5287 1289 3003     		.2byte	0x330
 5288 128b 33000000 		.4byte	0x33
 5289 128f 03       		.byte	0x3
 5290 1290 23       		.byte	0x23
 5291 1291 B202     		.uleb128 0x132
 5292 1293 06       		.uleb128 0x6
 5293 1294 CB0B0000 		.4byte	.LASF304
 5294 1298 02       		.byte	0x2
 5295 1299 3103     		.2byte	0x331
 5296 129b 33000000 		.4byte	0x33
 5297 129f 03       		.byte	0x3
 5298 12a0 23       		.byte	0x23
 5299 12a1 B302     		.uleb128 0x133
 5300 12a3 06       		.uleb128 0x6
 5301 12a4 15030000 		.4byte	.LASF305
 5302 12a8 02       		.byte	0x2
 5303 12a9 3203     		.2byte	0x332
 5304 12ab 33000000 		.4byte	0x33
 5305 12af 03       		.byte	0x3
 5306 12b0 23       		.byte	0x23
 5307 12b1 B402     		.uleb128 0x134
 5308 12b3 06       		.uleb128 0x6
 5309 12b4 14000000 		.4byte	.LASF306
 5310 12b8 02       		.byte	0x2
 5311 12b9 3303     		.2byte	0x333
 5312 12bb 33000000 		.4byte	0x33
 5313 12bf 03       		.byte	0x3
 5314 12c0 23       		.byte	0x23
 5315 12c1 B502     		.uleb128 0x135
 5316 12c3 06       		.uleb128 0x6
 5317 12c4 39000000 		.4byte	.LASF307
 5318 12c8 02       		.byte	0x2
 5319 12c9 3403     		.2byte	0x334
 5320 12cb 33000000 		.4byte	0x33
ARM GAS  /tmp/ccjXaC2Q.s 			page 110


 5321 12cf 03       		.byte	0x3
 5322 12d0 23       		.byte	0x23
 5323 12d1 B602     		.uleb128 0x136
 5324 12d3 06       		.uleb128 0x6
 5325 12d4 51030000 		.4byte	.LASF308
 5326 12d8 02       		.byte	0x2
 5327 12d9 3503     		.2byte	0x335
 5328 12db 33000000 		.4byte	0x33
 5329 12df 03       		.byte	0x3
 5330 12e0 23       		.byte	0x23
 5331 12e1 B702     		.uleb128 0x137
 5332 12e3 06       		.uleb128 0x6
 5333 12e4 1E100000 		.4byte	.LASF309
 5334 12e8 02       		.byte	0x2
 5335 12e9 3603     		.2byte	0x336
 5336 12eb 33000000 		.4byte	0x33
 5337 12ef 03       		.byte	0x3
 5338 12f0 23       		.byte	0x23
 5339 12f1 B802     		.uleb128 0x138
 5340 12f3 06       		.uleb128 0x6
 5341 12f4 6E030000 		.4byte	.LASF310
 5342 12f8 02       		.byte	0x2
 5343 12f9 3703     		.2byte	0x337
 5344 12fb 33000000 		.4byte	0x33
 5345 12ff 03       		.byte	0x3
 5346 1300 23       		.byte	0x23
 5347 1301 B902     		.uleb128 0x139
 5348 1303 06       		.uleb128 0x6
 5349 1304 CD030000 		.4byte	.LASF311
 5350 1308 02       		.byte	0x2
 5351 1309 3803     		.2byte	0x338
 5352 130b 33000000 		.4byte	0x33
 5353 130f 03       		.byte	0x3
 5354 1310 23       		.byte	0x23
 5355 1311 BA02     		.uleb128 0x13a
 5356 1313 06       		.uleb128 0x6
 5357 1314 D7030000 		.4byte	.LASF312
 5358 1318 02       		.byte	0x2
 5359 1319 3903     		.2byte	0x339
 5360 131b 33000000 		.4byte	0x33
 5361 131f 03       		.byte	0x3
 5362 1320 23       		.byte	0x23
 5363 1321 BB02     		.uleb128 0x13b
 5364 1323 06       		.uleb128 0x6
 5365 1324 E1030000 		.4byte	.LASF313
 5366 1328 02       		.byte	0x2
 5367 1329 3A03     		.2byte	0x33a
 5368 132b 33000000 		.4byte	0x33
 5369 132f 03       		.byte	0x3
 5370 1330 23       		.byte	0x23
 5371 1331 BC02     		.uleb128 0x13c
 5372 1333 06       		.uleb128 0x6
 5373 1334 94100000 		.4byte	.LASF314
 5374 1338 02       		.byte	0x2
 5375 1339 3B03     		.2byte	0x33b
 5376 133b 33000000 		.4byte	0x33
 5377 133f 03       		.byte	0x3
ARM GAS  /tmp/ccjXaC2Q.s 			page 111


 5378 1340 23       		.byte	0x23
 5379 1341 BD02     		.uleb128 0x13d
 5380 1343 06       		.uleb128 0x6
 5381 1344 EB030000 		.4byte	.LASF315
 5382 1348 02       		.byte	0x2
 5383 1349 3C03     		.2byte	0x33c
 5384 134b 33000000 		.4byte	0x33
 5385 134f 03       		.byte	0x3
 5386 1350 23       		.byte	0x23
 5387 1351 BE02     		.uleb128 0x13e
 5388 1353 06       		.uleb128 0x6
 5389 1354 A8100000 		.4byte	.LASF316
 5390 1358 02       		.byte	0x2
 5391 1359 3D03     		.2byte	0x33d
 5392 135b 33000000 		.4byte	0x33
 5393 135f 03       		.byte	0x3
 5394 1360 23       		.byte	0x23
 5395 1361 BF02     		.uleb128 0x13f
 5396 1363 06       		.uleb128 0x6
 5397 1364 C8020000 		.4byte	.LASF317
 5398 1368 02       		.byte	0x2
 5399 1369 3E03     		.2byte	0x33e
 5400 136b 33000000 		.4byte	0x33
 5401 136f 03       		.byte	0x3
 5402 1370 23       		.byte	0x23
 5403 1371 C002     		.uleb128 0x140
 5404 1373 06       		.uleb128 0x6
 5405 1374 A2050000 		.4byte	.LASF318
 5406 1378 02       		.byte	0x2
 5407 1379 3F03     		.2byte	0x33f
 5408 137b 33000000 		.4byte	0x33
 5409 137f 03       		.byte	0x3
 5410 1380 23       		.byte	0x23
 5411 1381 C102     		.uleb128 0x141
 5412 1383 06       		.uleb128 0x6
 5413 1384 63110000 		.4byte	.LASF319
 5414 1388 02       		.byte	0x2
 5415 1389 4003     		.2byte	0x340
 5416 138b 33000000 		.4byte	0x33
 5417 138f 03       		.byte	0x3
 5418 1390 23       		.byte	0x23
 5419 1391 C202     		.uleb128 0x142
 5420 1393 06       		.uleb128 0x6
 5421 1394 6D110000 		.4byte	.LASF320
 5422 1398 02       		.byte	0x2
 5423 1399 4103     		.2byte	0x341
 5424 139b 33000000 		.4byte	0x33
 5425 139f 03       		.byte	0x3
 5426 13a0 23       		.byte	0x23
 5427 13a1 C302     		.uleb128 0x143
 5428 13a3 06       		.uleb128 0x6
 5429 13a4 89010000 		.4byte	.LASF321
 5430 13a8 02       		.byte	0x2
 5431 13a9 4203     		.2byte	0x342
 5432 13ab 46000000 		.4byte	0x46
 5433 13af 03       		.byte	0x3
 5434 13b0 23       		.byte	0x23
ARM GAS  /tmp/ccjXaC2Q.s 			page 112


 5435 13b1 C402     		.uleb128 0x144
 5436 13b3 06       		.uleb128 0x6
 5437 13b4 80110000 		.4byte	.LASF322
 5438 13b8 02       		.byte	0x2
 5439 13b9 4303     		.2byte	0x343
 5440 13bb 33000000 		.4byte	0x33
 5441 13bf 03       		.byte	0x3
 5442 13c0 23       		.byte	0x23
 5443 13c1 C602     		.uleb128 0x146
 5444 13c3 06       		.uleb128 0x6
 5445 13c4 8A110000 		.4byte	.LASF323
 5446 13c8 02       		.byte	0x2
 5447 13c9 4403     		.2byte	0x344
 5448 13cb 33000000 		.4byte	0x33
 5449 13cf 03       		.byte	0x3
 5450 13d0 23       		.byte	0x23
 5451 13d1 C702     		.uleb128 0x147
 5452 13d3 06       		.uleb128 0x6
 5453 13d4 F5030000 		.4byte	.LASF324
 5454 13d8 02       		.byte	0x2
 5455 13d9 4503     		.2byte	0x345
 5456 13db 33000000 		.4byte	0x33
 5457 13df 03       		.byte	0x3
 5458 13e0 23       		.byte	0x23
 5459 13e1 C802     		.uleb128 0x148
 5460 13e3 06       		.uleb128 0x6
 5461 13e4 94110000 		.4byte	.LASF325
 5462 13e8 02       		.byte	0x2
 5463 13e9 4603     		.2byte	0x346
 5464 13eb 33000000 		.4byte	0x33
 5465 13ef 03       		.byte	0x3
 5466 13f0 23       		.byte	0x23
 5467 13f1 C902     		.uleb128 0x149
 5468 13f3 06       		.uleb128 0x6
 5469 13f4 A8110000 		.4byte	.LASF326
 5470 13f8 02       		.byte	0x2
 5471 13f9 4703     		.2byte	0x347
 5472 13fb 33000000 		.4byte	0x33
 5473 13ff 03       		.byte	0x3
 5474 1400 23       		.byte	0x23
 5475 1401 CA02     		.uleb128 0x14a
 5476 1403 06       		.uleb128 0x6
 5477 1404 B2110000 		.4byte	.LASF327
 5478 1408 02       		.byte	0x2
 5479 1409 4803     		.2byte	0x348
 5480 140b 33000000 		.4byte	0x33
 5481 140f 03       		.byte	0x3
 5482 1410 23       		.byte	0x23
 5483 1411 CB02     		.uleb128 0x14b
 5484 1413 06       		.uleb128 0x6
 5485 1414 0D0E0000 		.4byte	.LASF328
 5486 1418 02       		.byte	0x2
 5487 1419 4903     		.2byte	0x349
 5488 141b 33000000 		.4byte	0x33
 5489 141f 03       		.byte	0x3
 5490 1420 23       		.byte	0x23
 5491 1421 CC02     		.uleb128 0x14c
ARM GAS  /tmp/ccjXaC2Q.s 			page 113


 5492 1423 06       		.uleb128 0x6
 5493 1424 BC110000 		.4byte	.LASF329
 5494 1428 02       		.byte	0x2
 5495 1429 4A03     		.2byte	0x34a
 5496 142b 33000000 		.4byte	0x33
 5497 142f 03       		.byte	0x3
 5498 1430 23       		.byte	0x23
 5499 1431 CD02     		.uleb128 0x14d
 5500 1433 06       		.uleb128 0x6
 5501 1434 C6110000 		.4byte	.LASF330
 5502 1438 02       		.byte	0x2
 5503 1439 4B03     		.2byte	0x34b
 5504 143b 33000000 		.4byte	0x33
 5505 143f 03       		.byte	0x3
 5506 1440 23       		.byte	0x23
 5507 1441 CE02     		.uleb128 0x14e
 5508 1443 06       		.uleb128 0x6
 5509 1444 D0110000 		.4byte	.LASF331
 5510 1448 02       		.byte	0x2
 5511 1449 4C03     		.2byte	0x34c
 5512 144b 33000000 		.4byte	0x33
 5513 144f 03       		.byte	0x3
 5514 1450 23       		.byte	0x23
 5515 1451 CF02     		.uleb128 0x14f
 5516 1453 06       		.uleb128 0x6
 5517 1454 78120000 		.4byte	.LASF332
 5518 1458 02       		.byte	0x2
 5519 1459 4D03     		.2byte	0x34d
 5520 145b 33000000 		.4byte	0x33
 5521 145f 03       		.byte	0x3
 5522 1460 23       		.byte	0x23
 5523 1461 D002     		.uleb128 0x150
 5524 1463 06       		.uleb128 0x6
 5525 1464 52080000 		.4byte	.LASF333
 5526 1468 02       		.byte	0x2
 5527 1469 4E03     		.2byte	0x34e
 5528 146b 33000000 		.4byte	0x33
 5529 146f 03       		.byte	0x3
 5530 1470 23       		.byte	0x23
 5531 1471 D102     		.uleb128 0x151
 5532 1473 06       		.uleb128 0x6
 5533 1474 8C120000 		.4byte	.LASF334
 5534 1478 02       		.byte	0x2
 5535 1479 4F03     		.2byte	0x34f
 5536 147b 33000000 		.4byte	0x33
 5537 147f 03       		.byte	0x3
 5538 1480 23       		.byte	0x23
 5539 1481 D202     		.uleb128 0x152
 5540 1483 06       		.uleb128 0x6
 5541 1484 0C010000 		.4byte	.LASF335
 5542 1488 02       		.byte	0x2
 5543 1489 5003     		.2byte	0x350
 5544 148b 33000000 		.4byte	0x33
 5545 148f 03       		.byte	0x3
 5546 1490 23       		.byte	0x23
 5547 1491 D302     		.uleb128 0x153
 5548 1493 06       		.uleb128 0x6
ARM GAS  /tmp/ccjXaC2Q.s 			page 114


 5549 1494 A0120000 		.4byte	.LASF336
 5550 1498 02       		.byte	0x2
 5551 1499 5103     		.2byte	0x351
 5552 149b 33000000 		.4byte	0x33
 5553 149f 03       		.byte	0x3
 5554 14a0 23       		.byte	0x23
 5555 14a1 D402     		.uleb128 0x154
 5556 14a3 06       		.uleb128 0x6
 5557 14a4 20140000 		.4byte	.LASF337
 5558 14a8 02       		.byte	0x2
 5559 14a9 5203     		.2byte	0x352
 5560 14ab 33000000 		.4byte	0x33
 5561 14af 03       		.byte	0x3
 5562 14b0 23       		.byte	0x23
 5563 14b1 D502     		.uleb128 0x155
 5564 14b3 06       		.uleb128 0x6
 5565 14b4 B4120000 		.4byte	.LASF338
 5566 14b8 02       		.byte	0x2
 5567 14b9 5303     		.2byte	0x353
 5568 14bb 33000000 		.4byte	0x33
 5569 14bf 03       		.byte	0x3
 5570 14c0 23       		.byte	0x23
 5571 14c1 D602     		.uleb128 0x156
 5572 14c3 06       		.uleb128 0x6
 5573 14c4 B4080000 		.4byte	.LASF339
 5574 14c8 02       		.byte	0x2
 5575 14c9 5403     		.2byte	0x354
 5576 14cb 33000000 		.4byte	0x33
 5577 14cf 03       		.byte	0x3
 5578 14d0 23       		.byte	0x23
 5579 14d1 D702     		.uleb128 0x157
 5580 14d3 06       		.uleb128 0x6
 5581 14d4 C8120000 		.4byte	.LASF340
 5582 14d8 02       		.byte	0x2
 5583 14d9 5503     		.2byte	0x355
 5584 14db 33000000 		.4byte	0x33
 5585 14df 03       		.byte	0x3
 5586 14e0 23       		.byte	0x23
 5587 14e1 D802     		.uleb128 0x158
 5588 14e3 06       		.uleb128 0x6
 5589 14e4 0A000000 		.4byte	.LASF341
 5590 14e8 02       		.byte	0x2
 5591 14e9 5603     		.2byte	0x356
 5592 14eb 33000000 		.4byte	0x33
 5593 14ef 03       		.byte	0x3
 5594 14f0 23       		.byte	0x23
 5595 14f1 D902     		.uleb128 0x159
 5596 14f3 06       		.uleb128 0x6
 5597 14f4 25090000 		.4byte	.LASF342
 5598 14f8 02       		.byte	0x2
 5599 14f9 5703     		.2byte	0x357
 5600 14fb 33000000 		.4byte	0x33
 5601 14ff 03       		.byte	0x3
 5602 1500 23       		.byte	0x23
 5603 1501 DA02     		.uleb128 0x15a
 5604 1503 06       		.uleb128 0x6
 5605 1504 0D130000 		.4byte	.LASF343
ARM GAS  /tmp/ccjXaC2Q.s 			page 115


 5606 1508 02       		.byte	0x2
 5607 1509 5803     		.2byte	0x358
 5608 150b 33000000 		.4byte	0x33
 5609 150f 03       		.byte	0x3
 5610 1510 23       		.byte	0x23
 5611 1511 DB02     		.uleb128 0x15b
 5612 1513 06       		.uleb128 0x6
 5613 1514 2F090000 		.4byte	.LASF344
 5614 1518 02       		.byte	0x2
 5615 1519 5903     		.2byte	0x359
 5616 151b 33000000 		.4byte	0x33
 5617 151f 03       		.byte	0x3
 5618 1520 23       		.byte	0x23
 5619 1521 DC02     		.uleb128 0x15c
 5620 1523 06       		.uleb128 0x6
 5621 1524 21130000 		.4byte	.LASF345
 5622 1528 02       		.byte	0x2
 5623 1529 5A03     		.2byte	0x35a
 5624 152b 33000000 		.4byte	0x33
 5625 152f 03       		.byte	0x3
 5626 1530 23       		.byte	0x23
 5627 1531 DD02     		.uleb128 0x15d
 5628 1533 06       		.uleb128 0x6
 5629 1534 49090000 		.4byte	.LASF346
 5630 1538 02       		.byte	0x2
 5631 1539 5B03     		.2byte	0x35b
 5632 153b 33000000 		.4byte	0x33
 5633 153f 03       		.byte	0x3
 5634 1540 23       		.byte	0x23
 5635 1541 DE02     		.uleb128 0x15e
 5636 1543 06       		.uleb128 0x6
 5637 1544 35130000 		.4byte	.LASF347
 5638 1548 02       		.byte	0x2
 5639 1549 5C03     		.2byte	0x35c
 5640 154b 33000000 		.4byte	0x33
 5641 154f 03       		.byte	0x3
 5642 1550 23       		.byte	0x23
 5643 1551 DF02     		.uleb128 0x15f
 5644 1553 06       		.uleb128 0x6
 5645 1554 3F0B0000 		.4byte	.LASF348
 5646 1558 02       		.byte	0x2
 5647 1559 5D03     		.2byte	0x35d
 5648 155b 33000000 		.4byte	0x33
 5649 155f 03       		.byte	0x3
 5650 1560 23       		.byte	0x23
 5651 1561 E002     		.uleb128 0x160
 5652 1563 06       		.uleb128 0x6
 5653 1564 A9130000 		.4byte	.LASF349
 5654 1568 02       		.byte	0x2
 5655 1569 5E03     		.2byte	0x35e
 5656 156b 33000000 		.4byte	0x33
 5657 156f 03       		.byte	0x3
 5658 1570 23       		.byte	0x23
 5659 1571 E102     		.uleb128 0x161
 5660 1573 06       		.uleb128 0x6
 5661 1574 B3130000 		.4byte	.LASF350
 5662 1578 02       		.byte	0x2
ARM GAS  /tmp/ccjXaC2Q.s 			page 116


 5663 1579 5F03     		.2byte	0x35f
 5664 157b 33000000 		.4byte	0x33
 5665 157f 03       		.byte	0x3
 5666 1580 23       		.byte	0x23
 5667 1581 E202     		.uleb128 0x162
 5668 1583 06       		.uleb128 0x6
 5669 1584 2F0C0000 		.4byte	.LASF351
 5670 1588 02       		.byte	0x2
 5671 1589 6003     		.2byte	0x360
 5672 158b 33000000 		.4byte	0x33
 5673 158f 03       		.byte	0x3
 5674 1590 23       		.byte	0x23
 5675 1591 E302     		.uleb128 0x163
 5676 1593 06       		.uleb128 0x6
 5677 1594 C7130000 		.4byte	.LASF352
 5678 1598 02       		.byte	0x2
 5679 1599 6103     		.2byte	0x361
 5680 159b 33000000 		.4byte	0x33
 5681 159f 03       		.byte	0x3
 5682 15a0 23       		.byte	0x23
 5683 15a1 E402     		.uleb128 0x164
 5684 15a3 06       		.uleb128 0x6
 5685 15a4 D1130000 		.4byte	.LASF353
 5686 15a8 02       		.byte	0x2
 5687 15a9 6203     		.2byte	0x362
 5688 15ab 33000000 		.4byte	0x33
 5689 15af 03       		.byte	0x3
 5690 15b0 23       		.byte	0x23
 5691 15b1 E502     		.uleb128 0x165
 5692 15b3 06       		.uleb128 0x6
 5693 15b4 4D0C0000 		.4byte	.LASF354
 5694 15b8 02       		.byte	0x2
 5695 15b9 6303     		.2byte	0x363
 5696 15bb 33000000 		.4byte	0x33
 5697 15bf 03       		.byte	0x3
 5698 15c0 23       		.byte	0x23
 5699 15c1 E602     		.uleb128 0x166
 5700 15c3 06       		.uleb128 0x6
 5701 15c4 E5130000 		.4byte	.LASF355
 5702 15c8 02       		.byte	0x2
 5703 15c9 6403     		.2byte	0x364
 5704 15cb 33000000 		.4byte	0x33
 5705 15cf 03       		.byte	0x3
 5706 15d0 23       		.byte	0x23
 5707 15d1 E702     		.uleb128 0x167
 5708 15d3 06       		.uleb128 0x6
 5709 15d4 EF130000 		.4byte	.LASF356
 5710 15d8 02       		.byte	0x2
 5711 15d9 6503     		.2byte	0x365
 5712 15db 33000000 		.4byte	0x33
 5713 15df 03       		.byte	0x3
 5714 15e0 23       		.byte	0x23
 5715 15e1 E802     		.uleb128 0x168
 5716 15e3 06       		.uleb128 0x6
 5717 15e4 78030000 		.4byte	.LASF357
 5718 15e8 02       		.byte	0x2
 5719 15e9 6603     		.2byte	0x366
ARM GAS  /tmp/ccjXaC2Q.s 			page 117


 5720 15eb 33000000 		.4byte	0x33
 5721 15ef 03       		.byte	0x3
 5722 15f0 23       		.byte	0x23
 5723 15f1 E902     		.uleb128 0x169
 5724 15f3 06       		.uleb128 0x6
 5725 15f4 390C0000 		.4byte	.LASF358
 5726 15f8 02       		.byte	0x2
 5727 15f9 6703     		.2byte	0x367
 5728 15fb 33000000 		.4byte	0x33
 5729 15ff 03       		.byte	0x3
 5730 1600 23       		.byte	0x23
 5731 1601 EA02     		.uleb128 0x16a
 5732 1603 06       		.uleb128 0x6
 5733 1604 430C0000 		.4byte	.LASF359
 5734 1608 02       		.byte	0x2
 5735 1609 6803     		.2byte	0x368
 5736 160b 33000000 		.4byte	0x33
 5737 160f 03       		.byte	0x3
 5738 1610 23       		.byte	0x23
 5739 1611 EB02     		.uleb128 0x16b
 5740 1613 06       		.uleb128 0x6
 5741 1614 34140000 		.4byte	.LASF360
 5742 1618 02       		.byte	0x2
 5743 1619 6903     		.2byte	0x369
 5744 161b 33000000 		.4byte	0x33
 5745 161f 03       		.byte	0x3
 5746 1620 23       		.byte	0x23
 5747 1621 EC02     		.uleb128 0x16c
 5748 1623 06       		.uleb128 0x6
 5749 1624 3E140000 		.4byte	.LASF361
 5750 1628 02       		.byte	0x2
 5751 1629 6A03     		.2byte	0x36a
 5752 162b 33000000 		.4byte	0x33
 5753 162f 03       		.byte	0x3
 5754 1630 23       		.byte	0x23
 5755 1631 ED02     		.uleb128 0x16d
 5756 1633 06       		.uleb128 0x6
 5757 1634 570C0000 		.4byte	.LASF362
 5758 1638 02       		.byte	0x2
 5759 1639 6B03     		.2byte	0x36b
 5760 163b 33000000 		.4byte	0x33
 5761 163f 03       		.byte	0x3
 5762 1640 23       		.byte	0x23
 5763 1641 EE02     		.uleb128 0x16e
 5764 1643 06       		.uleb128 0x6
 5765 1644 52140000 		.4byte	.LASF363
 5766 1648 02       		.byte	0x2
 5767 1649 6C03     		.2byte	0x36c
 5768 164b 33000000 		.4byte	0x33
 5769 164f 03       		.byte	0x3
 5770 1650 23       		.byte	0x23
 5771 1651 EF02     		.uleb128 0x16f
 5772 1653 06       		.uleb128 0x6
 5773 1654 77000000 		.4byte	.LASF364
 5774 1658 02       		.byte	0x2
 5775 1659 6D03     		.2byte	0x36d
 5776 165b 33000000 		.4byte	0x33
ARM GAS  /tmp/ccjXaC2Q.s 			page 118


 5777 165f 03       		.byte	0x3
 5778 1660 23       		.byte	0x23
 5779 1661 F002     		.uleb128 0x170
 5780 1663 06       		.uleb128 0x6
 5781 1664 81000000 		.4byte	.LASF365
 5782 1668 02       		.byte	0x2
 5783 1669 6E03     		.2byte	0x36e
 5784 166b 33000000 		.4byte	0x33
 5785 166f 03       		.byte	0x3
 5786 1670 23       		.byte	0x23
 5787 1671 F102     		.uleb128 0x171
 5788 1673 06       		.uleb128 0x6
 5789 1674 8B000000 		.4byte	.LASF366
 5790 1678 02       		.byte	0x2
 5791 1679 6F03     		.2byte	0x36f
 5792 167b 33000000 		.4byte	0x33
 5793 167f 03       		.byte	0x3
 5794 1680 23       		.byte	0x23
 5795 1681 F202     		.uleb128 0x172
 5796 1683 06       		.uleb128 0x6
 5797 1684 95000000 		.4byte	.LASF367
 5798 1688 02       		.byte	0x2
 5799 1689 7003     		.2byte	0x370
 5800 168b 33000000 		.4byte	0x33
 5801 168f 03       		.byte	0x3
 5802 1690 23       		.byte	0x23
 5803 1691 F302     		.uleb128 0x173
 5804 1693 06       		.uleb128 0x6
 5805 1694 9F000000 		.4byte	.LASF368
 5806 1698 02       		.byte	0x2
 5807 1699 7103     		.2byte	0x371
 5808 169b 33000000 		.4byte	0x33
 5809 169f 03       		.byte	0x3
 5810 16a0 23       		.byte	0x23
 5811 16a1 F402     		.uleb128 0x174
 5812 16a3 06       		.uleb128 0x6
 5813 16a4 A9000000 		.4byte	.LASF369
 5814 16a8 02       		.byte	0x2
 5815 16a9 7203     		.2byte	0x372
 5816 16ab 33000000 		.4byte	0x33
 5817 16af 03       		.byte	0x3
 5818 16b0 23       		.byte	0x23
 5819 16b1 F502     		.uleb128 0x175
 5820 16b3 06       		.uleb128 0x6
 5821 16b4 B3000000 		.4byte	.LASF370
 5822 16b8 02       		.byte	0x2
 5823 16b9 7303     		.2byte	0x373
 5824 16bb 33000000 		.4byte	0x33
 5825 16bf 03       		.byte	0x3
 5826 16c0 23       		.byte	0x23
 5827 16c1 F602     		.uleb128 0x176
 5828 16c3 06       		.uleb128 0x6
 5829 16c4 BD000000 		.4byte	.LASF371
 5830 16c8 02       		.byte	0x2
 5831 16c9 7403     		.2byte	0x374
 5832 16cb 33000000 		.4byte	0x33
 5833 16cf 03       		.byte	0x3
ARM GAS  /tmp/ccjXaC2Q.s 			page 119


 5834 16d0 23       		.byte	0x23
 5835 16d1 F702     		.uleb128 0x177
 5836 16d3 06       		.uleb128 0x6
 5837 16d4 C7000000 		.4byte	.LASF372
 5838 16d8 02       		.byte	0x2
 5839 16d9 7503     		.2byte	0x375
 5840 16db 33000000 		.4byte	0x33
 5841 16df 03       		.byte	0x3
 5842 16e0 23       		.byte	0x23
 5843 16e1 F802     		.uleb128 0x178
 5844 16e3 06       		.uleb128 0x6
 5845 16e4 4B010000 		.4byte	.LASF373
 5846 16e8 02       		.byte	0x2
 5847 16e9 7603     		.2byte	0x376
 5848 16eb 33000000 		.4byte	0x33
 5849 16ef 03       		.byte	0x3
 5850 16f0 23       		.byte	0x23
 5851 16f1 F902     		.uleb128 0x179
 5852 16f3 06       		.uleb128 0x6
 5853 16f4 F8000000 		.4byte	.LASF374
 5854 16f8 02       		.byte	0x2
 5855 16f9 7703     		.2byte	0x377
 5856 16fb 33000000 		.4byte	0x33
 5857 16ff 03       		.byte	0x3
 5858 1700 23       		.byte	0x23
 5859 1701 FA02     		.uleb128 0x17a
 5860 1703 06       		.uleb128 0x6
 5861 1704 02010000 		.4byte	.LASF375
 5862 1708 02       		.byte	0x2
 5863 1709 7803     		.2byte	0x378
 5864 170b 33000000 		.4byte	0x33
 5865 170f 03       		.byte	0x3
 5866 1710 23       		.byte	0x23
 5867 1711 FB02     		.uleb128 0x17b
 5868 1713 06       		.uleb128 0x6
 5869 1714 E30E0000 		.4byte	.LASF376
 5870 1718 02       		.byte	0x2
 5871 1719 7903     		.2byte	0x379
 5872 171b 33000000 		.4byte	0x33
 5873 171f 03       		.byte	0x3
 5874 1720 23       		.byte	0x23
 5875 1721 FC02     		.uleb128 0x17c
 5876 1723 06       		.uleb128 0x6
 5877 1724 16010000 		.4byte	.LASF377
 5878 1728 02       		.byte	0x2
 5879 1729 7A03     		.2byte	0x37a
 5880 172b 33000000 		.4byte	0x33
 5881 172f 03       		.byte	0x3
 5882 1730 23       		.byte	0x23
 5883 1731 FD02     		.uleb128 0x17d
 5884 1733 06       		.uleb128 0x6
 5885 1734 20010000 		.4byte	.LASF378
 5886 1738 02       		.byte	0x2
 5887 1739 7B03     		.2byte	0x37b
 5888 173b 33000000 		.4byte	0x33
 5889 173f 03       		.byte	0x3
 5890 1740 23       		.byte	0x23
ARM GAS  /tmp/ccjXaC2Q.s 			page 120


 5891 1741 FE02     		.uleb128 0x17e
 5892 1743 06       		.uleb128 0x6
 5893 1744 2A010000 		.4byte	.LASF379
 5894 1748 02       		.byte	0x2
 5895 1749 7C03     		.2byte	0x37c
 5896 174b 33000000 		.4byte	0x33
 5897 174f 03       		.byte	0x3
 5898 1750 23       		.byte	0x23
 5899 1751 FF02     		.uleb128 0x17f
 5900 1753 06       		.uleb128 0x6
 5901 1754 8C060000 		.4byte	.LASF380
 5902 1758 02       		.byte	0x2
 5903 1759 7D03     		.2byte	0x37d
 5904 175b 33000000 		.4byte	0x33
 5905 175f 03       		.byte	0x3
 5906 1760 23       		.byte	0x23
 5907 1761 8003     		.uleb128 0x180
 5908 1763 06       		.uleb128 0x6
 5909 1764 9E010000 		.4byte	.LASF381
 5910 1768 02       		.byte	0x2
 5911 1769 7E03     		.2byte	0x37e
 5912 176b 33000000 		.4byte	0x33
 5913 176f 03       		.byte	0x3
 5914 1770 23       		.byte	0x23
 5915 1771 8103     		.uleb128 0x181
 5916 1773 06       		.uleb128 0x6
 5917 1774 A8010000 		.4byte	.LASF382
 5918 1778 02       		.byte	0x2
 5919 1779 7F03     		.2byte	0x37f
 5920 177b 33000000 		.4byte	0x33
 5921 177f 03       		.byte	0x3
 5922 1780 23       		.byte	0x23
 5923 1781 8203     		.uleb128 0x182
 5924 1783 06       		.uleb128 0x6
 5925 1784 B2010000 		.4byte	.LASF383
 5926 1788 02       		.byte	0x2
 5927 1789 8003     		.2byte	0x380
 5928 178b 33000000 		.4byte	0x33
 5929 178f 03       		.byte	0x3
 5930 1790 23       		.byte	0x23
 5931 1791 8303     		.uleb128 0x183
 5932 1793 06       		.uleb128 0x6
 5933 1794 20090000 		.4byte	.LASF384
 5934 1798 02       		.byte	0x2
 5935 1799 8103     		.2byte	0x381
 5936 179b 59000000 		.4byte	0x59
 5937 179f 03       		.byte	0x3
 5938 17a0 23       		.byte	0x23
 5939 17a1 8403     		.uleb128 0x184
 5940 17a3 06       		.uleb128 0x6
 5941 17a4 6C060000 		.4byte	.LASF385
 5942 17a8 02       		.byte	0x2
 5943 17a9 8203     		.2byte	0x382
 5944 17ab 59000000 		.4byte	0x59
 5945 17af 03       		.byte	0x3
 5946 17b0 23       		.byte	0x23
 5947 17b1 8803     		.uleb128 0x188
ARM GAS  /tmp/ccjXaC2Q.s 			page 121


 5948 17b3 06       		.uleb128 0x6
 5949 17b4 74060000 		.4byte	.LASF386
 5950 17b8 02       		.byte	0x2
 5951 17b9 8303     		.2byte	0x383
 5952 17bb 59000000 		.4byte	0x59
 5953 17bf 03       		.byte	0x3
 5954 17c0 23       		.byte	0x23
 5955 17c1 8C03     		.uleb128 0x18c
 5956 17c3 06       		.uleb128 0x6
 5957 17c4 78020000 		.4byte	.LASF387
 5958 17c8 02       		.byte	0x2
 5959 17c9 8403     		.2byte	0x384
 5960 17cb 33000000 		.4byte	0x33
 5961 17cf 03       		.byte	0x3
 5962 17d0 23       		.byte	0x23
 5963 17d1 9003     		.uleb128 0x190
 5964 17d3 06       		.uleb128 0x6
 5965 17d4 82020000 		.4byte	.LASF388
 5966 17d8 02       		.byte	0x2
 5967 17d9 8503     		.2byte	0x385
 5968 17db 33000000 		.4byte	0x33
 5969 17df 03       		.byte	0x3
 5970 17e0 23       		.byte	0x23
 5971 17e1 9103     		.uleb128 0x191
 5972 17e3 06       		.uleb128 0x6
 5973 17e4 8C020000 		.4byte	.LASF389
 5974 17e8 02       		.byte	0x2
 5975 17e9 8603     		.2byte	0x386
 5976 17eb 33000000 		.4byte	0x33
 5977 17ef 03       		.byte	0x3
 5978 17f0 23       		.byte	0x23
 5979 17f1 9203     		.uleb128 0x192
 5980 17f3 06       		.uleb128 0x6
 5981 17f4 95130000 		.4byte	.LASF390
 5982 17f8 02       		.byte	0x2
 5983 17f9 8703     		.2byte	0x387
 5984 17fb 33000000 		.4byte	0x33
 5985 17ff 03       		.byte	0x3
 5986 1800 23       		.byte	0x23
 5987 1801 9303     		.uleb128 0x193
 5988 1803 06       		.uleb128 0x6
 5989 1804 A0020000 		.4byte	.LASF391
 5990 1808 02       		.byte	0x2
 5991 1809 8803     		.2byte	0x388
 5992 180b 33000000 		.4byte	0x33
 5993 180f 03       		.byte	0x3
 5994 1810 23       		.byte	0x23
 5995 1811 9403     		.uleb128 0x194
 5996 1813 06       		.uleb128 0x6
 5997 1814 AA020000 		.4byte	.LASF392
 5998 1818 02       		.byte	0x2
 5999 1819 8903     		.2byte	0x389
 6000 181b 33000000 		.4byte	0x33
 6001 181f 03       		.byte	0x3
 6002 1820 23       		.byte	0x23
 6003 1821 9503     		.uleb128 0x195
 6004 1823 06       		.uleb128 0x6
ARM GAS  /tmp/ccjXaC2Q.s 			page 122


 6005 1824 B4020000 		.4byte	.LASF393
 6006 1828 02       		.byte	0x2
 6007 1829 8A03     		.2byte	0x38a
 6008 182b 33000000 		.4byte	0x33
 6009 182f 03       		.byte	0x3
 6010 1830 23       		.byte	0x23
 6011 1831 9603     		.uleb128 0x196
 6012 1833 06       		.uleb128 0x6
 6013 1834 BE020000 		.4byte	.LASF394
 6014 1838 02       		.byte	0x2
 6015 1839 8B03     		.2byte	0x38b
 6016 183b 33000000 		.4byte	0x33
 6017 183f 03       		.byte	0x3
 6018 1840 23       		.byte	0x23
 6019 1841 9703     		.uleb128 0x197
 6020 1843 06       		.uleb128 0x6
 6021 1844 32100000 		.4byte	.LASF395
 6022 1848 02       		.byte	0x2
 6023 1849 8C03     		.2byte	0x38c
 6024 184b 33000000 		.4byte	0x33
 6025 184f 03       		.byte	0x3
 6026 1850 23       		.byte	0x23
 6027 1851 9803     		.uleb128 0x198
 6028 1853 06       		.uleb128 0x6
 6029 1854 43000000 		.4byte	.LASF396
 6030 1858 02       		.byte	0x2
 6031 1859 8D03     		.2byte	0x38d
 6032 185b 33000000 		.4byte	0x33
 6033 185f 03       		.byte	0x3
 6034 1860 23       		.byte	0x23
 6035 1861 9903     		.uleb128 0x199
 6036 1863 06       		.uleb128 0x6
 6037 1864 C8100000 		.4byte	.LASF397
 6038 1868 02       		.byte	0x2
 6039 1869 8E03     		.2byte	0x38e
 6040 186b 33000000 		.4byte	0x33
 6041 186f 03       		.byte	0x3
 6042 1870 23       		.byte	0x23
 6043 1871 9A03     		.uleb128 0x19a
 6044 1873 06       		.uleb128 0x6
 6045 1874 D2100000 		.4byte	.LASF398
 6046 1878 02       		.byte	0x2
 6047 1879 8F03     		.2byte	0x38f
 6048 187b 33000000 		.4byte	0x33
 6049 187f 03       		.byte	0x3
 6050 1880 23       		.byte	0x23
 6051 1881 9B03     		.uleb128 0x19b
 6052 1883 06       		.uleb128 0x6
 6053 1884 85040000 		.4byte	.LASF399
 6054 1888 02       		.byte	0x2
 6055 1889 9003     		.2byte	0x390
 6056 188b 33000000 		.4byte	0x33
 6057 188f 03       		.byte	0x3
 6058 1890 23       		.byte	0x23
 6059 1891 9C03     		.uleb128 0x19c
 6060 1893 06       		.uleb128 0x6
 6061 1894 F0100000 		.4byte	.LASF400
ARM GAS  /tmp/ccjXaC2Q.s 			page 123


 6062 1898 02       		.byte	0x2
 6063 1899 9103     		.2byte	0x391
 6064 189b 33000000 		.4byte	0x33
 6065 189f 03       		.byte	0x3
 6066 18a0 23       		.byte	0x23
 6067 18a1 9D03     		.uleb128 0x19d
 6068 18a3 06       		.uleb128 0x6
 6069 18a4 01110000 		.4byte	.LASF401
 6070 18a8 02       		.byte	0x2
 6071 18a9 9203     		.2byte	0x392
 6072 18ab 33000000 		.4byte	0x33
 6073 18af 03       		.byte	0x3
 6074 18b0 23       		.byte	0x23
 6075 18b1 9E03     		.uleb128 0x19e
 6076 18b3 06       		.uleb128 0x6
 6077 18b4 14110000 		.4byte	.LASF402
 6078 18b8 02       		.byte	0x2
 6079 18b9 9303     		.2byte	0x393
 6080 18bb 33000000 		.4byte	0x33
 6081 18bf 03       		.byte	0x3
 6082 18c0 23       		.byte	0x23
 6083 18c1 9F03     		.uleb128 0x19f
 6084 18c3 07       		.uleb128 0x7
 6085 18c4 53435300 		.ascii	"SCS\000"
 6086 18c8 02       		.byte	0x2
 6087 18c9 9403     		.2byte	0x394
 6088 18cb 59000000 		.4byte	0x59
 6089 18cf 03       		.byte	0x3
 6090 18d0 23       		.byte	0x23
 6091 18d1 A003     		.uleb128 0x1a0
 6092 18d3 06       		.uleb128 0x6
 6093 18d4 FD0E0000 		.4byte	.LASF403
 6094 18d8 02       		.byte	0x2
 6095 18d9 9503     		.2byte	0x395
 6096 18db 46000000 		.4byte	0x46
 6097 18df 03       		.byte	0x3
 6098 18e0 23       		.byte	0x23
 6099 18e1 A403     		.uleb128 0x1a4
 6100 18e3 06       		.uleb128 0x6
 6101 18e4 F90D0000 		.4byte	.LASF404
 6102 18e8 02       		.byte	0x2
 6103 18e9 9603     		.2byte	0x396
 6104 18eb 33000000 		.4byte	0x33
 6105 18ef 03       		.byte	0x3
 6106 18f0 23       		.byte	0x23
 6107 18f1 A603     		.uleb128 0x1a6
 6108 18f3 06       		.uleb128 0x6
 6109 18f4 030E0000 		.4byte	.LASF405
 6110 18f8 02       		.byte	0x2
 6111 18f9 9703     		.2byte	0x397
 6112 18fb 33000000 		.4byte	0x33
 6113 18ff 03       		.byte	0x3
 6114 1900 23       		.byte	0x23
 6115 1901 A703     		.uleb128 0x1a7
 6116 1903 06       		.uleb128 0x6
 6117 1904 DB000000 		.4byte	.LASF406
 6118 1908 02       		.byte	0x2
ARM GAS  /tmp/ccjXaC2Q.s 			page 124


 6119 1909 9803     		.2byte	0x398
 6120 190b 59000000 		.4byte	0x59
 6121 190f 03       		.byte	0x3
 6122 1910 23       		.byte	0x23
 6123 1911 A803     		.uleb128 0x1a8
 6124 1913 06       		.uleb128 0x6
 6125 1914 DA110000 		.4byte	.LASF407
 6126 1918 02       		.byte	0x2
 6127 1919 9903     		.2byte	0x399
 6128 191b 59000000 		.4byte	0x59
 6129 191f 03       		.byte	0x3
 6130 1920 23       		.byte	0x23
 6131 1921 AC03     		.uleb128 0x1ac
 6132 1923 00       		.byte	0
 6133 1924 04       		.uleb128 0x4
 6134 1925 DA040000 		.4byte	.LASF408
 6135 1929 02       		.byte	0x2
 6136 192a 9A03     		.2byte	0x39a
 6137 192c 30190000 		.4byte	0x1930
 6138 1930 08       		.uleb128 0x8
 6139 1931 65000000 		.4byte	0x65
 6140 1935 09       		.uleb128 0x9
 6141 1936 02       		.byte	0x2
 6142 1937 03       		.byte	0x3
 6143 1938 2F       		.byte	0x2f
 6144 1939 5A190000 		.4byte	0x195a
 6145 193d 0A       		.uleb128 0xa
 6146 193e 0D140000 		.4byte	.LASF409
 6147 1942 03       		.byte	0x3
 6148 1943 31       		.byte	0x31
 6149 1944 33000000 		.4byte	0x33
 6150 1948 02       		.byte	0x2
 6151 1949 23       		.byte	0x23
 6152 194a 00       		.uleb128 0
 6153 194b 0A       		.uleb128 0xa
 6154 194c 10060000 		.4byte	.LASF410
 6155 1950 03       		.byte	0x3
 6156 1951 32       		.byte	0x32
 6157 1952 33000000 		.4byte	0x33
 6158 1956 02       		.byte	0x2
 6159 1957 23       		.byte	0x23
 6160 1958 01       		.uleb128 0x1
 6161 1959 00       		.byte	0
 6162 195a 0B       		.uleb128 0xb
 6163 195b FA100000 		.4byte	.LASF411
 6164 195f 03       		.byte	0x3
 6165 1960 33       		.byte	0x33
 6166 1961 35190000 		.4byte	0x1935
 6167 1965 09       		.uleb128 0x9
 6168 1966 24       		.byte	0x24
 6169 1967 03       		.byte	0x3
 6170 1968 35       		.byte	0x35
 6171 1969 8A190000 		.4byte	0x198a
 6172 196d 0A       		.uleb128 0xa
 6173 196e 9E110000 		.4byte	.LASF412
 6174 1972 03       		.byte	0x3
 6175 1973 37       		.byte	0x37
ARM GAS  /tmp/ccjXaC2Q.s 			page 125


 6176 1974 59000000 		.4byte	0x59
 6177 1978 02       		.byte	0x2
 6178 1979 23       		.byte	0x23
 6179 197a 00       		.uleb128 0
 6180 197b 0C       		.uleb128 0xc
 6181 197c 70696E00 		.ascii	"pin\000"
 6182 1980 03       		.byte	0x3
 6183 1981 38       		.byte	0x38
 6184 1982 8A190000 		.4byte	0x198a
 6185 1986 02       		.byte	0x2
 6186 1987 23       		.byte	0x23
 6187 1988 04       		.uleb128 0x4
 6188 1989 00       		.byte	0
 6189 198a 0D       		.uleb128 0xd
 6190 198b 5A190000 		.4byte	0x195a
 6191 198f 9A190000 		.4byte	0x199a
 6192 1993 0E       		.uleb128 0xe
 6193 1994 9A190000 		.4byte	0x199a
 6194 1998 0F       		.byte	0xf
 6195 1999 00       		.byte	0
 6196 199a 02       		.uleb128 0x2
 6197 199b 04       		.byte	0x4
 6198 199c 07       		.byte	0x7
 6199 199d B40A0000 		.4byte	.LASF413
 6200 19a1 0B       		.uleb128 0xb
 6201 19a2 8F050000 		.4byte	.LASF414
 6202 19a6 03       		.byte	0x3
 6203 19a7 39       		.byte	0x39
 6204 19a8 65190000 		.4byte	0x1965
 6205 19ac 0F       		.uleb128 0xf
 6206 19ad 01       		.byte	0x1
 6207 19ae 04       		.byte	0x4
 6208 19af 1C       		.byte	0x1c
 6209 19b0 D6190000 		.4byte	0x19d6
 6210 19b4 10       		.uleb128 0x10
 6211 19b5 52425200 		.ascii	"RBR\000"
 6212 19b9 04       		.byte	0x4
 6213 19ba 1D       		.byte	0x1d
 6214 19bb 33000000 		.4byte	0x33
 6215 19bf 10       		.uleb128 0x10
 6216 19c0 54485200 		.ascii	"THR\000"
 6217 19c4 04       		.byte	0x4
 6218 19c5 1E       		.byte	0x1e
 6219 19c6 33000000 		.4byte	0x33
 6220 19ca 10       		.uleb128 0x10
 6221 19cb 444C4C00 		.ascii	"DLL\000"
 6222 19cf 04       		.byte	0x4
 6223 19d0 1F       		.byte	0x1f
 6224 19d1 33000000 		.4byte	0x33
 6225 19d5 00       		.byte	0
 6226 19d6 09       		.uleb128 0x9
 6227 19d7 04       		.byte	0x4
 6228 19d8 04       		.byte	0x4
 6229 19d9 23       		.byte	0x23
 6230 19da FB190000 		.4byte	0x19fb
 6231 19de 0C       		.uleb128 0xc
 6232 19df 444C4D00 		.ascii	"DLM\000"
ARM GAS  /tmp/ccjXaC2Q.s 			page 126


 6233 19e3 04       		.byte	0x4
 6234 19e4 24       		.byte	0x24
 6235 19e5 33000000 		.4byte	0x33
 6236 19e9 02       		.byte	0x2
 6237 19ea 23       		.byte	0x23
 6238 19eb 00       		.uleb128 0
 6239 19ec 0A       		.uleb128 0xa
 6240 19ed 19020000 		.4byte	.LASF415
 6241 19f1 04       		.byte	0x4
 6242 19f2 25       		.byte	0x25
 6243 19f3 FB190000 		.4byte	0x19fb
 6244 19f7 02       		.byte	0x2
 6245 19f8 23       		.byte	0x23
 6246 19f9 01       		.uleb128 0x1
 6247 19fa 00       		.byte	0
 6248 19fb 0D       		.uleb128 0xd
 6249 19fc 33000000 		.4byte	0x33
 6250 1a00 0B1A0000 		.4byte	0x1a0b
 6251 1a04 0E       		.uleb128 0xe
 6252 1a05 9A190000 		.4byte	0x199a
 6253 1a09 02       		.byte	0x2
 6254 1a0a 00       		.byte	0
 6255 1a0b 0F       		.uleb128 0xf
 6256 1a0c 04       		.byte	0x4
 6257 1a0d 04       		.byte	0x4
 6258 1a0e 22       		.byte	0x22
 6259 1a0f 241A0000 		.4byte	0x1a24
 6260 1a13 11       		.uleb128 0x11
 6261 1a14 D6190000 		.4byte	0x19d6
 6262 1a18 10       		.uleb128 0x10
 6263 1a19 49455200 		.ascii	"IER\000"
 6264 1a1d 04       		.byte	0x4
 6265 1a1e 27       		.byte	0x27
 6266 1a1f 59000000 		.4byte	0x59
 6267 1a23 00       		.byte	0
 6268 1a24 09       		.uleb128 0x9
 6269 1a25 04       		.byte	0x4
 6270 1a26 04       		.byte	0x4
 6271 1a27 2B       		.byte	0x2b
 6272 1a28 491A0000 		.4byte	0x1a49
 6273 1a2c 0C       		.uleb128 0xc
 6274 1a2d 46435200 		.ascii	"FCR\000"
 6275 1a31 04       		.byte	0x4
 6276 1a32 2C       		.byte	0x2c
 6277 1a33 33000000 		.4byte	0x33
 6278 1a37 02       		.byte	0x2
 6279 1a38 23       		.byte	0x23
 6280 1a39 00       		.uleb128 0
 6281 1a3a 0A       		.uleb128 0xa
 6282 1a3b 3E010000 		.4byte	.LASF416
 6283 1a3f 04       		.byte	0x4
 6284 1a40 2D       		.byte	0x2d
 6285 1a41 FB190000 		.4byte	0x19fb
 6286 1a45 02       		.byte	0x2
 6287 1a46 23       		.byte	0x23
 6288 1a47 01       		.uleb128 0x1
 6289 1a48 00       		.byte	0
ARM GAS  /tmp/ccjXaC2Q.s 			page 127


 6290 1a49 0F       		.uleb128 0xf
 6291 1a4a 04       		.byte	0x4
 6292 1a4b 04       		.byte	0x4
 6293 1a4c 29       		.byte	0x29
 6294 1a4d 621A0000 		.4byte	0x1a62
 6295 1a51 10       		.uleb128 0x10
 6296 1a52 49495200 		.ascii	"IIR\000"
 6297 1a56 04       		.byte	0x4
 6298 1a57 2A       		.byte	0x2a
 6299 1a58 59000000 		.4byte	0x59
 6300 1a5c 11       		.uleb128 0x11
 6301 1a5d 241A0000 		.4byte	0x1a24
 6302 1a61 00       		.byte	0
 6303 1a62 12       		.uleb128 0x12
 6304 1a63 08080000 		.4byte	.LASF418
 6305 1a67 34       		.byte	0x34
 6306 1a68 04       		.byte	0x4
 6307 1a69 1B       		.byte	0x1b
 6308 1a6a 831B0000 		.4byte	0x1b83
 6309 1a6e 13       		.uleb128 0x13
 6310 1a6f AC190000 		.4byte	0x19ac
 6311 1a73 02       		.byte	0x2
 6312 1a74 23       		.byte	0x23
 6313 1a75 00       		.uleb128 0
 6314 1a76 0A       		.uleb128 0xa
 6315 1a77 14020000 		.4byte	.LASF419
 6316 1a7b 04       		.byte	0x4
 6317 1a7c 21       		.byte	0x21
 6318 1a7d FB190000 		.4byte	0x19fb
 6319 1a81 02       		.byte	0x2
 6320 1a82 23       		.byte	0x23
 6321 1a83 01       		.uleb128 0x1
 6322 1a84 13       		.uleb128 0x13
 6323 1a85 0B1A0000 		.4byte	0x1a0b
 6324 1a89 02       		.byte	0x2
 6325 1a8a 23       		.byte	0x23
 6326 1a8b 04       		.uleb128 0x4
 6327 1a8c 13       		.uleb128 0x13
 6328 1a8d 491A0000 		.4byte	0x1a49
 6329 1a91 02       		.byte	0x2
 6330 1a92 23       		.byte	0x23
 6331 1a93 08       		.uleb128 0x8
 6332 1a94 0C       		.uleb128 0xc
 6333 1a95 4C435200 		.ascii	"LCR\000"
 6334 1a99 04       		.byte	0x4
 6335 1a9a 30       		.byte	0x30
 6336 1a9b 33000000 		.4byte	0x33
 6337 1a9f 02       		.byte	0x2
 6338 1aa0 23       		.byte	0x23
 6339 1aa1 0C       		.uleb128 0xc
 6340 1aa2 0A       		.uleb128 0xa
 6341 1aa3 2B020000 		.4byte	.LASF420
 6342 1aa7 04       		.byte	0x4
 6343 1aa8 31       		.byte	0x31
 6344 1aa9 FB190000 		.4byte	0x19fb
 6345 1aad 02       		.byte	0x2
 6346 1aae 23       		.byte	0x23
ARM GAS  /tmp/ccjXaC2Q.s 			page 128


 6347 1aaf 0D       		.uleb128 0xd
 6348 1ab0 0A       		.uleb128 0xa
 6349 1ab1 30020000 		.4byte	.LASF421
 6350 1ab5 04       		.byte	0x4
 6351 1ab6 32       		.byte	0x32
 6352 1ab7 831B0000 		.4byte	0x1b83
 6353 1abb 02       		.byte	0x2
 6354 1abc 23       		.byte	0x23
 6355 1abd 10       		.uleb128 0x10
 6356 1abe 0C       		.uleb128 0xc
 6357 1abf 4C535200 		.ascii	"LSR\000"
 6358 1ac3 04       		.byte	0x4
 6359 1ac4 33       		.byte	0x33
 6360 1ac5 33000000 		.4byte	0x33
 6361 1ac9 02       		.byte	0x2
 6362 1aca 23       		.byte	0x23
 6363 1acb 14       		.uleb128 0x14
 6364 1acc 0A       		.uleb128 0xa
 6365 1acd C8030000 		.4byte	.LASF422
 6366 1ad1 04       		.byte	0x4
 6367 1ad2 34       		.byte	0x34
 6368 1ad3 FB190000 		.4byte	0x19fb
 6369 1ad7 02       		.byte	0x2
 6370 1ad8 23       		.byte	0x23
 6371 1ad9 15       		.uleb128 0x15
 6372 1ada 0C       		.uleb128 0xc
 6373 1adb 4D535200 		.ascii	"MSR\000"
 6374 1adf 04       		.byte	0x4
 6375 1ae0 35       		.byte	0x35
 6376 1ae1 33000000 		.4byte	0x33
 6377 1ae5 02       		.byte	0x2
 6378 1ae6 23       		.byte	0x23
 6379 1ae7 18       		.uleb128 0x18
 6380 1ae8 0A       		.uleb128 0xa
 6381 1ae9 CB040000 		.4byte	.LASF423
 6382 1aed 04       		.byte	0x4
 6383 1aee 36       		.byte	0x36
 6384 1aef FB190000 		.4byte	0x19fb
 6385 1af3 02       		.byte	0x2
 6386 1af4 23       		.byte	0x23
 6387 1af5 19       		.uleb128 0x19
 6388 1af6 0C       		.uleb128 0xc
 6389 1af7 53435200 		.ascii	"SCR\000"
 6390 1afb 04       		.byte	0x4
 6391 1afc 37       		.byte	0x37
 6392 1afd 33000000 		.4byte	0x33
 6393 1b01 02       		.byte	0x2
 6394 1b02 23       		.byte	0x23
 6395 1b03 1C       		.uleb128 0x1c
 6396 1b04 0A       		.uleb128 0xa
 6397 1b05 D0040000 		.4byte	.LASF424
 6398 1b09 04       		.byte	0x4
 6399 1b0a 38       		.byte	0x38
 6400 1b0b FB190000 		.4byte	0x19fb
 6401 1b0f 02       		.byte	0x2
 6402 1b10 23       		.byte	0x23
 6403 1b11 1D       		.uleb128 0x1d
ARM GAS  /tmp/ccjXaC2Q.s 			page 129


 6404 1b12 0C       		.uleb128 0xc
 6405 1b13 41435200 		.ascii	"ACR\000"
 6406 1b17 04       		.byte	0x4
 6407 1b18 39       		.byte	0x39
 6408 1b19 59000000 		.4byte	0x59
 6409 1b1d 02       		.byte	0x2
 6410 1b1e 23       		.byte	0x23
 6411 1b1f 20       		.uleb128 0x20
 6412 1b20 0C       		.uleb128 0xc
 6413 1b21 49435200 		.ascii	"ICR\000"
 6414 1b25 04       		.byte	0x4
 6415 1b26 3A       		.byte	0x3a
 6416 1b27 33000000 		.4byte	0x33
 6417 1b2b 02       		.byte	0x2
 6418 1b2c 23       		.byte	0x23
 6419 1b2d 24       		.uleb128 0x24
 6420 1b2e 0A       		.uleb128 0xa
 6421 1b2f D5040000 		.4byte	.LASF425
 6422 1b33 04       		.byte	0x4
 6423 1b34 3B       		.byte	0x3b
 6424 1b35 FB190000 		.4byte	0x19fb
 6425 1b39 02       		.byte	0x2
 6426 1b3a 23       		.byte	0x23
 6427 1b3b 25       		.uleb128 0x25
 6428 1b3c 0C       		.uleb128 0xc
 6429 1b3d 46445200 		.ascii	"FDR\000"
 6430 1b41 04       		.byte	0x4
 6431 1b42 3C       		.byte	0x3c
 6432 1b43 33000000 		.4byte	0x33
 6433 1b47 02       		.byte	0x2
 6434 1b48 23       		.byte	0x23
 6435 1b49 28       		.uleb128 0x28
 6436 1b4a 0A       		.uleb128 0xa
 6437 1b4b 60020000 		.4byte	.LASF426
 6438 1b4f 04       		.byte	0x4
 6439 1b50 3D       		.byte	0x3d
 6440 1b51 FB190000 		.4byte	0x19fb
 6441 1b55 02       		.byte	0x2
 6442 1b56 23       		.byte	0x23
 6443 1b57 29       		.uleb128 0x29
 6444 1b58 0A       		.uleb128 0xa
 6445 1b59 BC100000 		.4byte	.LASF427
 6446 1b5d 04       		.byte	0x4
 6447 1b5e 3E       		.byte	0x3e
 6448 1b5f 59000000 		.4byte	0x59
 6449 1b63 02       		.byte	0x2
 6450 1b64 23       		.byte	0x23
 6451 1b65 2C       		.uleb128 0x2c
 6452 1b66 0C       		.uleb128 0xc
 6453 1b67 54455200 		.ascii	"TER\000"
 6454 1b6b 04       		.byte	0x4
 6455 1b6c 3F       		.byte	0x3f
 6456 1b6d 33000000 		.4byte	0x33
 6457 1b71 02       		.byte	0x2
 6458 1b72 23       		.byte	0x23
 6459 1b73 30       		.uleb128 0x30
 6460 1b74 0A       		.uleb128 0xa
ARM GAS  /tmp/ccjXaC2Q.s 			page 130


 6461 1b75 C2100000 		.4byte	.LASF428
 6462 1b79 04       		.byte	0x4
 6463 1b7a 40       		.byte	0x40
 6464 1b7b FB190000 		.4byte	0x19fb
 6465 1b7f 02       		.byte	0x2
 6466 1b80 23       		.byte	0x23
 6467 1b81 31       		.uleb128 0x31
 6468 1b82 00       		.byte	0
 6469 1b83 0D       		.uleb128 0xd
 6470 1b84 33000000 		.4byte	0x33
 6471 1b88 931B0000 		.4byte	0x1b93
 6472 1b8c 0E       		.uleb128 0xe
 6473 1b8d 9A190000 		.4byte	0x199a
 6474 1b91 03       		.byte	0x3
 6475 1b92 00       		.byte	0
 6476 1b93 0B       		.uleb128 0xb
 6477 1b94 91010000 		.4byte	.LASF429
 6478 1b98 04       		.byte	0x4
 6479 1b99 41       		.byte	0x41
 6480 1b9a 9E1B0000 		.4byte	0x1b9e
 6481 1b9e 08       		.uleb128 0x8
 6482 1b9f 621A0000 		.4byte	0x1a62
 6483 1ba3 12       		.uleb128 0x12
 6484 1ba4 65020000 		.4byte	.LASF430
 6485 1ba8 0C       		.byte	0xc
 6486 1ba9 05       		.byte	0x5
 6487 1baa 04       		.byte	0x4
 6488 1bab 041C0000 		.4byte	0x1c04
 6489 1baf 0A       		.uleb128 0xa
 6490 1bb0 FA060000 		.4byte	.LASF431
 6491 1bb4 05       		.byte	0x5
 6492 1bb5 05       		.byte	0x5
 6493 1bb6 52000000 		.4byte	0x52
 6494 1bba 02       		.byte	0x2
 6495 1bbb 23       		.byte	0x23
 6496 1bbc 00       		.uleb128 0
 6497 1bbd 0A       		.uleb128 0xa
 6498 1bbe F1070000 		.4byte	.LASF432
 6499 1bc2 05       		.byte	0x5
 6500 1bc3 06       		.byte	0x6
 6501 1bc4 3F000000 		.4byte	0x3f
 6502 1bc8 02       		.byte	0x2
 6503 1bc9 23       		.byte	0x23
 6504 1bca 02       		.uleb128 0x2
 6505 1bcb 0A       		.uleb128 0xa
 6506 1bcc 61000000 		.4byte	.LASF433
 6507 1bd0 05       		.byte	0x5
 6508 1bd1 07       		.byte	0x7
 6509 1bd2 25000000 		.4byte	0x25
 6510 1bd6 02       		.byte	0x2
 6511 1bd7 23       		.byte	0x23
 6512 1bd8 04       		.uleb128 0x4
 6513 1bd9 0A       		.uleb128 0xa
 6514 1bda FA110000 		.4byte	.LASF434
 6515 1bde 05       		.byte	0x5
 6516 1bdf 08       		.byte	0x8
 6517 1be0 3F000000 		.4byte	0x3f
ARM GAS  /tmp/ccjXaC2Q.s 			page 131


 6518 1be4 02       		.byte	0x2
 6519 1be5 23       		.byte	0x23
 6520 1be6 08       		.uleb128 0x8
 6521 1be7 0A       		.uleb128 0xa
 6522 1be8 43010000 		.4byte	.LASF435
 6523 1bec 05       		.byte	0x5
 6524 1bed 09       		.byte	0x9
 6525 1bee 3F000000 		.4byte	0x3f
 6526 1bf2 02       		.byte	0x2
 6527 1bf3 23       		.byte	0x23
 6528 1bf4 09       		.uleb128 0x9
 6529 1bf5 0A       		.uleb128 0xa
 6530 1bf6 0A040000 		.4byte	.LASF436
 6531 1bfa 05       		.byte	0x5
 6532 1bfb 0A       		.byte	0xa
 6533 1bfc 3F000000 		.4byte	0x3f
 6534 1c00 02       		.byte	0x2
 6535 1c01 23       		.byte	0x23
 6536 1c02 0A       		.uleb128 0xa
 6537 1c03 00       		.byte	0
 6538 1c04 0B       		.uleb128 0xb
 6539 1c05 E7070000 		.4byte	.LASF437
 6540 1c09 05       		.byte	0x5
 6541 1c0a 0B       		.byte	0xb
 6542 1c0b A31B0000 		.4byte	0x1ba3
 6543 1c0f 14       		.uleb128 0x14
 6544 1c10 01       		.byte	0x1
 6545 1c11 04050000 		.4byte	.LASF446
 6546 1c15 01       		.byte	0x1
 6547 1c16 58       		.byte	0x58
 6548 1c17 01       		.byte	0x1
 6549 1c18 00000000 		.4byte	.LFB0
 6550 1c1c BC000000 		.4byte	.LFE0
 6551 1c20 00000000 		.4byte	.LLST0
 6552 1c24 01       		.byte	0x1
 6553 1c25 541C0000 		.4byte	0x1c54
 6554 1c29 15       		.uleb128 0x15
 6555 1c2a 4D000000 		.4byte	.LASF438
 6556 1c2e 01       		.byte	0x1
 6557 1c2f 5B       		.byte	0x5b
 6558 1c30 041C0000 		.4byte	0x1c04
 6559 1c34 02       		.byte	0x2
 6560 1c35 91       		.byte	0x91
 6561 1c36 64       		.sleb128 -28
 6562 1c37 15       		.uleb128 0x15
 6563 1c38 66090000 		.4byte	.LASF439
 6564 1c3c 01       		.byte	0x1
 6565 1c3d 64       		.byte	0x64
 6566 1c3e 541C0000 		.4byte	0x1c54
 6567 1c42 02       		.byte	0x2
 6568 1c43 91       		.byte	0x91
 6569 1c44 74       		.sleb128 -12
 6570 1c45 15       		.uleb128 0x15
 6571 1c46 3A020000 		.4byte	.LASF440
 6572 1c4a 01       		.byte	0x1
 6573 1c4b 66       		.byte	0x66
 6574 1c4c 25000000 		.4byte	0x25
ARM GAS  /tmp/ccjXaC2Q.s 			page 132


 6575 1c50 02       		.byte	0x2
 6576 1c51 91       		.byte	0x91
 6577 1c52 70       		.sleb128 -16
 6578 1c53 00       		.byte	0
 6579 1c54 16       		.uleb128 0x16
 6580 1c55 04       		.byte	0x4
 6581 1c56 041C0000 		.4byte	0x1c04
 6582 1c5a 17       		.uleb128 0x17
 6583 1c5b F50E0000 		.4byte	.LASF442
 6584 1c5f 01       		.byte	0x1
 6585 1c60 B4       		.byte	0xb4
 6586 1c61 01       		.byte	0x1
 6587 1c62 BC000000 		.4byte	.LFB1
 6588 1c66 5C020000 		.4byte	.LFE1
 6589 1c6a 2C000000 		.4byte	.LLST1
 6590 1c6e 01       		.byte	0x1
 6591 1c6f 901C0000 		.4byte	0x1c90
 6592 1c73 18       		.uleb128 0x18
 6593 1c74 66090000 		.4byte	.LASF439
 6594 1c78 01       		.byte	0x1
 6595 1c79 B4       		.byte	0xb4
 6596 1c7a 541C0000 		.4byte	0x1c54
 6597 1c7e 02       		.byte	0x2
 6598 1c7f 91       		.byte	0x91
 6599 1c80 74       		.sleb128 -12
 6600 1c81 15       		.uleb128 0x15
 6601 1c82 F20D0000 		.4byte	.LASF441
 6602 1c86 01       		.byte	0x1
 6603 1c87 B6       		.byte	0xb6
 6604 1c88 25000000 		.4byte	0x25
 6605 1c8c 02       		.byte	0x2
 6606 1c8d 91       		.byte	0x91
 6607 1c8e 7C       		.sleb128 -4
 6608 1c8f 00       		.byte	0
 6609 1c90 19       		.uleb128 0x19
 6610 1c91 2C110000 		.4byte	.LASF443
 6611 1c95 01       		.byte	0x1
 6612 1c96 1001     		.2byte	0x110
 6613 1c98 01       		.byte	0x1
 6614 1c99 5C020000 		.4byte	.LFB2
 6615 1c9d EC020000 		.4byte	.LFE2
 6616 1ca1 4C000000 		.4byte	.LLST2
 6617 1ca5 01       		.byte	0x1
 6618 1ca6 D81C0000 		.4byte	0x1cd8
 6619 1caa 1A       		.uleb128 0x1a
 6620 1cab 3A020000 		.4byte	.LASF440
 6621 1caf 01       		.byte	0x1
 6622 1cb0 1001     		.2byte	0x110
 6623 1cb2 25000000 		.4byte	0x25
 6624 1cb6 02       		.byte	0x2
 6625 1cb7 91       		.byte	0x91
 6626 1cb8 7C       		.sleb128 -4
 6627 1cb9 1A       		.uleb128 0x1a
 6628 1cba 290F0000 		.4byte	.LASF444
 6629 1cbe 01       		.byte	0x1
 6630 1cbf 1001     		.2byte	0x110
 6631 1cc1 3F000000 		.4byte	0x3f
ARM GAS  /tmp/ccjXaC2Q.s 			page 133


 6632 1cc5 02       		.byte	0x2
 6633 1cc6 91       		.byte	0x91
 6634 1cc7 7B       		.sleb128 -5
 6635 1cc8 1A       		.uleb128 0x1a
 6636 1cc9 5E120000 		.4byte	.LASF445
 6637 1ccd 01       		.byte	0x1
 6638 1cce 1001     		.2byte	0x110
 6639 1cd0 3F000000 		.4byte	0x3f
 6640 1cd4 02       		.byte	0x2
 6641 1cd5 91       		.byte	0x91
 6642 1cd6 7A       		.sleb128 -6
 6643 1cd7 00       		.byte	0
 6644 1cd8 1B       		.uleb128 0x1b
 6645 1cd9 01       		.byte	0x1
 6646 1cda 1A060000 		.4byte	.LASF447
 6647 1cde 01       		.byte	0x1
 6648 1cdf 3901     		.2byte	0x139
 6649 1ce1 01       		.byte	0x1
 6650 1ce2 EC020000 		.4byte	.LFB3
 6651 1ce6 40030000 		.4byte	.LFE3
 6652 1cea 6C000000 		.4byte	.LLST3
 6653 1cee 01       		.byte	0x1
 6654 1cef 031D0000 		.4byte	0x1d03
 6655 1cf3 1A       		.uleb128 0x1a
 6656 1cf4 66090000 		.4byte	.LASF439
 6657 1cf8 01       		.byte	0x1
 6658 1cf9 3901     		.2byte	0x139
 6659 1cfb 541C0000 		.4byte	0x1c54
 6660 1cff 02       		.byte	0x2
 6661 1d00 91       		.byte	0x91
 6662 1d01 74       		.sleb128 -12
 6663 1d02 00       		.byte	0
 6664 1d03 1C       		.uleb128 0x1c
 6665 1d04 01       		.byte	0x1
 6666 1d05 61130000 		.4byte	.LASF508
 6667 1d09 01       		.byte	0x1
 6668 1d0a 4301     		.2byte	0x143
 6669 1d0c 01       		.byte	0x1
 6670 1d0d 25000000 		.4byte	0x25
 6671 1d11 40030000 		.4byte	.LFB4
 6672 1d15 A8040000 		.4byte	.LFE4
 6673 1d19 98000000 		.4byte	.LLST4
 6674 1d1d 01       		.byte	0x1
 6675 1d1e AA1D0000 		.4byte	0x1daa
 6676 1d22 1D       		.uleb128 0x1d
 6677 1d23 700C0000 		.4byte	.LASF448
 6678 1d27 01       		.byte	0x1
 6679 1d28 4501     		.2byte	0x145
 6680 1d2a 25000000 		.4byte	0x25
 6681 1d2e 02       		.byte	0x2
 6682 1d2f 91       		.byte	0x91
 6683 1d30 74       		.sleb128 -12
 6684 1d31 1D       		.uleb128 0x1d
 6685 1d32 ED0E0000 		.4byte	.LASF449
 6686 1d36 01       		.byte	0x1
 6687 1d37 4601     		.2byte	0x146
 6688 1d39 25000000 		.4byte	0x25
ARM GAS  /tmp/ccjXaC2Q.s 			page 134


 6689 1d3d 02       		.byte	0x2
 6690 1d3e 91       		.byte	0x91
 6691 1d3f 70       		.sleb128 -16
 6692 1d40 1D       		.uleb128 0x1d
 6693 1d41 25020000 		.4byte	.LASF450
 6694 1d45 01       		.byte	0x1
 6695 1d46 4701     		.2byte	0x147
 6696 1d48 25000000 		.4byte	0x25
 6697 1d4c 02       		.byte	0x2
 6698 1d4d 91       		.byte	0x91
 6699 1d4e 5C       		.sleb128 -36
 6700 1d4f 1D       		.uleb128 0x1d
 6701 1d50 D00D0000 		.4byte	.LASF451
 6702 1d54 01       		.byte	0x1
 6703 1d55 4801     		.2byte	0x148
 6704 1d57 3F000000 		.4byte	0x3f
 6705 1d5b 02       		.byte	0x2
 6706 1d5c 91       		.byte	0x91
 6707 1d5d 6F       		.sleb128 -17
 6708 1d5e 1D       		.uleb128 0x1d
 6709 1d5f 71090000 		.4byte	.LASF452
 6710 1d63 01       		.byte	0x1
 6711 1d64 4901     		.2byte	0x149
 6712 1d66 25000000 		.4byte	0x25
 6713 1d6a 02       		.byte	0x2
 6714 1d6b 91       		.byte	0x91
 6715 1d6c 68       		.sleb128 -24
 6716 1d6d 1D       		.uleb128 0x1d
 6717 1d6e 53130000 		.4byte	.LASF453
 6718 1d72 01       		.byte	0x1
 6719 1d73 4A01     		.2byte	0x14a
 6720 1d75 52000000 		.4byte	0x52
 6721 1d79 02       		.byte	0x2
 6722 1d7a 91       		.byte	0x91
 6723 1d7b 66       		.sleb128 -26
 6724 1d7c 1D       		.uleb128 0x1d
 6725 1d7d C20A0000 		.4byte	.LASF454
 6726 1d81 01       		.byte	0x1
 6727 1d82 4B01     		.2byte	0x14b
 6728 1d84 3F000000 		.4byte	0x3f
 6729 1d88 02       		.byte	0x2
 6730 1d89 91       		.byte	0x91
 6731 1d8a 65       		.sleb128 -27
 6732 1d8b 1D       		.uleb128 0x1d
 6733 1d8c 35020000 		.4byte	.LASF455
 6734 1d90 01       		.byte	0x1
 6735 1d91 4C01     		.2byte	0x14c
 6736 1d93 3F000000 		.4byte	0x3f
 6737 1d97 02       		.byte	0x2
 6738 1d98 91       		.byte	0x91
 6739 1d99 64       		.sleb128 -28
 6740 1d9a 1D       		.uleb128 0x1d
 6741 1d9b 73020000 		.4byte	.LASF456
 6742 1d9f 01       		.byte	0x1
 6743 1da0 4D01     		.2byte	0x14d
 6744 1da2 3F000000 		.4byte	0x3f
 6745 1da6 02       		.byte	0x2
ARM GAS  /tmp/ccjXaC2Q.s 			page 135


 6746 1da7 91       		.byte	0x91
 6747 1da8 63       		.sleb128 -29
 6748 1da9 00       		.byte	0
 6749 1daa 1E       		.uleb128 0x1e
 6750 1dab 0B110000 		.4byte	.LASF459
 6751 1daf 01       		.byte	0x1
 6752 1db0 9001     		.2byte	0x190
 6753 1db2 01       		.byte	0x1
 6754 1db3 A8040000 		.4byte	.LFB5
 6755 1db7 C8040000 		.4byte	.LFE5
 6756 1dbb 02       		.byte	0x2
 6757 1dbc 7D       		.byte	0x7d
 6758 1dbd 00       		.sleb128 0
 6759 1dbe 01       		.byte	0x1
 6760 1dbf 1F       		.uleb128 0x1f
 6761 1dc0 01       		.byte	0x1
 6762 1dc1 E20D0000 		.4byte	.LASF457
 6763 1dc5 01       		.byte	0x1
 6764 1dc6 D201     		.2byte	0x1d2
 6765 1dc8 01       		.byte	0x1
 6766 1dc9 C8040000 		.4byte	.LFB6
 6767 1dcd FC050000 		.4byte	.LFE6
 6768 1dd1 C4000000 		.4byte	.LLST5
 6769 1dd5 01       		.byte	0x1
 6770 1dd6 041E0000 		.4byte	0x1e04
 6771 1dda 20       		.uleb128 0x20
 6772 1ddb 6E00     		.ascii	"n\000"
 6773 1ddd 01       		.byte	0x1
 6774 1dde D401     		.2byte	0x1d4
 6775 1de0 25000000 		.4byte	0x25
 6776 1de4 02       		.byte	0x2
 6777 1de5 91       		.byte	0x91
 6778 1de6 7C       		.sleb128 -4
 6779 1de7 20       		.uleb128 0x20
 6780 1de8 6900     		.ascii	"i\000"
 6781 1dea 01       		.byte	0x1
 6782 1deb D501     		.2byte	0x1d5
 6783 1ded 25000000 		.4byte	0x25
 6784 1df1 02       		.byte	0x2
 6785 1df2 91       		.byte	0x91
 6786 1df3 78       		.sleb128 -8
 6787 1df4 1D       		.uleb128 0x1d
 6788 1df5 34110000 		.4byte	.LASF458
 6789 1df9 01       		.byte	0x1
 6790 1dfa D601     		.2byte	0x1d6
 6791 1dfc 25000000 		.4byte	0x25
 6792 1e00 02       		.byte	0x2
 6793 1e01 91       		.byte	0x91
 6794 1e02 74       		.sleb128 -12
 6795 1e03 00       		.byte	0
 6796 1e04 21       		.uleb128 0x21
 6797 1e05 77110000 		.4byte	.LASF460
 6798 1e09 01       		.byte	0x1
 6799 1e0a 0C02     		.2byte	0x20c
 6800 1e0c 01       		.byte	0x1
 6801 1e0d FC050000 		.4byte	.LFB7
 6802 1e11 84060000 		.4byte	.LFE7
ARM GAS  /tmp/ccjXaC2Q.s 			page 136


 6803 1e15 E4000000 		.4byte	.LLST6
 6804 1e19 01       		.byte	0x1
 6805 1e1a 1B       		.uleb128 0x1b
 6806 1e1b 01       		.byte	0x1
 6807 1e1c 09120000 		.4byte	.LASF461
 6808 1e20 01       		.byte	0x1
 6809 1e21 4C02     		.2byte	0x24c
 6810 1e23 01       		.byte	0x1
 6811 1e24 84060000 		.4byte	.LFB8
 6812 1e28 14080000 		.4byte	.LFE8
 6813 1e2c 04010000 		.4byte	.LLST7
 6814 1e30 01       		.byte	0x1
 6815 1e31 AE1E0000 		.4byte	0x1eae
 6816 1e35 1A       		.uleb128 0x1a
 6817 1e36 91060000 		.4byte	.LASF462
 6818 1e3a 01       		.byte	0x1
 6819 1e3b 4C02     		.2byte	0x24c
 6820 1e3d 25000000 		.4byte	0x25
 6821 1e41 02       		.byte	0x2
 6822 1e42 91       		.byte	0x91
 6823 1e43 64       		.sleb128 -28
 6824 1e44 1A       		.uleb128 0x1a
 6825 1e45 C9010000 		.4byte	.LASF463
 6826 1e49 01       		.byte	0x1
 6827 1e4a 4C02     		.2byte	0x24c
 6828 1e4c 3F000000 		.4byte	0x3f
 6829 1e50 02       		.byte	0x2
 6830 1e51 91       		.byte	0x91
 6831 1e52 63       		.sleb128 -29
 6832 1e53 1A       		.uleb128 0x1a
 6833 1e54 03120000 		.4byte	.LASF464
 6834 1e58 01       		.byte	0x1
 6835 1e59 4C02     		.2byte	0x24c
 6836 1e5b 3F000000 		.4byte	0x3f
 6837 1e5f 02       		.byte	0x2
 6838 1e60 91       		.byte	0x91
 6839 1e61 62       		.sleb128 -30
 6840 1e62 1A       		.uleb128 0x1a
 6841 1e63 3A020000 		.4byte	.LASF440
 6842 1e67 01       		.byte	0x1
 6843 1e68 4C02     		.2byte	0x24c
 6844 1e6a 25000000 		.4byte	0x25
 6845 1e6e 02       		.byte	0x2
 6846 1e6f 91       		.byte	0x91
 6847 1e70 5C       		.sleb128 -36
 6848 1e71 1D       		.uleb128 0x1d
 6849 1e72 65010000 		.4byte	.LASF465
 6850 1e76 01       		.byte	0x1
 6851 1e77 4E02     		.2byte	0x24e
 6852 1e79 3F000000 		.4byte	0x3f
 6853 1e7d 02       		.byte	0x2
 6854 1e7e 91       		.byte	0x91
 6855 1e7f 76       		.sleb128 -10
 6856 1e80 1D       		.uleb128 0x1d
 6857 1e81 C80A0000 		.4byte	.LASF466
 6858 1e85 01       		.byte	0x1
 6859 1e86 4F02     		.2byte	0x24f
ARM GAS  /tmp/ccjXaC2Q.s 			page 137


 6860 1e88 3F000000 		.4byte	0x3f
 6861 1e8c 02       		.byte	0x2
 6862 1e8d 91       		.byte	0x91
 6863 1e8e 77       		.sleb128 -9
 6864 1e8f 1D       		.uleb128 0x1d
 6865 1e90 53090000 		.4byte	.LASF467
 6866 1e94 01       		.byte	0x1
 6867 1e95 5002     		.2byte	0x250
 6868 1e97 25000000 		.4byte	0x25
 6869 1e9b 02       		.byte	0x2
 6870 1e9c 91       		.byte	0x91
 6871 1e9d 70       		.sleb128 -16
 6872 1e9e 1D       		.uleb128 0x1d
 6873 1e9f 3F020000 		.4byte	.LASF468
 6874 1ea3 01       		.byte	0x1
 6875 1ea4 5102     		.2byte	0x251
 6876 1ea6 3F000000 		.4byte	0x3f
 6877 1eaa 02       		.byte	0x2
 6878 1eab 91       		.byte	0x91
 6879 1eac 6F       		.sleb128 -17
 6880 1ead 00       		.byte	0
 6881 1eae 1E       		.uleb128 0x1e
 6882 1eaf EB0C0000 		.4byte	.LASF469
 6883 1eb3 01       		.byte	0x1
 6884 1eb4 8402     		.2byte	0x284
 6885 1eb6 01       		.byte	0x1
 6886 1eb7 14080000 		.4byte	.LFB9
 6887 1ebb C40A0000 		.4byte	.LFE9
 6888 1ebf 02       		.byte	0x2
 6889 1ec0 7D       		.byte	0x7d
 6890 1ec1 00       		.sleb128 0
 6891 1ec2 01       		.byte	0x1
 6892 1ec3 1E       		.uleb128 0x1e
 6893 1ec4 C10B0000 		.4byte	.LASF470
 6894 1ec8 01       		.byte	0x1
 6895 1ec9 B502     		.2byte	0x2b5
 6896 1ecb 01       		.byte	0x1
 6897 1ecc C40A0000 		.4byte	.LFB10
 6898 1ed0 C80A0000 		.4byte	.LFE10
 6899 1ed4 02       		.byte	0x2
 6900 1ed5 7D       		.byte	0x7d
 6901 1ed6 00       		.sleb128 0
 6902 1ed7 01       		.byte	0x1
 6903 1ed8 21       		.uleb128 0x21
 6904 1ed9 ED110000 		.4byte	.LASF471
 6905 1edd 01       		.byte	0x1
 6906 1ede BC02     		.2byte	0x2bc
 6907 1ee0 01       		.byte	0x1
 6908 1ee1 C80A0000 		.4byte	.LFB11
 6909 1ee5 E80A0000 		.4byte	.LFE11
 6910 1ee9 30010000 		.4byte	.LLST8
 6911 1eed 01       		.byte	0x1
 6912 1eee 21       		.uleb128 0x21
 6913 1eef 54020000 		.4byte	.LASF472
 6914 1ef3 01       		.byte	0x1
 6915 1ef4 C202     		.2byte	0x2c2
 6916 1ef6 01       		.byte	0x1
ARM GAS  /tmp/ccjXaC2Q.s 			page 138


 6917 1ef7 E80A0000 		.4byte	.LFB12
 6918 1efb 080B0000 		.4byte	.LFE12
 6919 1eff 50010000 		.4byte	.LLST9
 6920 1f03 01       		.byte	0x1
 6921 1f04 21       		.uleb128 0x21
 6922 1f05 28000000 		.4byte	.LASF473
 6923 1f09 01       		.byte	0x1
 6924 1f0a C802     		.2byte	0x2c8
 6925 1f0c 01       		.byte	0x1
 6926 1f0d 080B0000 		.4byte	.LFB13
 6927 1f11 280B0000 		.4byte	.LFE13
 6928 1f15 70010000 		.4byte	.LLST10
 6929 1f19 01       		.byte	0x1
 6930 1f1a 21       		.uleb128 0x21
 6931 1f1b 4A110000 		.4byte	.LASF474
 6932 1f1f 01       		.byte	0x1
 6933 1f20 CE02     		.2byte	0x2ce
 6934 1f22 01       		.byte	0x1
 6935 1f23 280B0000 		.4byte	.LFB14
 6936 1f27 480B0000 		.4byte	.LFE14
 6937 1f2b 90010000 		.4byte	.LLST11
 6938 1f2f 01       		.byte	0x1
 6939 1f30 21       		.uleb128 0x21
 6940 1f31 55010000 		.4byte	.LASF475
 6941 1f35 01       		.byte	0x1
 6942 1f36 D402     		.2byte	0x2d4
 6943 1f38 01       		.byte	0x1
 6944 1f39 480B0000 		.4byte	.LFB15
 6945 1f3d 680B0000 		.4byte	.LFE15
 6946 1f41 B0010000 		.4byte	.LLST12
 6947 1f45 01       		.byte	0x1
 6948 1f46 21       		.uleb128 0x21
 6949 1f47 5C140000 		.4byte	.LASF476
 6950 1f4b 01       		.byte	0x1
 6951 1f4c DA02     		.2byte	0x2da
 6952 1f4e 01       		.byte	0x1
 6953 1f4f 680B0000 		.4byte	.LFB16
 6954 1f53 880B0000 		.4byte	.LFE16
 6955 1f57 D0010000 		.4byte	.LLST13
 6956 1f5b 01       		.byte	0x1
 6957 1f5c 21       		.uleb128 0x21
 6958 1f5d E6040000 		.4byte	.LASF477
 6959 1f61 01       		.byte	0x1
 6960 1f62 E002     		.2byte	0x2e0
 6961 1f64 01       		.byte	0x1
 6962 1f65 880B0000 		.4byte	.LFB17
 6963 1f69 A80B0000 		.4byte	.LFE17
 6964 1f6d F0010000 		.4byte	.LLST14
 6965 1f71 01       		.byte	0x1
 6966 1f72 21       		.uleb128 0x21
 6967 1f73 F5040000 		.4byte	.LASF478
 6968 1f77 01       		.byte	0x1
 6969 1f78 E602     		.2byte	0x2e6
 6970 1f7a 01       		.byte	0x1
 6971 1f7b A80B0000 		.4byte	.LFB18
 6972 1f7f C80B0000 		.4byte	.LFE18
 6973 1f83 10020000 		.4byte	.LLST15
ARM GAS  /tmp/ccjXaC2Q.s 			page 139


 6974 1f87 01       		.byte	0x1
 6975 1f88 21       		.uleb128 0x21
 6976 1f89 D40E0000 		.4byte	.LASF479
 6977 1f8d 01       		.byte	0x1
 6978 1f8e EC02     		.2byte	0x2ec
 6979 1f90 01       		.byte	0x1
 6980 1f91 C80B0000 		.4byte	.LFB19
 6981 1f95 E80B0000 		.4byte	.LFE19
 6982 1f99 30020000 		.4byte	.LLST16
 6983 1f9d 01       		.byte	0x1
 6984 1f9e 21       		.uleb128 0x21
 6985 1f9f BE080000 		.4byte	.LASF480
 6986 1fa3 01       		.byte	0x1
 6987 1fa4 F202     		.2byte	0x2f2
 6988 1fa6 01       		.byte	0x1
 6989 1fa7 E80B0000 		.4byte	.LFB20
 6990 1fab 080C0000 		.4byte	.LFE20
 6991 1faf 50020000 		.4byte	.LLST17
 6992 1fb3 01       		.byte	0x1
 6993 1fb4 21       		.uleb128 0x21
 6994 1fb5 E9010000 		.4byte	.LASF481
 6995 1fb9 01       		.byte	0x1
 6996 1fba F802     		.2byte	0x2f8
 6997 1fbc 01       		.byte	0x1
 6998 1fbd 080C0000 		.4byte	.LFB21
 6999 1fc1 280C0000 		.4byte	.LFE21
 7000 1fc5 70020000 		.4byte	.LLST18
 7001 1fc9 01       		.byte	0x1
 7002 1fca 21       		.uleb128 0x21
 7003 1fcb CE010000 		.4byte	.LASF482
 7004 1fcf 01       		.byte	0x1
 7005 1fd0 FE02     		.2byte	0x2fe
 7006 1fd2 01       		.byte	0x1
 7007 1fd3 280C0000 		.4byte	.LFB22
 7008 1fd7 480C0000 		.4byte	.LFE22
 7009 1fdb 90020000 		.4byte	.LLST19
 7010 1fdf 01       		.byte	0x1
 7011 1fe0 21       		.uleb128 0x21
 7012 1fe1 FD030000 		.4byte	.LASF483
 7013 1fe5 01       		.byte	0x1
 7014 1fe6 0403     		.2byte	0x304
 7015 1fe8 01       		.byte	0x1
 7016 1fe9 480C0000 		.4byte	.LFB23
 7017 1fed 680C0000 		.4byte	.LFE23
 7018 1ff1 B0020000 		.4byte	.LLST20
 7019 1ff5 01       		.byte	0x1
 7020 1ff6 21       		.uleb128 0x21
 7021 1ff7 DC010000 		.4byte	.LASF484
 7022 1ffb 01       		.byte	0x1
 7023 1ffc 0A03     		.2byte	0x30a
 7024 1ffe 01       		.byte	0x1
 7025 1fff 680C0000 		.4byte	.LFB24
 7026 2003 880C0000 		.4byte	.LFE24
 7027 2007 D0020000 		.4byte	.LLST21
 7028 200b 01       		.byte	0x1
 7029 200c 21       		.uleb128 0x21
 7030 200d 22120000 		.4byte	.LASF485
ARM GAS  /tmp/ccjXaC2Q.s 			page 140


 7031 2011 01       		.byte	0x1
 7032 2012 1003     		.2byte	0x310
 7033 2014 01       		.byte	0x1
 7034 2015 880C0000 		.4byte	.LFB25
 7035 2019 A80C0000 		.4byte	.LFE25
 7036 201d F0020000 		.4byte	.LLST22
 7037 2021 01       		.byte	0x1
 7038 2022 21       		.uleb128 0x21
 7039 2023 31120000 		.4byte	.LASF486
 7040 2027 01       		.byte	0x1
 7041 2028 1603     		.2byte	0x316
 7042 202a 01       		.byte	0x1
 7043 202b A80C0000 		.4byte	.LFB26
 7044 202f C80C0000 		.4byte	.LFE26
 7045 2033 10030000 		.4byte	.LLST23
 7046 2037 01       		.byte	0x1
 7047 2038 21       		.uleb128 0x21
 7048 2039 40120000 		.4byte	.LASF487
 7049 203d 01       		.byte	0x1
 7050 203e 1C03     		.2byte	0x31c
 7051 2040 01       		.byte	0x1
 7052 2041 C80C0000 		.4byte	.LFB27
 7053 2045 E80C0000 		.4byte	.LFE27
 7054 2049 30030000 		.4byte	.LLST24
 7055 204d 01       		.byte	0x1
 7056 204e 21       		.uleb128 0x21
 7057 204f 4F120000 		.4byte	.LASF488
 7058 2053 01       		.byte	0x1
 7059 2054 2203     		.2byte	0x322
 7060 2056 01       		.byte	0x1
 7061 2057 E80C0000 		.4byte	.LFB28
 7062 205b 080D0000 		.4byte	.LFE28
 7063 205f 50030000 		.4byte	.LLST25
 7064 2063 01       		.byte	0x1
 7065 2064 21       		.uleb128 0x21
 7066 2065 88130000 		.4byte	.LASF489
 7067 2069 01       		.byte	0x1
 7068 206a 2803     		.2byte	0x328
 7069 206c 01       		.byte	0x1
 7070 206d 080D0000 		.4byte	.LFB29
 7071 2071 280D0000 		.4byte	.LFE29
 7072 2075 70030000 		.4byte	.LLST26
 7073 2079 01       		.byte	0x1
 7074 207a 21       		.uleb128 0x21
 7075 207b 3C110000 		.4byte	.LASF490
 7076 207f 01       		.byte	0x1
 7077 2080 2E03     		.2byte	0x32e
 7078 2082 01       		.byte	0x1
 7079 2083 280D0000 		.4byte	.LFB30
 7080 2087 480D0000 		.4byte	.LFE30
 7081 208b 90030000 		.4byte	.LLST27
 7082 208f 01       		.byte	0x1
 7083 2090 21       		.uleb128 0x21
 7084 2091 BC010000 		.4byte	.LASF491
 7085 2095 01       		.byte	0x1
 7086 2096 3403     		.2byte	0x334
 7087 2098 01       		.byte	0x1
ARM GAS  /tmp/ccjXaC2Q.s 			page 141


 7088 2099 480D0000 		.4byte	.LFB31
 7089 209d 680D0000 		.4byte	.LFE31
 7090 20a1 B0030000 		.4byte	.LLST28
 7091 20a5 01       		.byte	0x1
 7092 20a6 21       		.uleb128 0x21
 7093 20a7 5F0A0000 		.4byte	.LASF492
 7094 20ab 01       		.byte	0x1
 7095 20ac 3A03     		.2byte	0x33a
 7096 20ae 01       		.byte	0x1
 7097 20af 680D0000 		.4byte	.LFB32
 7098 20b3 880D0000 		.4byte	.LFE32
 7099 20b7 D0030000 		.4byte	.LLST29
 7100 20bb 01       		.byte	0x1
 7101 20bc 21       		.uleb128 0x21
 7102 20bd D80C0000 		.4byte	.LASF493
 7103 20c1 01       		.byte	0x1
 7104 20c2 4003     		.2byte	0x340
 7105 20c4 01       		.byte	0x1
 7106 20c5 880D0000 		.4byte	.LFB33
 7107 20c9 A80D0000 		.4byte	.LFE33
 7108 20cd F0030000 		.4byte	.LLST30
 7109 20d1 01       		.byte	0x1
 7110 20d2 21       		.uleb128 0x21
 7111 20d3 610C0000 		.4byte	.LASF494
 7112 20d7 01       		.byte	0x1
 7113 20d8 4603     		.2byte	0x346
 7114 20da 01       		.byte	0x1
 7115 20db A80D0000 		.4byte	.LFB34
 7116 20df C80D0000 		.4byte	.LFE34
 7117 20e3 10040000 		.4byte	.LLST31
 7118 20e7 01       		.byte	0x1
 7119 20e8 21       		.uleb128 0x21
 7120 20e9 5F060000 		.4byte	.LASF495
 7121 20ed 01       		.byte	0x1
 7122 20ee 4C03     		.2byte	0x34c
 7123 20f0 01       		.byte	0x1
 7124 20f1 C80D0000 		.4byte	.LFB35
 7125 20f5 E80D0000 		.4byte	.LFE35
 7126 20f9 30040000 		.4byte	.LLST32
 7127 20fd 01       		.byte	0x1
 7128 20fe 21       		.uleb128 0x21
 7129 20ff 7C060000 		.4byte	.LASF496
 7130 2103 01       		.byte	0x1
 7131 2104 5203     		.2byte	0x352
 7132 2106 01       		.byte	0x1
 7133 2107 E80D0000 		.4byte	.LFB36
 7134 210b 080E0000 		.4byte	.LFE36
 7135 210f 50040000 		.4byte	.LLST33
 7136 2113 01       		.byte	0x1
 7137 2114 21       		.uleb128 0x21
 7138 2115 6C140000 		.4byte	.LASF497
 7139 2119 01       		.byte	0x1
 7140 211a 5803     		.2byte	0x358
 7141 211c 01       		.byte	0x1
 7142 211d 080E0000 		.4byte	.LFB37
 7143 2121 280E0000 		.4byte	.LFE37
 7144 2125 70040000 		.4byte	.LLST34
ARM GAS  /tmp/ccjXaC2Q.s 			page 142


 7145 2129 01       		.byte	0x1
 7146 212a 21       		.uleb128 0x21
 7147 212b 7C140000 		.4byte	.LASF498
 7148 212f 01       		.byte	0x1
 7149 2130 5E03     		.2byte	0x35e
 7150 2132 01       		.byte	0x1
 7151 2133 280E0000 		.4byte	.LFB38
 7152 2137 480E0000 		.4byte	.LFE38
 7153 213b 90040000 		.4byte	.LLST35
 7154 213f 01       		.byte	0x1
 7155 2140 21       		.uleb128 0x21
 7156 2141 13120000 		.4byte	.LASF499
 7157 2145 01       		.byte	0x1
 7158 2146 6403     		.2byte	0x364
 7159 2148 01       		.byte	0x1
 7160 2149 480E0000 		.4byte	.LFB39
 7161 214d 680E0000 		.4byte	.LFE39
 7162 2151 B0040000 		.4byte	.LLST36
 7163 2155 01       		.byte	0x1
 7164 2156 21       		.uleb128 0x21
 7165 2157 11050000 		.4byte	.LASF500
 7166 215b 01       		.byte	0x1
 7167 215c 6A03     		.2byte	0x36a
 7168 215e 01       		.byte	0x1
 7169 215f 680E0000 		.4byte	.LFB40
 7170 2163 880E0000 		.4byte	.LFE40
 7171 2167 D0040000 		.4byte	.LLST37
 7172 216b 01       		.byte	0x1
 7173 216c 21       		.uleb128 0x21
 7174 216d D6080000 		.4byte	.LASF501
 7175 2171 01       		.byte	0x1
 7176 2172 7003     		.2byte	0x370
 7177 2174 01       		.byte	0x1
 7178 2175 880E0000 		.4byte	.LFB41
 7179 2179 A80E0000 		.4byte	.LFE41
 7180 217d F0040000 		.4byte	.LLST38
 7181 2181 01       		.byte	0x1
 7182 2182 21       		.uleb128 0x21
 7183 2183 FB070000 		.4byte	.LASF502
 7184 2187 01       		.byte	0x1
 7185 2188 7603     		.2byte	0x376
 7186 218a 01       		.byte	0x1
 7187 218b A80E0000 		.4byte	.LFB42
 7188 218f C80E0000 		.4byte	.LFE42
 7189 2193 10050000 		.4byte	.LLST39
 7190 2197 01       		.byte	0x1
 7191 2198 0D       		.uleb128 0xd
 7192 2199 A1190000 		.4byte	0x19a1
 7193 219d A8210000 		.4byte	0x21a8
 7194 21a1 0E       		.uleb128 0xe
 7195 21a2 9A190000 		.4byte	0x199a
 7196 21a6 0A       		.byte	0xa
 7197 21a7 00       		.byte	0
 7198 21a8 22       		.uleb128 0x22
 7199 21a9 DA0D0000 		.4byte	.LASF503
 7200 21ad 03       		.byte	0x3
 7201 21ae 3F       		.byte	0x3f
ARM GAS  /tmp/ccjXaC2Q.s 			page 143


 7202 21af 98210000 		.4byte	0x2198
 7203 21b3 01       		.byte	0x1
 7204 21b4 05       		.byte	0x5
 7205 21b5 03       		.byte	0x3
 7206 21b6 00000000 		.4byte	mcuPins
 7207 21ba 22       		.uleb128 0x22
 7208 21bb 39090000 		.4byte	.LASF504
 7209 21bf 01       		.byte	0x1
 7210 21c0 2E       		.byte	0x2e
 7211 21c1 25000000 		.4byte	0x25
 7212 21c5 01       		.byte	0x1
 7213 21c6 05       		.byte	0x5
 7214 21c7 03       		.byte	0x3
 7215 21c8 00000000 		.4byte	VIC_SpuriousInt
 7216 21cc 00       		.byte	0
 7217              		.section	.debug_abbrev,"",%progbits
 7218              	.Ldebug_abbrev0:
 7219 0000 01       		.uleb128 0x1
 7220 0001 11       		.uleb128 0x11
 7221 0002 01       		.byte	0x1
 7222 0003 25       		.uleb128 0x25
 7223 0004 0E       		.uleb128 0xe
 7224 0005 13       		.uleb128 0x13
 7225 0006 0B       		.uleb128 0xb
 7226 0007 03       		.uleb128 0x3
 7227 0008 0E       		.uleb128 0xe
 7228 0009 1B       		.uleb128 0x1b
 7229 000a 0E       		.uleb128 0xe
 7230 000b 11       		.uleb128 0x11
 7231 000c 01       		.uleb128 0x1
 7232 000d 12       		.uleb128 0x12
 7233 000e 01       		.uleb128 0x1
 7234 000f 10       		.uleb128 0x10
 7235 0010 06       		.uleb128 0x6
 7236 0011 00       		.byte	0
 7237 0012 00       		.byte	0
 7238 0013 02       		.uleb128 0x2
 7239 0014 24       		.uleb128 0x24
 7240 0015 00       		.byte	0
 7241 0016 0B       		.uleb128 0xb
 7242 0017 0B       		.uleb128 0xb
 7243 0018 3E       		.uleb128 0x3e
 7244 0019 0B       		.uleb128 0xb
 7245 001a 03       		.uleb128 0x3
 7246 001b 0E       		.uleb128 0xe
 7247 001c 00       		.byte	0
 7248 001d 00       		.byte	0
 7249 001e 03       		.uleb128 0x3
 7250 001f 24       		.uleb128 0x24
 7251 0020 00       		.byte	0
 7252 0021 0B       		.uleb128 0xb
 7253 0022 0B       		.uleb128 0xb
 7254 0023 3E       		.uleb128 0x3e
 7255 0024 0B       		.uleb128 0xb
 7256 0025 03       		.uleb128 0x3
 7257 0026 08       		.uleb128 0x8
 7258 0027 00       		.byte	0
ARM GAS  /tmp/ccjXaC2Q.s 			page 144


 7259 0028 00       		.byte	0
 7260 0029 04       		.uleb128 0x4
 7261 002a 16       		.uleb128 0x16
 7262 002b 00       		.byte	0
 7263 002c 03       		.uleb128 0x3
 7264 002d 0E       		.uleb128 0xe
 7265 002e 3A       		.uleb128 0x3a
 7266 002f 0B       		.uleb128 0xb
 7267 0030 3B       		.uleb128 0x3b
 7268 0031 05       		.uleb128 0x5
 7269 0032 49       		.uleb128 0x49
 7270 0033 13       		.uleb128 0x13
 7271 0034 00       		.byte	0
 7272 0035 00       		.byte	0
 7273 0036 05       		.uleb128 0x5
 7274 0037 13       		.uleb128 0x13
 7275 0038 01       		.byte	0x1
 7276 0039 03       		.uleb128 0x3
 7277 003a 0E       		.uleb128 0xe
 7278 003b 0B       		.uleb128 0xb
 7279 003c 05       		.uleb128 0x5
 7280 003d 3A       		.uleb128 0x3a
 7281 003e 0B       		.uleb128 0xb
 7282 003f 3B       		.uleb128 0x3b
 7283 0040 05       		.uleb128 0x5
 7284 0041 01       		.uleb128 0x1
 7285 0042 13       		.uleb128 0x13
 7286 0043 00       		.byte	0
 7287 0044 00       		.byte	0
 7288 0045 06       		.uleb128 0x6
 7289 0046 0D       		.uleb128 0xd
 7290 0047 00       		.byte	0
 7291 0048 03       		.uleb128 0x3
 7292 0049 0E       		.uleb128 0xe
 7293 004a 3A       		.uleb128 0x3a
 7294 004b 0B       		.uleb128 0xb
 7295 004c 3B       		.uleb128 0x3b
 7296 004d 05       		.uleb128 0x5
 7297 004e 49       		.uleb128 0x49
 7298 004f 13       		.uleb128 0x13
 7299 0050 38       		.uleb128 0x38
 7300 0051 0A       		.uleb128 0xa
 7301 0052 00       		.byte	0
 7302 0053 00       		.byte	0
 7303 0054 07       		.uleb128 0x7
 7304 0055 0D       		.uleb128 0xd
 7305 0056 00       		.byte	0
 7306 0057 03       		.uleb128 0x3
 7307 0058 08       		.uleb128 0x8
 7308 0059 3A       		.uleb128 0x3a
 7309 005a 0B       		.uleb128 0xb
 7310 005b 3B       		.uleb128 0x3b
 7311 005c 05       		.uleb128 0x5
 7312 005d 49       		.uleb128 0x49
 7313 005e 13       		.uleb128 0x13
 7314 005f 38       		.uleb128 0x38
 7315 0060 0A       		.uleb128 0xa
ARM GAS  /tmp/ccjXaC2Q.s 			page 145


 7316 0061 00       		.byte	0
 7317 0062 00       		.byte	0
 7318 0063 08       		.uleb128 0x8
 7319 0064 35       		.uleb128 0x35
 7320 0065 00       		.byte	0
 7321 0066 49       		.uleb128 0x49
 7322 0067 13       		.uleb128 0x13
 7323 0068 00       		.byte	0
 7324 0069 00       		.byte	0
 7325 006a 09       		.uleb128 0x9
 7326 006b 13       		.uleb128 0x13
 7327 006c 01       		.byte	0x1
 7328 006d 0B       		.uleb128 0xb
 7329 006e 0B       		.uleb128 0xb
 7330 006f 3A       		.uleb128 0x3a
 7331 0070 0B       		.uleb128 0xb
 7332 0071 3B       		.uleb128 0x3b
 7333 0072 0B       		.uleb128 0xb
 7334 0073 01       		.uleb128 0x1
 7335 0074 13       		.uleb128 0x13
 7336 0075 00       		.byte	0
 7337 0076 00       		.byte	0
 7338 0077 0A       		.uleb128 0xa
 7339 0078 0D       		.uleb128 0xd
 7340 0079 00       		.byte	0
 7341 007a 03       		.uleb128 0x3
 7342 007b 0E       		.uleb128 0xe
 7343 007c 3A       		.uleb128 0x3a
 7344 007d 0B       		.uleb128 0xb
 7345 007e 3B       		.uleb128 0x3b
 7346 007f 0B       		.uleb128 0xb
 7347 0080 49       		.uleb128 0x49
 7348 0081 13       		.uleb128 0x13
 7349 0082 38       		.uleb128 0x38
 7350 0083 0A       		.uleb128 0xa
 7351 0084 00       		.byte	0
 7352 0085 00       		.byte	0
 7353 0086 0B       		.uleb128 0xb
 7354 0087 16       		.uleb128 0x16
 7355 0088 00       		.byte	0
 7356 0089 03       		.uleb128 0x3
 7357 008a 0E       		.uleb128 0xe
 7358 008b 3A       		.uleb128 0x3a
 7359 008c 0B       		.uleb128 0xb
 7360 008d 3B       		.uleb128 0x3b
 7361 008e 0B       		.uleb128 0xb
 7362 008f 49       		.uleb128 0x49
 7363 0090 13       		.uleb128 0x13
 7364 0091 00       		.byte	0
 7365 0092 00       		.byte	0
 7366 0093 0C       		.uleb128 0xc
 7367 0094 0D       		.uleb128 0xd
 7368 0095 00       		.byte	0
 7369 0096 03       		.uleb128 0x3
 7370 0097 08       		.uleb128 0x8
 7371 0098 3A       		.uleb128 0x3a
 7372 0099 0B       		.uleb128 0xb
ARM GAS  /tmp/ccjXaC2Q.s 			page 146


 7373 009a 3B       		.uleb128 0x3b
 7374 009b 0B       		.uleb128 0xb
 7375 009c 49       		.uleb128 0x49
 7376 009d 13       		.uleb128 0x13
 7377 009e 38       		.uleb128 0x38
 7378 009f 0A       		.uleb128 0xa
 7379 00a0 00       		.byte	0
 7380 00a1 00       		.byte	0
 7381 00a2 0D       		.uleb128 0xd
 7382 00a3 01       		.uleb128 0x1
 7383 00a4 01       		.byte	0x1
 7384 00a5 49       		.uleb128 0x49
 7385 00a6 13       		.uleb128 0x13
 7386 00a7 01       		.uleb128 0x1
 7387 00a8 13       		.uleb128 0x13
 7388 00a9 00       		.byte	0
 7389 00aa 00       		.byte	0
 7390 00ab 0E       		.uleb128 0xe
 7391 00ac 21       		.uleb128 0x21
 7392 00ad 00       		.byte	0
 7393 00ae 49       		.uleb128 0x49
 7394 00af 13       		.uleb128 0x13
 7395 00b0 2F       		.uleb128 0x2f
 7396 00b1 0B       		.uleb128 0xb
 7397 00b2 00       		.byte	0
 7398 00b3 00       		.byte	0
 7399 00b4 0F       		.uleb128 0xf
 7400 00b5 17       		.uleb128 0x17
 7401 00b6 01       		.byte	0x1
 7402 00b7 0B       		.uleb128 0xb
 7403 00b8 0B       		.uleb128 0xb
 7404 00b9 3A       		.uleb128 0x3a
 7405 00ba 0B       		.uleb128 0xb
 7406 00bb 3B       		.uleb128 0x3b
 7407 00bc 0B       		.uleb128 0xb
 7408 00bd 01       		.uleb128 0x1
 7409 00be 13       		.uleb128 0x13
 7410 00bf 00       		.byte	0
 7411 00c0 00       		.byte	0
 7412 00c1 10       		.uleb128 0x10
 7413 00c2 0D       		.uleb128 0xd
 7414 00c3 00       		.byte	0
 7415 00c4 03       		.uleb128 0x3
 7416 00c5 08       		.uleb128 0x8
 7417 00c6 3A       		.uleb128 0x3a
 7418 00c7 0B       		.uleb128 0xb
 7419 00c8 3B       		.uleb128 0x3b
 7420 00c9 0B       		.uleb128 0xb
 7421 00ca 49       		.uleb128 0x49
 7422 00cb 13       		.uleb128 0x13
 7423 00cc 00       		.byte	0
 7424 00cd 00       		.byte	0
 7425 00ce 11       		.uleb128 0x11
 7426 00cf 0D       		.uleb128 0xd
 7427 00d0 00       		.byte	0
 7428 00d1 49       		.uleb128 0x49
 7429 00d2 13       		.uleb128 0x13
ARM GAS  /tmp/ccjXaC2Q.s 			page 147


 7430 00d3 00       		.byte	0
 7431 00d4 00       		.byte	0
 7432 00d5 12       		.uleb128 0x12
 7433 00d6 13       		.uleb128 0x13
 7434 00d7 01       		.byte	0x1
 7435 00d8 03       		.uleb128 0x3
 7436 00d9 0E       		.uleb128 0xe
 7437 00da 0B       		.uleb128 0xb
 7438 00db 0B       		.uleb128 0xb
 7439 00dc 3A       		.uleb128 0x3a
 7440 00dd 0B       		.uleb128 0xb
 7441 00de 3B       		.uleb128 0x3b
 7442 00df 0B       		.uleb128 0xb
 7443 00e0 01       		.uleb128 0x1
 7444 00e1 13       		.uleb128 0x13
 7445 00e2 00       		.byte	0
 7446 00e3 00       		.byte	0
 7447 00e4 13       		.uleb128 0x13
 7448 00e5 0D       		.uleb128 0xd
 7449 00e6 00       		.byte	0
 7450 00e7 49       		.uleb128 0x49
 7451 00e8 13       		.uleb128 0x13
 7452 00e9 38       		.uleb128 0x38
 7453 00ea 0A       		.uleb128 0xa
 7454 00eb 00       		.byte	0
 7455 00ec 00       		.byte	0
 7456 00ed 14       		.uleb128 0x14
 7457 00ee 2E       		.uleb128 0x2e
 7458 00ef 01       		.byte	0x1
 7459 00f0 3F       		.uleb128 0x3f
 7460 00f1 0C       		.uleb128 0xc
 7461 00f2 03       		.uleb128 0x3
 7462 00f3 0E       		.uleb128 0xe
 7463 00f4 3A       		.uleb128 0x3a
 7464 00f5 0B       		.uleb128 0xb
 7465 00f6 3B       		.uleb128 0x3b
 7466 00f7 0B       		.uleb128 0xb
 7467 00f8 27       		.uleb128 0x27
 7468 00f9 0C       		.uleb128 0xc
 7469 00fa 11       		.uleb128 0x11
 7470 00fb 01       		.uleb128 0x1
 7471 00fc 12       		.uleb128 0x12
 7472 00fd 01       		.uleb128 0x1
 7473 00fe 40       		.uleb128 0x40
 7474 00ff 06       		.uleb128 0x6
 7475 0100 9642     		.uleb128 0x2116
 7476 0102 0C       		.uleb128 0xc
 7477 0103 01       		.uleb128 0x1
 7478 0104 13       		.uleb128 0x13
 7479 0105 00       		.byte	0
 7480 0106 00       		.byte	0
 7481 0107 15       		.uleb128 0x15
 7482 0108 34       		.uleb128 0x34
 7483 0109 00       		.byte	0
 7484 010a 03       		.uleb128 0x3
 7485 010b 0E       		.uleb128 0xe
 7486 010c 3A       		.uleb128 0x3a
ARM GAS  /tmp/ccjXaC2Q.s 			page 148


 7487 010d 0B       		.uleb128 0xb
 7488 010e 3B       		.uleb128 0x3b
 7489 010f 0B       		.uleb128 0xb
 7490 0110 49       		.uleb128 0x49
 7491 0111 13       		.uleb128 0x13
 7492 0112 02       		.uleb128 0x2
 7493 0113 0A       		.uleb128 0xa
 7494 0114 00       		.byte	0
 7495 0115 00       		.byte	0
 7496 0116 16       		.uleb128 0x16
 7497 0117 0F       		.uleb128 0xf
 7498 0118 00       		.byte	0
 7499 0119 0B       		.uleb128 0xb
 7500 011a 0B       		.uleb128 0xb
 7501 011b 49       		.uleb128 0x49
 7502 011c 13       		.uleb128 0x13
 7503 011d 00       		.byte	0
 7504 011e 00       		.byte	0
 7505 011f 17       		.uleb128 0x17
 7506 0120 2E       		.uleb128 0x2e
 7507 0121 01       		.byte	0x1
 7508 0122 03       		.uleb128 0x3
 7509 0123 0E       		.uleb128 0xe
 7510 0124 3A       		.uleb128 0x3a
 7511 0125 0B       		.uleb128 0xb
 7512 0126 3B       		.uleb128 0x3b
 7513 0127 0B       		.uleb128 0xb
 7514 0128 27       		.uleb128 0x27
 7515 0129 0C       		.uleb128 0xc
 7516 012a 11       		.uleb128 0x11
 7517 012b 01       		.uleb128 0x1
 7518 012c 12       		.uleb128 0x12
 7519 012d 01       		.uleb128 0x1
 7520 012e 40       		.uleb128 0x40
 7521 012f 06       		.uleb128 0x6
 7522 0130 9742     		.uleb128 0x2117
 7523 0132 0C       		.uleb128 0xc
 7524 0133 01       		.uleb128 0x1
 7525 0134 13       		.uleb128 0x13
 7526 0135 00       		.byte	0
 7527 0136 00       		.byte	0
 7528 0137 18       		.uleb128 0x18
 7529 0138 05       		.uleb128 0x5
 7530 0139 00       		.byte	0
 7531 013a 03       		.uleb128 0x3
 7532 013b 0E       		.uleb128 0xe
 7533 013c 3A       		.uleb128 0x3a
 7534 013d 0B       		.uleb128 0xb
 7535 013e 3B       		.uleb128 0x3b
 7536 013f 0B       		.uleb128 0xb
 7537 0140 49       		.uleb128 0x49
 7538 0141 13       		.uleb128 0x13
 7539 0142 02       		.uleb128 0x2
 7540 0143 0A       		.uleb128 0xa
 7541 0144 00       		.byte	0
 7542 0145 00       		.byte	0
 7543 0146 19       		.uleb128 0x19
ARM GAS  /tmp/ccjXaC2Q.s 			page 149


 7544 0147 2E       		.uleb128 0x2e
 7545 0148 01       		.byte	0x1
 7546 0149 03       		.uleb128 0x3
 7547 014a 0E       		.uleb128 0xe
 7548 014b 3A       		.uleb128 0x3a
 7549 014c 0B       		.uleb128 0xb
 7550 014d 3B       		.uleb128 0x3b
 7551 014e 05       		.uleb128 0x5
 7552 014f 27       		.uleb128 0x27
 7553 0150 0C       		.uleb128 0xc
 7554 0151 11       		.uleb128 0x11
 7555 0152 01       		.uleb128 0x1
 7556 0153 12       		.uleb128 0x12
 7557 0154 01       		.uleb128 0x1
 7558 0155 40       		.uleb128 0x40
 7559 0156 06       		.uleb128 0x6
 7560 0157 9742     		.uleb128 0x2117
 7561 0159 0C       		.uleb128 0xc
 7562 015a 01       		.uleb128 0x1
 7563 015b 13       		.uleb128 0x13
 7564 015c 00       		.byte	0
 7565 015d 00       		.byte	0
 7566 015e 1A       		.uleb128 0x1a
 7567 015f 05       		.uleb128 0x5
 7568 0160 00       		.byte	0
 7569 0161 03       		.uleb128 0x3
 7570 0162 0E       		.uleb128 0xe
 7571 0163 3A       		.uleb128 0x3a
 7572 0164 0B       		.uleb128 0xb
 7573 0165 3B       		.uleb128 0x3b
 7574 0166 05       		.uleb128 0x5
 7575 0167 49       		.uleb128 0x49
 7576 0168 13       		.uleb128 0x13
 7577 0169 02       		.uleb128 0x2
 7578 016a 0A       		.uleb128 0xa
 7579 016b 00       		.byte	0
 7580 016c 00       		.byte	0
 7581 016d 1B       		.uleb128 0x1b
 7582 016e 2E       		.uleb128 0x2e
 7583 016f 01       		.byte	0x1
 7584 0170 3F       		.uleb128 0x3f
 7585 0171 0C       		.uleb128 0xc
 7586 0172 03       		.uleb128 0x3
 7587 0173 0E       		.uleb128 0xe
 7588 0174 3A       		.uleb128 0x3a
 7589 0175 0B       		.uleb128 0xb
 7590 0176 3B       		.uleb128 0x3b
 7591 0177 05       		.uleb128 0x5
 7592 0178 27       		.uleb128 0x27
 7593 0179 0C       		.uleb128 0xc
 7594 017a 11       		.uleb128 0x11
 7595 017b 01       		.uleb128 0x1
 7596 017c 12       		.uleb128 0x12
 7597 017d 01       		.uleb128 0x1
 7598 017e 40       		.uleb128 0x40
 7599 017f 06       		.uleb128 0x6
 7600 0180 9642     		.uleb128 0x2116
ARM GAS  /tmp/ccjXaC2Q.s 			page 150


 7601 0182 0C       		.uleb128 0xc
 7602 0183 01       		.uleb128 0x1
 7603 0184 13       		.uleb128 0x13
 7604 0185 00       		.byte	0
 7605 0186 00       		.byte	0
 7606 0187 1C       		.uleb128 0x1c
 7607 0188 2E       		.uleb128 0x2e
 7608 0189 01       		.byte	0x1
 7609 018a 3F       		.uleb128 0x3f
 7610 018b 0C       		.uleb128 0xc
 7611 018c 03       		.uleb128 0x3
 7612 018d 0E       		.uleb128 0xe
 7613 018e 3A       		.uleb128 0x3a
 7614 018f 0B       		.uleb128 0xb
 7615 0190 3B       		.uleb128 0x3b
 7616 0191 05       		.uleb128 0x5
 7617 0192 27       		.uleb128 0x27
 7618 0193 0C       		.uleb128 0xc
 7619 0194 49       		.uleb128 0x49
 7620 0195 13       		.uleb128 0x13
 7621 0196 11       		.uleb128 0x11
 7622 0197 01       		.uleb128 0x1
 7623 0198 12       		.uleb128 0x12
 7624 0199 01       		.uleb128 0x1
 7625 019a 40       		.uleb128 0x40
 7626 019b 06       		.uleb128 0x6
 7627 019c 9642     		.uleb128 0x2116
 7628 019e 0C       		.uleb128 0xc
 7629 019f 01       		.uleb128 0x1
 7630 01a0 13       		.uleb128 0x13
 7631 01a1 00       		.byte	0
 7632 01a2 00       		.byte	0
 7633 01a3 1D       		.uleb128 0x1d
 7634 01a4 34       		.uleb128 0x34
 7635 01a5 00       		.byte	0
 7636 01a6 03       		.uleb128 0x3
 7637 01a7 0E       		.uleb128 0xe
 7638 01a8 3A       		.uleb128 0x3a
 7639 01a9 0B       		.uleb128 0xb
 7640 01aa 3B       		.uleb128 0x3b
 7641 01ab 05       		.uleb128 0x5
 7642 01ac 49       		.uleb128 0x49
 7643 01ad 13       		.uleb128 0x13
 7644 01ae 02       		.uleb128 0x2
 7645 01af 0A       		.uleb128 0xa
 7646 01b0 00       		.byte	0
 7647 01b1 00       		.byte	0
 7648 01b2 1E       		.uleb128 0x1e
 7649 01b3 2E       		.uleb128 0x2e
 7650 01b4 00       		.byte	0
 7651 01b5 03       		.uleb128 0x3
 7652 01b6 0E       		.uleb128 0xe
 7653 01b7 3A       		.uleb128 0x3a
 7654 01b8 0B       		.uleb128 0xb
 7655 01b9 3B       		.uleb128 0x3b
 7656 01ba 05       		.uleb128 0x5
 7657 01bb 27       		.uleb128 0x27
ARM GAS  /tmp/ccjXaC2Q.s 			page 151


 7658 01bc 0C       		.uleb128 0xc
 7659 01bd 11       		.uleb128 0x11
 7660 01be 01       		.uleb128 0x1
 7661 01bf 12       		.uleb128 0x12
 7662 01c0 01       		.uleb128 0x1
 7663 01c1 40       		.uleb128 0x40
 7664 01c2 0A       		.uleb128 0xa
 7665 01c3 9742     		.uleb128 0x2117
 7666 01c5 0C       		.uleb128 0xc
 7667 01c6 00       		.byte	0
 7668 01c7 00       		.byte	0
 7669 01c8 1F       		.uleb128 0x1f
 7670 01c9 2E       		.uleb128 0x2e
 7671 01ca 01       		.byte	0x1
 7672 01cb 3F       		.uleb128 0x3f
 7673 01cc 0C       		.uleb128 0xc
 7674 01cd 03       		.uleb128 0x3
 7675 01ce 0E       		.uleb128 0xe
 7676 01cf 3A       		.uleb128 0x3a
 7677 01d0 0B       		.uleb128 0xb
 7678 01d1 3B       		.uleb128 0x3b
 7679 01d2 05       		.uleb128 0x5
 7680 01d3 27       		.uleb128 0x27
 7681 01d4 0C       		.uleb128 0xc
 7682 01d5 11       		.uleb128 0x11
 7683 01d6 01       		.uleb128 0x1
 7684 01d7 12       		.uleb128 0x12
 7685 01d8 01       		.uleb128 0x1
 7686 01d9 40       		.uleb128 0x40
 7687 01da 06       		.uleb128 0x6
 7688 01db 9742     		.uleb128 0x2117
 7689 01dd 0C       		.uleb128 0xc
 7690 01de 01       		.uleb128 0x1
 7691 01df 13       		.uleb128 0x13
 7692 01e0 00       		.byte	0
 7693 01e1 00       		.byte	0
 7694 01e2 20       		.uleb128 0x20
 7695 01e3 34       		.uleb128 0x34
 7696 01e4 00       		.byte	0
 7697 01e5 03       		.uleb128 0x3
 7698 01e6 08       		.uleb128 0x8
 7699 01e7 3A       		.uleb128 0x3a
 7700 01e8 0B       		.uleb128 0xb
 7701 01e9 3B       		.uleb128 0x3b
 7702 01ea 05       		.uleb128 0x5
 7703 01eb 49       		.uleb128 0x49
 7704 01ec 13       		.uleb128 0x13
 7705 01ed 02       		.uleb128 0x2
 7706 01ee 0A       		.uleb128 0xa
 7707 01ef 00       		.byte	0
 7708 01f0 00       		.byte	0
 7709 01f1 21       		.uleb128 0x21
 7710 01f2 2E       		.uleb128 0x2e
 7711 01f3 00       		.byte	0
 7712 01f4 03       		.uleb128 0x3
 7713 01f5 0E       		.uleb128 0xe
 7714 01f6 3A       		.uleb128 0x3a
ARM GAS  /tmp/ccjXaC2Q.s 			page 152


 7715 01f7 0B       		.uleb128 0xb
 7716 01f8 3B       		.uleb128 0x3b
 7717 01f9 05       		.uleb128 0x5
 7718 01fa 27       		.uleb128 0x27
 7719 01fb 0C       		.uleb128 0xc
 7720 01fc 11       		.uleb128 0x11
 7721 01fd 01       		.uleb128 0x1
 7722 01fe 12       		.uleb128 0x12
 7723 01ff 01       		.uleb128 0x1
 7724 0200 40       		.uleb128 0x40
 7725 0201 06       		.uleb128 0x6
 7726 0202 9642     		.uleb128 0x2116
 7727 0204 0C       		.uleb128 0xc
 7728 0205 00       		.byte	0
 7729 0206 00       		.byte	0
 7730 0207 22       		.uleb128 0x22
 7731 0208 34       		.uleb128 0x34
 7732 0209 00       		.byte	0
 7733 020a 03       		.uleb128 0x3
 7734 020b 0E       		.uleb128 0xe
 7735 020c 3A       		.uleb128 0x3a
 7736 020d 0B       		.uleb128 0xb
 7737 020e 3B       		.uleb128 0x3b
 7738 020f 0B       		.uleb128 0xb
 7739 0210 49       		.uleb128 0x49
 7740 0211 13       		.uleb128 0x13
 7741 0212 3F       		.uleb128 0x3f
 7742 0213 0C       		.uleb128 0xc
 7743 0214 02       		.uleb128 0x2
 7744 0215 0A       		.uleb128 0xa
 7745 0216 00       		.byte	0
 7746 0217 00       		.byte	0
 7747 0218 00       		.byte	0
 7748              		.section	.debug_loc,"",%progbits
 7749              	.Ldebug_loc0:
 7750              	.LLST0:
 7751 0000 00000000 		.4byte	.LFB0-.Ltext0
 7752 0004 04000000 		.4byte	.LCFI0-.Ltext0
 7753 0008 0200     		.2byte	0x2
 7754 000a 7D       		.byte	0x7d
 7755 000b 00       		.sleb128 0
 7756 000c 04000000 		.4byte	.LCFI0-.Ltext0
 7757 0010 08000000 		.4byte	.LCFI1-.Ltext0
 7758 0014 0200     		.2byte	0x2
 7759 0016 7D       		.byte	0x7d
 7760 0017 04       		.sleb128 4
 7761 0018 08000000 		.4byte	.LCFI1-.Ltext0
 7762 001c BC000000 		.4byte	.LFE0-.Ltext0
 7763 0020 0200     		.2byte	0x2
 7764 0022 7D       		.byte	0x7d
 7765 0023 20       		.sleb128 32
 7766 0024 00000000 		.4byte	0
 7767 0028 00000000 		.4byte	0
 7768              	.LLST1:
 7769 002c BC000000 		.4byte	.LFB1-.Ltext0
 7770 0030 C0000000 		.4byte	.LCFI2-.Ltext0
 7771 0034 0200     		.2byte	0x2
ARM GAS  /tmp/ccjXaC2Q.s 			page 153


 7772 0036 7D       		.byte	0x7d
 7773 0037 00       		.sleb128 0
 7774 0038 C0000000 		.4byte	.LCFI2-.Ltext0
 7775 003c 5C020000 		.4byte	.LFE1-.Ltext0
 7776 0040 0200     		.2byte	0x2
 7777 0042 7D       		.byte	0x7d
 7778 0043 10       		.sleb128 16
 7779 0044 00000000 		.4byte	0
 7780 0048 00000000 		.4byte	0
 7781              	.LLST2:
 7782 004c 5C020000 		.4byte	.LFB2-.Ltext0
 7783 0050 60020000 		.4byte	.LCFI3-.Ltext0
 7784 0054 0200     		.2byte	0x2
 7785 0056 7D       		.byte	0x7d
 7786 0057 00       		.sleb128 0
 7787 0058 60020000 		.4byte	.LCFI3-.Ltext0
 7788 005c EC020000 		.4byte	.LFE2-.Ltext0
 7789 0060 0200     		.2byte	0x2
 7790 0062 7D       		.byte	0x7d
 7791 0063 08       		.sleb128 8
 7792 0064 00000000 		.4byte	0
 7793 0068 00000000 		.4byte	0
 7794              	.LLST3:
 7795 006c EC020000 		.4byte	.LFB3-.Ltext0
 7796 0070 F0020000 		.4byte	.LCFI4-.Ltext0
 7797 0074 0200     		.2byte	0x2
 7798 0076 7D       		.byte	0x7d
 7799 0077 00       		.sleb128 0
 7800 0078 F0020000 		.4byte	.LCFI4-.Ltext0
 7801 007c F4020000 		.4byte	.LCFI5-.Ltext0
 7802 0080 0200     		.2byte	0x2
 7803 0082 7D       		.byte	0x7d
 7804 0083 08       		.sleb128 8
 7805 0084 F4020000 		.4byte	.LCFI5-.Ltext0
 7806 0088 40030000 		.4byte	.LFE3-.Ltext0
 7807 008c 0200     		.2byte	0x2
 7808 008e 7D       		.byte	0x7d
 7809 008f 10       		.sleb128 16
 7810 0090 00000000 		.4byte	0
 7811 0094 00000000 		.4byte	0
 7812              	.LLST4:
 7813 0098 40030000 		.4byte	.LFB4-.Ltext0
 7814 009c 44030000 		.4byte	.LCFI6-.Ltext0
 7815 00a0 0200     		.2byte	0x2
 7816 00a2 7D       		.byte	0x7d
 7817 00a3 00       		.sleb128 0
 7818 00a4 44030000 		.4byte	.LCFI6-.Ltext0
 7819 00a8 48030000 		.4byte	.LCFI7-.Ltext0
 7820 00ac 0200     		.2byte	0x2
 7821 00ae 7D       		.byte	0x7d
 7822 00af 04       		.sleb128 4
 7823 00b0 48030000 		.4byte	.LCFI7-.Ltext0
 7824 00b4 A8040000 		.4byte	.LFE4-.Ltext0
 7825 00b8 0200     		.2byte	0x2
 7826 00ba 7D       		.byte	0x7d
 7827 00bb 28       		.sleb128 40
 7828 00bc 00000000 		.4byte	0
ARM GAS  /tmp/ccjXaC2Q.s 			page 154


 7829 00c0 00000000 		.4byte	0
 7830              	.LLST5:
 7831 00c4 C8040000 		.4byte	.LFB6-.Ltext0
 7832 00c8 CC040000 		.4byte	.LCFI8-.Ltext0
 7833 00cc 0200     		.2byte	0x2
 7834 00ce 7D       		.byte	0x7d
 7835 00cf 00       		.sleb128 0
 7836 00d0 CC040000 		.4byte	.LCFI8-.Ltext0
 7837 00d4 FC050000 		.4byte	.LFE6-.Ltext0
 7838 00d8 0200     		.2byte	0x2
 7839 00da 7D       		.byte	0x7d
 7840 00db 10       		.sleb128 16
 7841 00dc 00000000 		.4byte	0
 7842 00e0 00000000 		.4byte	0
 7843              	.LLST6:
 7844 00e4 FC050000 		.4byte	.LFB7-.Ltext0
 7845 00e8 00060000 		.4byte	.LCFI9-.Ltext0
 7846 00ec 0200     		.2byte	0x2
 7847 00ee 7D       		.byte	0x7d
 7848 00ef 00       		.sleb128 0
 7849 00f0 00060000 		.4byte	.LCFI9-.Ltext0
 7850 00f4 84060000 		.4byte	.LFE7-.Ltext0
 7851 00f8 0200     		.2byte	0x2
 7852 00fa 7D       		.byte	0x7d
 7853 00fb 08       		.sleb128 8
 7854 00fc 00000000 		.4byte	0
 7855 0100 00000000 		.4byte	0
 7856              	.LLST7:
 7857 0104 84060000 		.4byte	.LFB8-.Ltext0
 7858 0108 88060000 		.4byte	.LCFI10-.Ltext0
 7859 010c 0200     		.2byte	0x2
 7860 010e 7D       		.byte	0x7d
 7861 010f 00       		.sleb128 0
 7862 0110 88060000 		.4byte	.LCFI10-.Ltext0
 7863 0114 8C060000 		.4byte	.LCFI11-.Ltext0
 7864 0118 0200     		.2byte	0x2
 7865 011a 7D       		.byte	0x7d
 7866 011b 04       		.sleb128 4
 7867 011c 8C060000 		.4byte	.LCFI11-.Ltext0
 7868 0120 14080000 		.4byte	.LFE8-.Ltext0
 7869 0124 0200     		.2byte	0x2
 7870 0126 7D       		.byte	0x7d
 7871 0127 28       		.sleb128 40
 7872 0128 00000000 		.4byte	0
 7873 012c 00000000 		.4byte	0
 7874              	.LLST8:
 7875 0130 C80A0000 		.4byte	.LFB11-.Ltext0
 7876 0134 CC0A0000 		.4byte	.LCFI12-.Ltext0
 7877 0138 0200     		.2byte	0x2
 7878 013a 7D       		.byte	0x7d
 7879 013b 00       		.sleb128 0
 7880 013c CC0A0000 		.4byte	.LCFI12-.Ltext0
 7881 0140 E80A0000 		.4byte	.LFE11-.Ltext0
 7882 0144 0200     		.2byte	0x2
 7883 0146 7D       		.byte	0x7d
 7884 0147 08       		.sleb128 8
 7885 0148 00000000 		.4byte	0
ARM GAS  /tmp/ccjXaC2Q.s 			page 155


 7886 014c 00000000 		.4byte	0
 7887              	.LLST9:
 7888 0150 E80A0000 		.4byte	.LFB12-.Ltext0
 7889 0154 EC0A0000 		.4byte	.LCFI13-.Ltext0
 7890 0158 0200     		.2byte	0x2
 7891 015a 7D       		.byte	0x7d
 7892 015b 00       		.sleb128 0
 7893 015c EC0A0000 		.4byte	.LCFI13-.Ltext0
 7894 0160 080B0000 		.4byte	.LFE12-.Ltext0
 7895 0164 0200     		.2byte	0x2
 7896 0166 7D       		.byte	0x7d
 7897 0167 08       		.sleb128 8
 7898 0168 00000000 		.4byte	0
 7899 016c 00000000 		.4byte	0
 7900              	.LLST10:
 7901 0170 080B0000 		.4byte	.LFB13-.Ltext0
 7902 0174 0C0B0000 		.4byte	.LCFI14-.Ltext0
 7903 0178 0200     		.2byte	0x2
 7904 017a 7D       		.byte	0x7d
 7905 017b 00       		.sleb128 0
 7906 017c 0C0B0000 		.4byte	.LCFI14-.Ltext0
 7907 0180 280B0000 		.4byte	.LFE13-.Ltext0
 7908 0184 0200     		.2byte	0x2
 7909 0186 7D       		.byte	0x7d
 7910 0187 08       		.sleb128 8
 7911 0188 00000000 		.4byte	0
 7912 018c 00000000 		.4byte	0
 7913              	.LLST11:
 7914 0190 280B0000 		.4byte	.LFB14-.Ltext0
 7915 0194 2C0B0000 		.4byte	.LCFI15-.Ltext0
 7916 0198 0200     		.2byte	0x2
 7917 019a 7D       		.byte	0x7d
 7918 019b 00       		.sleb128 0
 7919 019c 2C0B0000 		.4byte	.LCFI15-.Ltext0
 7920 01a0 480B0000 		.4byte	.LFE14-.Ltext0
 7921 01a4 0200     		.2byte	0x2
 7922 01a6 7D       		.byte	0x7d
 7923 01a7 08       		.sleb128 8
 7924 01a8 00000000 		.4byte	0
 7925 01ac 00000000 		.4byte	0
 7926              	.LLST12:
 7927 01b0 480B0000 		.4byte	.LFB15-.Ltext0
 7928 01b4 4C0B0000 		.4byte	.LCFI16-.Ltext0
 7929 01b8 0200     		.2byte	0x2
 7930 01ba 7D       		.byte	0x7d
 7931 01bb 00       		.sleb128 0
 7932 01bc 4C0B0000 		.4byte	.LCFI16-.Ltext0
 7933 01c0 680B0000 		.4byte	.LFE15-.Ltext0
 7934 01c4 0200     		.2byte	0x2
 7935 01c6 7D       		.byte	0x7d
 7936 01c7 08       		.sleb128 8
 7937 01c8 00000000 		.4byte	0
 7938 01cc 00000000 		.4byte	0
 7939              	.LLST13:
 7940 01d0 680B0000 		.4byte	.LFB16-.Ltext0
 7941 01d4 6C0B0000 		.4byte	.LCFI17-.Ltext0
 7942 01d8 0200     		.2byte	0x2
ARM GAS  /tmp/ccjXaC2Q.s 			page 156


 7943 01da 7D       		.byte	0x7d
 7944 01db 00       		.sleb128 0
 7945 01dc 6C0B0000 		.4byte	.LCFI17-.Ltext0
 7946 01e0 880B0000 		.4byte	.LFE16-.Ltext0
 7947 01e4 0200     		.2byte	0x2
 7948 01e6 7D       		.byte	0x7d
 7949 01e7 08       		.sleb128 8
 7950 01e8 00000000 		.4byte	0
 7951 01ec 00000000 		.4byte	0
 7952              	.LLST14:
 7953 01f0 880B0000 		.4byte	.LFB17-.Ltext0
 7954 01f4 8C0B0000 		.4byte	.LCFI18-.Ltext0
 7955 01f8 0200     		.2byte	0x2
 7956 01fa 7D       		.byte	0x7d
 7957 01fb 00       		.sleb128 0
 7958 01fc 8C0B0000 		.4byte	.LCFI18-.Ltext0
 7959 0200 A80B0000 		.4byte	.LFE17-.Ltext0
 7960 0204 0200     		.2byte	0x2
 7961 0206 7D       		.byte	0x7d
 7962 0207 08       		.sleb128 8
 7963 0208 00000000 		.4byte	0
 7964 020c 00000000 		.4byte	0
 7965              	.LLST15:
 7966 0210 A80B0000 		.4byte	.LFB18-.Ltext0
 7967 0214 AC0B0000 		.4byte	.LCFI19-.Ltext0
 7968 0218 0200     		.2byte	0x2
 7969 021a 7D       		.byte	0x7d
 7970 021b 00       		.sleb128 0
 7971 021c AC0B0000 		.4byte	.LCFI19-.Ltext0
 7972 0220 C80B0000 		.4byte	.LFE18-.Ltext0
 7973 0224 0200     		.2byte	0x2
 7974 0226 7D       		.byte	0x7d
 7975 0227 08       		.sleb128 8
 7976 0228 00000000 		.4byte	0
 7977 022c 00000000 		.4byte	0
 7978              	.LLST16:
 7979 0230 C80B0000 		.4byte	.LFB19-.Ltext0
 7980 0234 CC0B0000 		.4byte	.LCFI20-.Ltext0
 7981 0238 0200     		.2byte	0x2
 7982 023a 7D       		.byte	0x7d
 7983 023b 00       		.sleb128 0
 7984 023c CC0B0000 		.4byte	.LCFI20-.Ltext0
 7985 0240 E80B0000 		.4byte	.LFE19-.Ltext0
 7986 0244 0200     		.2byte	0x2
 7987 0246 7D       		.byte	0x7d
 7988 0247 08       		.sleb128 8
 7989 0248 00000000 		.4byte	0
 7990 024c 00000000 		.4byte	0
 7991              	.LLST17:
 7992 0250 E80B0000 		.4byte	.LFB20-.Ltext0
 7993 0254 EC0B0000 		.4byte	.LCFI21-.Ltext0
 7994 0258 0200     		.2byte	0x2
 7995 025a 7D       		.byte	0x7d
 7996 025b 00       		.sleb128 0
 7997 025c EC0B0000 		.4byte	.LCFI21-.Ltext0
 7998 0260 080C0000 		.4byte	.LFE20-.Ltext0
 7999 0264 0200     		.2byte	0x2
ARM GAS  /tmp/ccjXaC2Q.s 			page 157


 8000 0266 7D       		.byte	0x7d
 8001 0267 08       		.sleb128 8
 8002 0268 00000000 		.4byte	0
 8003 026c 00000000 		.4byte	0
 8004              	.LLST18:
 8005 0270 080C0000 		.4byte	.LFB21-.Ltext0
 8006 0274 0C0C0000 		.4byte	.LCFI22-.Ltext0
 8007 0278 0200     		.2byte	0x2
 8008 027a 7D       		.byte	0x7d
 8009 027b 00       		.sleb128 0
 8010 027c 0C0C0000 		.4byte	.LCFI22-.Ltext0
 8011 0280 280C0000 		.4byte	.LFE21-.Ltext0
 8012 0284 0200     		.2byte	0x2
 8013 0286 7D       		.byte	0x7d
 8014 0287 08       		.sleb128 8
 8015 0288 00000000 		.4byte	0
 8016 028c 00000000 		.4byte	0
 8017              	.LLST19:
 8018 0290 280C0000 		.4byte	.LFB22-.Ltext0
 8019 0294 2C0C0000 		.4byte	.LCFI23-.Ltext0
 8020 0298 0200     		.2byte	0x2
 8021 029a 7D       		.byte	0x7d
 8022 029b 00       		.sleb128 0
 8023 029c 2C0C0000 		.4byte	.LCFI23-.Ltext0
 8024 02a0 480C0000 		.4byte	.LFE22-.Ltext0
 8025 02a4 0200     		.2byte	0x2
 8026 02a6 7D       		.byte	0x7d
 8027 02a7 08       		.sleb128 8
 8028 02a8 00000000 		.4byte	0
 8029 02ac 00000000 		.4byte	0
 8030              	.LLST20:
 8031 02b0 480C0000 		.4byte	.LFB23-.Ltext0
 8032 02b4 4C0C0000 		.4byte	.LCFI24-.Ltext0
 8033 02b8 0200     		.2byte	0x2
 8034 02ba 7D       		.byte	0x7d
 8035 02bb 00       		.sleb128 0
 8036 02bc 4C0C0000 		.4byte	.LCFI24-.Ltext0
 8037 02c0 680C0000 		.4byte	.LFE23-.Ltext0
 8038 02c4 0200     		.2byte	0x2
 8039 02c6 7D       		.byte	0x7d
 8040 02c7 08       		.sleb128 8
 8041 02c8 00000000 		.4byte	0
 8042 02cc 00000000 		.4byte	0
 8043              	.LLST21:
 8044 02d0 680C0000 		.4byte	.LFB24-.Ltext0
 8045 02d4 6C0C0000 		.4byte	.LCFI25-.Ltext0
 8046 02d8 0200     		.2byte	0x2
 8047 02da 7D       		.byte	0x7d
 8048 02db 00       		.sleb128 0
 8049 02dc 6C0C0000 		.4byte	.LCFI25-.Ltext0
 8050 02e0 880C0000 		.4byte	.LFE24-.Ltext0
 8051 02e4 0200     		.2byte	0x2
 8052 02e6 7D       		.byte	0x7d
 8053 02e7 08       		.sleb128 8
 8054 02e8 00000000 		.4byte	0
 8055 02ec 00000000 		.4byte	0
 8056              	.LLST22:
ARM GAS  /tmp/ccjXaC2Q.s 			page 158


 8057 02f0 880C0000 		.4byte	.LFB25-.Ltext0
 8058 02f4 8C0C0000 		.4byte	.LCFI26-.Ltext0
 8059 02f8 0200     		.2byte	0x2
 8060 02fa 7D       		.byte	0x7d
 8061 02fb 00       		.sleb128 0
 8062 02fc 8C0C0000 		.4byte	.LCFI26-.Ltext0
 8063 0300 A80C0000 		.4byte	.LFE25-.Ltext0
 8064 0304 0200     		.2byte	0x2
 8065 0306 7D       		.byte	0x7d
 8066 0307 08       		.sleb128 8
 8067 0308 00000000 		.4byte	0
 8068 030c 00000000 		.4byte	0
 8069              	.LLST23:
 8070 0310 A80C0000 		.4byte	.LFB26-.Ltext0
 8071 0314 AC0C0000 		.4byte	.LCFI27-.Ltext0
 8072 0318 0200     		.2byte	0x2
 8073 031a 7D       		.byte	0x7d
 8074 031b 00       		.sleb128 0
 8075 031c AC0C0000 		.4byte	.LCFI27-.Ltext0
 8076 0320 C80C0000 		.4byte	.LFE26-.Ltext0
 8077 0324 0200     		.2byte	0x2
 8078 0326 7D       		.byte	0x7d
 8079 0327 08       		.sleb128 8
 8080 0328 00000000 		.4byte	0
 8081 032c 00000000 		.4byte	0
 8082              	.LLST24:
 8083 0330 C80C0000 		.4byte	.LFB27-.Ltext0
 8084 0334 CC0C0000 		.4byte	.LCFI28-.Ltext0
 8085 0338 0200     		.2byte	0x2
 8086 033a 7D       		.byte	0x7d
 8087 033b 00       		.sleb128 0
 8088 033c CC0C0000 		.4byte	.LCFI28-.Ltext0
 8089 0340 E80C0000 		.4byte	.LFE27-.Ltext0
 8090 0344 0200     		.2byte	0x2
 8091 0346 7D       		.byte	0x7d
 8092 0347 08       		.sleb128 8
 8093 0348 00000000 		.4byte	0
 8094 034c 00000000 		.4byte	0
 8095              	.LLST25:
 8096 0350 E80C0000 		.4byte	.LFB28-.Ltext0
 8097 0354 EC0C0000 		.4byte	.LCFI29-.Ltext0
 8098 0358 0200     		.2byte	0x2
 8099 035a 7D       		.byte	0x7d
 8100 035b 00       		.sleb128 0
 8101 035c EC0C0000 		.4byte	.LCFI29-.Ltext0
 8102 0360 080D0000 		.4byte	.LFE28-.Ltext0
 8103 0364 0200     		.2byte	0x2
 8104 0366 7D       		.byte	0x7d
 8105 0367 08       		.sleb128 8
 8106 0368 00000000 		.4byte	0
 8107 036c 00000000 		.4byte	0
 8108              	.LLST26:
 8109 0370 080D0000 		.4byte	.LFB29-.Ltext0
 8110 0374 0C0D0000 		.4byte	.LCFI30-.Ltext0
 8111 0378 0200     		.2byte	0x2
 8112 037a 7D       		.byte	0x7d
 8113 037b 00       		.sleb128 0
ARM GAS  /tmp/ccjXaC2Q.s 			page 159


 8114 037c 0C0D0000 		.4byte	.LCFI30-.Ltext0
 8115 0380 280D0000 		.4byte	.LFE29-.Ltext0
 8116 0384 0200     		.2byte	0x2
 8117 0386 7D       		.byte	0x7d
 8118 0387 08       		.sleb128 8
 8119 0388 00000000 		.4byte	0
 8120 038c 00000000 		.4byte	0
 8121              	.LLST27:
 8122 0390 280D0000 		.4byte	.LFB30-.Ltext0
 8123 0394 2C0D0000 		.4byte	.LCFI31-.Ltext0
 8124 0398 0200     		.2byte	0x2
 8125 039a 7D       		.byte	0x7d
 8126 039b 00       		.sleb128 0
 8127 039c 2C0D0000 		.4byte	.LCFI31-.Ltext0
 8128 03a0 480D0000 		.4byte	.LFE30-.Ltext0
 8129 03a4 0200     		.2byte	0x2
 8130 03a6 7D       		.byte	0x7d
 8131 03a7 08       		.sleb128 8
 8132 03a8 00000000 		.4byte	0
 8133 03ac 00000000 		.4byte	0
 8134              	.LLST28:
 8135 03b0 480D0000 		.4byte	.LFB31-.Ltext0
 8136 03b4 4C0D0000 		.4byte	.LCFI32-.Ltext0
 8137 03b8 0200     		.2byte	0x2
 8138 03ba 7D       		.byte	0x7d
 8139 03bb 00       		.sleb128 0
 8140 03bc 4C0D0000 		.4byte	.LCFI32-.Ltext0
 8141 03c0 680D0000 		.4byte	.LFE31-.Ltext0
 8142 03c4 0200     		.2byte	0x2
 8143 03c6 7D       		.byte	0x7d
 8144 03c7 08       		.sleb128 8
 8145 03c8 00000000 		.4byte	0
 8146 03cc 00000000 		.4byte	0
 8147              	.LLST29:
 8148 03d0 680D0000 		.4byte	.LFB32-.Ltext0
 8149 03d4 6C0D0000 		.4byte	.LCFI33-.Ltext0
 8150 03d8 0200     		.2byte	0x2
 8151 03da 7D       		.byte	0x7d
 8152 03db 00       		.sleb128 0
 8153 03dc 6C0D0000 		.4byte	.LCFI33-.Ltext0
 8154 03e0 880D0000 		.4byte	.LFE32-.Ltext0
 8155 03e4 0200     		.2byte	0x2
 8156 03e6 7D       		.byte	0x7d
 8157 03e7 08       		.sleb128 8
 8158 03e8 00000000 		.4byte	0
 8159 03ec 00000000 		.4byte	0
 8160              	.LLST30:
 8161 03f0 880D0000 		.4byte	.LFB33-.Ltext0
 8162 03f4 8C0D0000 		.4byte	.LCFI34-.Ltext0
 8163 03f8 0200     		.2byte	0x2
 8164 03fa 7D       		.byte	0x7d
 8165 03fb 00       		.sleb128 0
 8166 03fc 8C0D0000 		.4byte	.LCFI34-.Ltext0
 8167 0400 A80D0000 		.4byte	.LFE33-.Ltext0
 8168 0404 0200     		.2byte	0x2
 8169 0406 7D       		.byte	0x7d
 8170 0407 08       		.sleb128 8
ARM GAS  /tmp/ccjXaC2Q.s 			page 160


 8171 0408 00000000 		.4byte	0
 8172 040c 00000000 		.4byte	0
 8173              	.LLST31:
 8174 0410 A80D0000 		.4byte	.LFB34-.Ltext0
 8175 0414 AC0D0000 		.4byte	.LCFI35-.Ltext0
 8176 0418 0200     		.2byte	0x2
 8177 041a 7D       		.byte	0x7d
 8178 041b 00       		.sleb128 0
 8179 041c AC0D0000 		.4byte	.LCFI35-.Ltext0
 8180 0420 C80D0000 		.4byte	.LFE34-.Ltext0
 8181 0424 0200     		.2byte	0x2
 8182 0426 7D       		.byte	0x7d
 8183 0427 08       		.sleb128 8
 8184 0428 00000000 		.4byte	0
 8185 042c 00000000 		.4byte	0
 8186              	.LLST32:
 8187 0430 C80D0000 		.4byte	.LFB35-.Ltext0
 8188 0434 CC0D0000 		.4byte	.LCFI36-.Ltext0
 8189 0438 0200     		.2byte	0x2
 8190 043a 7D       		.byte	0x7d
 8191 043b 00       		.sleb128 0
 8192 043c CC0D0000 		.4byte	.LCFI36-.Ltext0
 8193 0440 E80D0000 		.4byte	.LFE35-.Ltext0
 8194 0444 0200     		.2byte	0x2
 8195 0446 7D       		.byte	0x7d
 8196 0447 08       		.sleb128 8
 8197 0448 00000000 		.4byte	0
 8198 044c 00000000 		.4byte	0
 8199              	.LLST33:
 8200 0450 E80D0000 		.4byte	.LFB36-.Ltext0
 8201 0454 EC0D0000 		.4byte	.LCFI37-.Ltext0
 8202 0458 0200     		.2byte	0x2
 8203 045a 7D       		.byte	0x7d
 8204 045b 00       		.sleb128 0
 8205 045c EC0D0000 		.4byte	.LCFI37-.Ltext0
 8206 0460 080E0000 		.4byte	.LFE36-.Ltext0
 8207 0464 0200     		.2byte	0x2
 8208 0466 7D       		.byte	0x7d
 8209 0467 08       		.sleb128 8
 8210 0468 00000000 		.4byte	0
 8211 046c 00000000 		.4byte	0
 8212              	.LLST34:
 8213 0470 080E0000 		.4byte	.LFB37-.Ltext0
 8214 0474 0C0E0000 		.4byte	.LCFI38-.Ltext0
 8215 0478 0200     		.2byte	0x2
 8216 047a 7D       		.byte	0x7d
 8217 047b 00       		.sleb128 0
 8218 047c 0C0E0000 		.4byte	.LCFI38-.Ltext0
 8219 0480 280E0000 		.4byte	.LFE37-.Ltext0
 8220 0484 0200     		.2byte	0x2
 8221 0486 7D       		.byte	0x7d
 8222 0487 08       		.sleb128 8
 8223 0488 00000000 		.4byte	0
 8224 048c 00000000 		.4byte	0
 8225              	.LLST35:
 8226 0490 280E0000 		.4byte	.LFB38-.Ltext0
 8227 0494 2C0E0000 		.4byte	.LCFI39-.Ltext0
ARM GAS  /tmp/ccjXaC2Q.s 			page 161


 8228 0498 0200     		.2byte	0x2
 8229 049a 7D       		.byte	0x7d
 8230 049b 00       		.sleb128 0
 8231 049c 2C0E0000 		.4byte	.LCFI39-.Ltext0
 8232 04a0 480E0000 		.4byte	.LFE38-.Ltext0
 8233 04a4 0200     		.2byte	0x2
 8234 04a6 7D       		.byte	0x7d
 8235 04a7 08       		.sleb128 8
 8236 04a8 00000000 		.4byte	0
 8237 04ac 00000000 		.4byte	0
 8238              	.LLST36:
 8239 04b0 480E0000 		.4byte	.LFB39-.Ltext0
 8240 04b4 4C0E0000 		.4byte	.LCFI40-.Ltext0
 8241 04b8 0200     		.2byte	0x2
 8242 04ba 7D       		.byte	0x7d
 8243 04bb 00       		.sleb128 0
 8244 04bc 4C0E0000 		.4byte	.LCFI40-.Ltext0
 8245 04c0 680E0000 		.4byte	.LFE39-.Ltext0
 8246 04c4 0200     		.2byte	0x2
 8247 04c6 7D       		.byte	0x7d
 8248 04c7 08       		.sleb128 8
 8249 04c8 00000000 		.4byte	0
 8250 04cc 00000000 		.4byte	0
 8251              	.LLST37:
 8252 04d0 680E0000 		.4byte	.LFB40-.Ltext0
 8253 04d4 6C0E0000 		.4byte	.LCFI41-.Ltext0
 8254 04d8 0200     		.2byte	0x2
 8255 04da 7D       		.byte	0x7d
 8256 04db 00       		.sleb128 0
 8257 04dc 6C0E0000 		.4byte	.LCFI41-.Ltext0
 8258 04e0 880E0000 		.4byte	.LFE40-.Ltext0
 8259 04e4 0200     		.2byte	0x2
 8260 04e6 7D       		.byte	0x7d
 8261 04e7 08       		.sleb128 8
 8262 04e8 00000000 		.4byte	0
 8263 04ec 00000000 		.4byte	0
 8264              	.LLST38:
 8265 04f0 880E0000 		.4byte	.LFB41-.Ltext0
 8266 04f4 8C0E0000 		.4byte	.LCFI42-.Ltext0
 8267 04f8 0200     		.2byte	0x2
 8268 04fa 7D       		.byte	0x7d
 8269 04fb 00       		.sleb128 0
 8270 04fc 8C0E0000 		.4byte	.LCFI42-.Ltext0
 8271 0500 A80E0000 		.4byte	.LFE41-.Ltext0
 8272 0504 0200     		.2byte	0x2
 8273 0506 7D       		.byte	0x7d
 8274 0507 08       		.sleb128 8
 8275 0508 00000000 		.4byte	0
 8276 050c 00000000 		.4byte	0
 8277              	.LLST39:
 8278 0510 A80E0000 		.4byte	.LFB42-.Ltext0
 8279 0514 AC0E0000 		.4byte	.LCFI43-.Ltext0
 8280 0518 0200     		.2byte	0x2
 8281 051a 7D       		.byte	0x7d
 8282 051b 00       		.sleb128 0
 8283 051c AC0E0000 		.4byte	.LCFI43-.Ltext0
 8284 0520 C80E0000 		.4byte	.LFE42-.Ltext0
ARM GAS  /tmp/ccjXaC2Q.s 			page 162


 8285 0524 0200     		.2byte	0x2
 8286 0526 7D       		.byte	0x7d
 8287 0527 08       		.sleb128 8
 8288 0528 00000000 		.4byte	0
 8289 052c 00000000 		.4byte	0
 8290              		.section	.debug_aranges,"",%progbits
 8291 0000 1C000000 		.4byte	0x1c
 8292 0004 0200     		.2byte	0x2
 8293 0006 00000000 		.4byte	.Ldebug_info0
 8294 000a 04       		.byte	0x4
 8295 000b 00       		.byte	0
 8296 000c 0000     		.2byte	0
 8297 000e 0000     		.2byte	0
 8298 0010 00000000 		.4byte	.Ltext0
 8299 0014 C80E0000 		.4byte	.Letext0-.Ltext0
 8300 0018 00000000 		.4byte	0
 8301 001c 00000000 		.4byte	0
 8302              		.section	.debug_line,"",%progbits
 8303              	.Ldebug_line0:
 8304 0000 1B020000 		.section	.debug_str,"MS",%progbits,1
 8304      02005300 
 8304      00000201 
 8304      FB0E0D00 
 8304      01010101 
 8305              	.LASF256:
 8306 0000 5F5F7061 		.ascii	"__pad_103\000"
 8306      645F3130 
 8306      3300
 8307              	.LASF341:
 8308 000a 5F5F7061 		.ascii	"__pad_159\000"
 8308      645F3135 
 8308      3900
 8309              	.LASF306:
 8310 0014 5F5F7061 		.ascii	"__pad_135\000"
 8310      645F3133 
 8310      3500
 8311              	.LASF258:
 8312 001e 5F5F7061 		.ascii	"__pad_105\000"
 8312      645F3130 
 8312      3500
 8313              	.LASF473:
 8314 0028 5649435F 		.ascii	"VIC_DummyDEBUGRX\000"
 8314      44756D6D 
 8314      79444542 
 8314      55475258 
 8314      00
 8315              	.LASF307:
 8316 0039 5F5F7061 		.ascii	"__pad_136\000"
 8316      645F3133 
 8316      3600
 8317              	.LASF396:
 8318 0043 5F5F7061 		.ascii	"__pad_199\000"
 8318      645F3139 
 8318      3900
 8319              	.LASF438:
 8320 004d 53434250 		.ascii	"SCBParams\000"
 8320      6172616D 
ARM GAS  /tmp/ccjXaC2Q.s 			page 163


 8320      7300
 8321              	.LASF261:
 8322 0057 55534243 		.ascii	"USBCLKCFG\000"
 8322      4C4B4346 
 8322      4700
 8323              	.LASF433:
 8324 0061 504C4C5F 		.ascii	"PLL_Fcco\000"
 8324      4663636F 
 8324      00
 8325              	.LASF417:
 8326 006a 5F4C5043 		.ascii	"_LPC23XX_SCB\000"
 8326      32335858 
 8326      5F534342 
 8326      00
 8327              	.LASF364:
 8328 0077 5F5F7061 		.ascii	"__pad_170\000"
 8328      645F3137 
 8328      3000
 8329              	.LASF365:
 8330 0081 5F5F7061 		.ascii	"__pad_171\000"
 8330      645F3137 
 8330      3100
 8331              	.LASF366:
 8332 008b 5F5F7061 		.ascii	"__pad_172\000"
 8332      645F3137 
 8332      3200
 8333              	.LASF367:
 8334 0095 5F5F7061 		.ascii	"__pad_173\000"
 8334      645F3137 
 8334      3300
 8335              	.LASF368:
 8336 009f 5F5F7061 		.ascii	"__pad_174\000"
 8336      645F3137 
 8336      3400
 8337              	.LASF369:
 8338 00a9 5F5F7061 		.ascii	"__pad_175\000"
 8338      645F3137 
 8338      3500
 8339              	.LASF370:
 8340 00b3 5F5F7061 		.ascii	"__pad_176\000"
 8340      645F3137 
 8340      3600
 8341              	.LASF371:
 8342 00bd 5F5F7061 		.ascii	"__pad_177\000"
 8342      645F3137 
 8342      3700
 8343              	.LASF372:
 8344 00c7 5F5F7061 		.ascii	"__pad_178\000"
 8344      645F3137 
 8344      3800
 8345              	.LASF285:
 8346 00d1 5F5F7061 		.ascii	"__pad_120\000"
 8346      645F3132 
 8346      3000
 8347              	.LASF406:
 8348 00db 50434C4B 		.ascii	"PCLKSEL0\000"
 8348      53454C30 
ARM GAS  /tmp/ccjXaC2Q.s 			page 164


 8348      00
 8349              	.LASF217:
 8350 00e4 5F5F7061 		.ascii	"__pad_0DC\000"
 8350      645F3044 
 8350      4300
 8351              	.LASF287:
 8352 00ee 5F5F7061 		.ascii	"__pad_122\000"
 8352      645F3132 
 8352      3200
 8353              	.LASF374:
 8354 00f8 5F5F7061 		.ascii	"__pad_17A\000"
 8354      645F3137 
 8354      4100
 8355              	.LASF375:
 8356 0102 5F5F7061 		.ascii	"__pad_17B\000"
 8356      645F3137 
 8356      4200
 8357              	.LASF335:
 8358 010c 5F5F7061 		.ascii	"__pad_153\000"
 8358      645F3135 
 8358      3300
 8359              	.LASF377:
 8360 0116 5F5F7061 		.ascii	"__pad_17D\000"
 8360      645F3137 
 8360      4400
 8361              	.LASF378:
 8362 0120 5F5F7061 		.ascii	"__pad_17E\000"
 8362      645F3137 
 8362      4500
 8363              	.LASF379:
 8364 012a 5F5F7061 		.ascii	"__pad_17F\000"
 8364      645F3137 
 8364      4600
 8365              	.LASF292:
 8366 0134 5F5F7061 		.ascii	"__pad_127\000"
 8366      645F3132 
 8366      3700
 8367              	.LASF416:
 8368 013e 70616432 		.ascii	"pad2\000"
 8368      00
 8369              	.LASF435:
 8370 0143 4D414D4D 		.ascii	"MAMMode\000"
 8370      6F646500 
 8371              	.LASF373:
 8372 014b 5F5F7061 		.ascii	"__pad_179\000"
 8372      645F3137 
 8372      3900
 8373              	.LASF475:
 8374 0155 5649435F 		.ascii	"VIC_DummyTIMER0\000"
 8374      44756D6D 
 8374      7954494D 
 8374      45523000 
 8375              	.LASF465:
 8376 0165 70636C6B 		.ascii	"pclk_div\000"
 8376      5F646976 
 8376      00
 8377              	.LASF295:
ARM GAS  /tmp/ccjXaC2Q.s 			page 165


 8378 016e 5F5F7061 		.ascii	"__pad_12A\000"
 8378      645F3132 
 8378      4100
 8379              	.LASF296:
 8380 0178 5F5F7061 		.ascii	"__pad_12B\000"
 8380      645F3132 
 8380      4200
 8381              	.LASF10:
 8382 0182 4D414D54 		.ascii	"MAMTIM\000"
 8382      494D00
 8383              	.LASF321:
 8384 0189 494E5457 		.ascii	"INTWAKE\000"
 8384      414B4500 
 8385              	.LASF429:
 8386 0191 4C504332 		.ascii	"LPC23XX_UART\000"
 8386      3358585F 
 8386      55415254 
 8386      00
 8387              	.LASF381:
 8388 019e 5F5F7061 		.ascii	"__pad_181\000"
 8388      645F3138 
 8388      3100
 8389              	.LASF382:
 8390 01a8 5F5F7061 		.ascii	"__pad_182\000"
 8390      645F3138 
 8390      3200
 8391              	.LASF383:
 8392 01b2 5F5F7061 		.ascii	"__pad_183\000"
 8392      645F3138 
 8392      3300
 8393              	.LASF491:
 8394 01bc 5649435F 		.ascii	"VIC_DummyBOD\000"
 8394      44756D6D 
 8394      79424F44 
 8394      00
 8395              	.LASF463:
 8396 01c9 6D6F6465 		.ascii	"mode\000"
 8396      00
 8397              	.LASF482:
 8398 01ce 5649435F 		.ascii	"VIC_DummySSP1\000"
 8398      44756D6D 
 8398      79535350 
 8398      3100
 8399              	.LASF484:
 8400 01dc 5649435F 		.ascii	"VIC_DummyRTC\000"
 8400      44756D6D 
 8400      79525443 
 8400      00
 8401              	.LASF481:
 8402 01e9 5649435F 		.ascii	"VIC_DummySPI\000"
 8402      44756D6D 
 8402      79535049 
 8402      00
 8403              	.LASF171:
 8404 01f6 5F5F7061 		.ascii	"__pad_0AB\000"
 8404      645F3041 
 8404      4200
ARM GAS  /tmp/ccjXaC2Q.s 			page 166


 8405              	.LASF172:
 8406 0200 5F5F7061 		.ascii	"__pad_0AC\000"
 8406      645F3041 
 8406      4300
 8407              	.LASF173:
 8408 020a 5F5F7061 		.ascii	"__pad_0AD\000"
 8408      645F3041 
 8408      4400
 8409              	.LASF419:
 8410 0214 70616430 		.ascii	"pad0\000"
 8410      00
 8411              	.LASF415:
 8412 0219 70616431 		.ascii	"pad1\000"
 8412      00
 8413              	.LASF134:
 8414 021e 504C4C43 		.ascii	"PLLCON\000"
 8414      4F4E00
 8415              	.LASF450:
 8416 0225 4663636C 		.ascii	"Fcclk\000"
 8416      6B00
 8417              	.LASF420:
 8418 022b 70616433 		.ascii	"pad3\000"
 8418      00
 8419              	.LASF421:
 8420 0230 70616434 		.ascii	"pad4\000"
 8420      00
 8421              	.LASF455:
 8422 0235 706C6C65 		.ascii	"plle\000"
 8422      00
 8423              	.LASF440:
 8424 023a 63636C6B 		.ascii	"cclk\000"
 8424      00
 8425              	.LASF468:
 8426 023f 75646C5F 		.ascii	"udl_roundbit\000"
 8426      726F756E 
 8426      64626974 
 8426      00
 8427              	.LASF139:
 8428 024c 504C4C53 		.ascii	"PLLSTAT\000"
 8428      54415400 
 8429              	.LASF472:
 8430 0254 5649435F 		.ascii	"VIC_DummySW\000"
 8430      44756D6D 
 8430      79535700 
 8431              	.LASF426:
 8432 0260 70616439 		.ascii	"pad9\000"
 8432      00
 8433              	.LASF430:
 8434 0265 73636232 		.ascii	"scb2300params\000"
 8434      33303070 
 8434      6172616D 
 8434      7300
 8435              	.LASF456:
 8436 0273 706C6C63 		.ascii	"pllc\000"
 8436      00
 8437              	.LASF387:
 8438 0278 5F5F7061 		.ascii	"__pad_190\000"
ARM GAS  /tmp/ccjXaC2Q.s 			page 167


 8438      645F3139 
 8438      3000
 8439              	.LASF388:
 8440 0282 5F5F7061 		.ascii	"__pad_191\000"
 8440      645F3139 
 8440      3100
 8441              	.LASF389:
 8442 028c 5F5F7061 		.ascii	"__pad_192\000"
 8442      645F3139 
 8442      3200
 8443              	.LASF248:
 8444 0296 5F5F7061 		.ascii	"__pad_0FB\000"
 8444      645F3046 
 8444      4200
 8445              	.LASF391:
 8446 02a0 5F5F7061 		.ascii	"__pad_194\000"
 8446      645F3139 
 8446      3400
 8447              	.LASF392:
 8448 02aa 5F5F7061 		.ascii	"__pad_195\000"
 8448      645F3139 
 8448      3500
 8449              	.LASF393:
 8450 02b4 5F5F7061 		.ascii	"__pad_196\000"
 8450      645F3139 
 8450      3600
 8451              	.LASF394:
 8452 02be 5F5F7061 		.ascii	"__pad_197\000"
 8452      645F3139 
 8452      3700
 8453              	.LASF317:
 8454 02c8 45585449 		.ascii	"EXTINT\000"
 8454      4E5400
 8455              	.LASF250:
 8456 02cf 5F5F7061 		.ascii	"__pad_0FD\000"
 8456      645F3046 
 8456      4400
 8457              	.LASF302:
 8458 02d9 5F5F7061 		.ascii	"__pad_131\000"
 8458      645F3133 
 8458      3100
 8459              	.LASF170:
 8460 02e3 5F5F7061 		.ascii	"__pad_0AA\000"
 8460      645F3041 
 8460      4100
 8461              	.LASF303:
 8462 02ed 5F5F7061 		.ascii	"__pad_132\000"
 8462      645F3133 
 8462      3200
 8463              	.LASF7:
 8464 02f7 5F5F7061 		.ascii	"__pad_001\000"
 8464      645F3030 
 8464      3100
 8465              	.LASF8:
 8466 0301 5F5F7061 		.ascii	"__pad_002\000"
 8466      645F3030 
 8466      3200
ARM GAS  /tmp/ccjXaC2Q.s 			page 168


 8467              	.LASF9:
 8468 030b 5F5F7061 		.ascii	"__pad_003\000"
 8468      645F3030 
 8468      3300
 8469              	.LASF305:
 8470 0315 5F5F7061 		.ascii	"__pad_134\000"
 8470      645F3133 
 8470      3400
 8471              	.LASF11:
 8472 031f 5F5F7061 		.ascii	"__pad_005\000"
 8472      645F3030 
 8472      3500
 8473              	.LASF12:
 8474 0329 5F5F7061 		.ascii	"__pad_006\000"
 8474      645F3030 
 8474      3600
 8475              	.LASF13:
 8476 0333 5F5F7061 		.ascii	"__pad_007\000"
 8476      645F3030 
 8476      3700
 8477              	.LASF14:
 8478 033d 5F5F7061 		.ascii	"__pad_008\000"
 8478      645F3030 
 8478      3800
 8479              	.LASF15:
 8480 0347 5F5F7061 		.ascii	"__pad_009\000"
 8480      645F3030 
 8480      3900
 8481              	.LASF308:
 8482 0351 5F5F7061 		.ascii	"__pad_137\000"
 8482      645F3133 
 8482      3700
 8483              	.LASF174:
 8484 035b 5F5F7061 		.ascii	"__pad_0AE\000"
 8484      645F3041 
 8484      4500
 8485              	.LASF5:
 8486 0365 75696E74 		.ascii	"uint32_t\000"
 8486      33325F74 
 8486      00
 8487              	.LASF310:
 8488 036e 5F5F7061 		.ascii	"__pad_139\000"
 8488      645F3133 
 8488      3900
 8489              	.LASF357:
 8490 0378 5F5F7061 		.ascii	"__pad_169\000"
 8490      645F3136 
 8490      3900
 8491              	.LASF16:
 8492 0382 5F5F7061 		.ascii	"__pad_00A\000"
 8492      645F3030 
 8492      4100
 8493              	.LASF17:
 8494 038c 5F5F7061 		.ascii	"__pad_00B\000"
 8494      645F3030 
 8494      4200
 8495              	.LASF18:
ARM GAS  /tmp/ccjXaC2Q.s 			page 169


 8496 0396 5F5F7061 		.ascii	"__pad_00C\000"
 8496      645F3030 
 8496      4300
 8497              	.LASF19:
 8498 03a0 5F5F7061 		.ascii	"__pad_00D\000"
 8498      645F3030 
 8498      4400
 8499              	.LASF20:
 8500 03aa 5F5F7061 		.ascii	"__pad_00E\000"
 8500      645F3030 
 8500      4500
 8501              	.LASF21:
 8502 03b4 5F5F7061 		.ascii	"__pad_00F\000"
 8502      645F3030 
 8502      4600
 8503              	.LASF275:
 8504 03be 5F5F7061 		.ascii	"__pad_116\000"
 8504      645F3131 
 8504      3600
 8505              	.LASF422:
 8506 03c8 70616435 		.ascii	"pad5\000"
 8506      00
 8507              	.LASF311:
 8508 03cd 5F5F7061 		.ascii	"__pad_13A\000"
 8508      645F3133 
 8508      4100
 8509              	.LASF312:
 8510 03d7 5F5F7061 		.ascii	"__pad_13B\000"
 8510      645F3133 
 8510      4200
 8511              	.LASF313:
 8512 03e1 5F5F7061 		.ascii	"__pad_13C\000"
 8512      645F3133 
 8512      4300
 8513              	.LASF315:
 8514 03eb 5F5F7061 		.ascii	"__pad_13E\000"
 8514      645F3133 
 8514      4500
 8515              	.LASF324:
 8516 03f5 4558544D 		.ascii	"EXTMODE\000"
 8516      4F444500 
 8517              	.LASF483:
 8518 03fd 5649435F 		.ascii	"VIC_DummyPLL\000"
 8518      44756D6D 
 8518      79504C4C 
 8518      00
 8519              	.LASF436:
 8520 040a 4D414D54 		.ascii	"MAMTim\000"
 8520      696D00
 8521              	.LASF22:
 8522 0411 5F5F7061 		.ascii	"__pad_010\000"
 8522      645F3031 
 8522      3000
 8523              	.LASF23:
 8524 041b 5F5F7061 		.ascii	"__pad_011\000"
 8524      645F3031 
 8524      3100
ARM GAS  /tmp/ccjXaC2Q.s 			page 170


 8525              	.LASF24:
 8526 0425 5F5F7061 		.ascii	"__pad_012\000"
 8526      645F3031 
 8526      3200
 8527              	.LASF25:
 8528 042f 5F5F7061 		.ascii	"__pad_013\000"
 8528      645F3031 
 8528      3300
 8529              	.LASF26:
 8530 0439 5F5F7061 		.ascii	"__pad_014\000"
 8530      645F3031 
 8530      3400
 8531              	.LASF27:
 8532 0443 5F5F7061 		.ascii	"__pad_015\000"
 8532      645F3031 
 8532      3500
 8533              	.LASF28:
 8534 044d 5F5F7061 		.ascii	"__pad_016\000"
 8534      645F3031 
 8534      3600
 8535              	.LASF29:
 8536 0457 5F5F7061 		.ascii	"__pad_017\000"
 8536      645F3031 
 8536      3700
 8537              	.LASF30:
 8538 0461 5F5F7061 		.ascii	"__pad_018\000"
 8538      645F3031 
 8538      3800
 8539              	.LASF31:
 8540 046b 5F5F7061 		.ascii	"__pad_019\000"
 8540      645F3031 
 8540      3900
 8541              	.LASF175:
 8542 0475 5F5F7061 		.ascii	"__pad_0AF\000"
 8542      645F3041 
 8542      4600
 8543              	.LASF196:
 8544 047f 50434F4E 		.ascii	"PCONP\000"
 8544      5000
 8545              	.LASF399:
 8546 0485 5F5F7061 		.ascii	"__pad_19C\000"
 8546      645F3139 
 8546      4300
 8547              	.LASF32:
 8548 048f 5F5F7061 		.ascii	"__pad_01A\000"
 8548      645F3031 
 8548      4100
 8549              	.LASF33:
 8550 0499 5F5F7061 		.ascii	"__pad_01B\000"
 8550      645F3031 
 8550      4200
 8551              	.LASF34:
 8552 04a3 5F5F7061 		.ascii	"__pad_01C\000"
 8552      645F3031 
 8552      4300
 8553              	.LASF35:
 8554 04ad 5F5F7061 		.ascii	"__pad_01D\000"
ARM GAS  /tmp/ccjXaC2Q.s 			page 171


 8554      645F3031 
 8554      4400
 8555              	.LASF36:
 8556 04b7 5F5F7061 		.ascii	"__pad_01E\000"
 8556      645F3031 
 8556      4500
 8557              	.LASF37:
 8558 04c1 5F5F7061 		.ascii	"__pad_01F\000"
 8558      645F3031 
 8558      4600
 8559              	.LASF423:
 8560 04cb 70616436 		.ascii	"pad6\000"
 8560      00
 8561              	.LASF424:
 8562 04d0 70616437 		.ascii	"pad7\000"
 8562      00
 8563              	.LASF425:
 8564 04d5 70616438 		.ascii	"pad8\000"
 8564      00
 8565              	.LASF408:
 8566 04da 4C504332 		.ascii	"LPC23XX_SCB\000"
 8566      3358585F 
 8566      53434200 
 8567              	.LASF477:
 8568 04e6 5649435F 		.ascii	"VIC_DummyUART0\000"
 8568      44756D6D 
 8568      79554152 
 8568      543000
 8569              	.LASF478:
 8570 04f5 5649435F 		.ascii	"VIC_DummyUART1\000"
 8570      44756D6D 
 8570      79554152 
 8570      543100
 8571              	.LASF446:
 8572 0504 696E6974 		.ascii	"initHardware\000"
 8572      48617264 
 8572      77617265 
 8572      00
 8573              	.LASF500:
 8574 0511 5649435F 		.ascii	"VIC_DummyUART3\000"
 8574      44756D6D 
 8574      79554152 
 8574      543300
 8575              	.LASF160:
 8576 0520 5F5F7061 		.ascii	"__pad_0A0\000"
 8576      645F3041 
 8576      3000
 8577              	.LASF161:
 8578 052a 5F5F7061 		.ascii	"__pad_0A1\000"
 8578      645F3041 
 8578      3100
 8579              	.LASF162:
 8580 0534 5F5F7061 		.ascii	"__pad_0A2\000"
 8580      645F3041 
 8580      3200
 8581              	.LASF163:
 8582 053e 5F5F7061 		.ascii	"__pad_0A3\000"
ARM GAS  /tmp/ccjXaC2Q.s 			page 172


 8582      645F3041 
 8582      3300
 8583              	.LASF164:
 8584 0548 5F5F7061 		.ascii	"__pad_0A4\000"
 8584      645F3041 
 8584      3400
 8585              	.LASF165:
 8586 0552 5F5F7061 		.ascii	"__pad_0A5\000"
 8586      645F3041 
 8586      3500
 8587              	.LASF166:
 8588 055c 5F5F7061 		.ascii	"__pad_0A6\000"
 8588      645F3041 
 8588      3600
 8589              	.LASF167:
 8590 0566 5F5F7061 		.ascii	"__pad_0A7\000"
 8590      645F3041 
 8590      3700
 8591              	.LASF168:
 8592 0570 5F5F7061 		.ascii	"__pad_0A8\000"
 8592      645F3041 
 8592      3800
 8593              	.LASF169:
 8594 057a 5F5F7061 		.ascii	"__pad_0A9\000"
 8594      645F3041 
 8594      3900
 8595              	.LASF506:
 8596 0584 7372632F 		.ascii	"src/init.c\000"
 8596      696E6974 
 8596      2E6300
 8597              	.LASF414:
 8598 058f 70696E43 		.ascii	"pinConfiguratorStr\000"
 8598      6F6E6669 
 8598      67757261 
 8598      746F7253 
 8598      747200
 8599              	.LASF318:
 8600 05a2 5F5F7061 		.ascii	"__pad_141\000"
 8600      645F3134 
 8600      3100
 8601              	.LASF38:
 8602 05ac 5F5F7061 		.ascii	"__pad_020\000"
 8602      645F3032 
 8602      3000
 8603              	.LASF39:
 8604 05b6 5F5F7061 		.ascii	"__pad_021\000"
 8604      645F3032 
 8604      3100
 8605              	.LASF40:
 8606 05c0 5F5F7061 		.ascii	"__pad_022\000"
 8606      645F3032 
 8606      3200
 8607              	.LASF41:
 8608 05ca 5F5F7061 		.ascii	"__pad_023\000"
 8608      645F3032 
 8608      3300
 8609              	.LASF42:
ARM GAS  /tmp/ccjXaC2Q.s 			page 173


 8610 05d4 5F5F7061 		.ascii	"__pad_024\000"
 8610      645F3032 
 8610      3400
 8611              	.LASF43:
 8612 05de 5F5F7061 		.ascii	"__pad_025\000"
 8612      645F3032 
 8612      3500
 8613              	.LASF44:
 8614 05e8 5F5F7061 		.ascii	"__pad_026\000"
 8614      645F3032 
 8614      3600
 8615              	.LASF45:
 8616 05f2 5F5F7061 		.ascii	"__pad_027\000"
 8616      645F3032 
 8616      3700
 8617              	.LASF46:
 8618 05fc 5F5F7061 		.ascii	"__pad_028\000"
 8618      645F3032 
 8618      3800
 8619              	.LASF47:
 8620 0606 5F5F7061 		.ascii	"__pad_029\000"
 8620      645F3032 
 8620      3900
 8621              	.LASF410:
 8622 0610 6D756C74 		.ascii	"multiplex\000"
 8622      69706C65 
 8622      7800
 8623              	.LASF447:
 8624 061a 696E6974 		.ascii	"initCCLK\000"
 8624      43434C4B 
 8624      00
 8625              	.LASF48:
 8626 0623 5F5F7061 		.ascii	"__pad_02A\000"
 8626      645F3032 
 8626      4100
 8627              	.LASF49:
 8628 062d 5F5F7061 		.ascii	"__pad_02B\000"
 8628      645F3032 
 8628      4200
 8629              	.LASF50:
 8630 0637 5F5F7061 		.ascii	"__pad_02C\000"
 8630      645F3032 
 8630      4300
 8631              	.LASF51:
 8632 0641 5F5F7061 		.ascii	"__pad_02D\000"
 8632      645F3032 
 8632      4400
 8633              	.LASF52:
 8634 064b 5F5F7061 		.ascii	"__pad_02E\000"
 8634      645F3032 
 8634      4500
 8635              	.LASF53:
 8636 0655 5F5F7061 		.ascii	"__pad_02F\000"
 8636      645F3032 
 8636      4600
 8637              	.LASF495:
 8638 065f 5649435F 		.ascii	"VIC_DummyMMC\000"
ARM GAS  /tmp/ccjXaC2Q.s 			page 174


 8638      44756D6D 
 8638      794D4D43 
 8638      00
 8639              	.LASF385:
 8640 066c 41484243 		.ascii	"AHBCFG1\000"
 8640      46473100 
 8641              	.LASF386:
 8642 0674 41484243 		.ascii	"AHBCFG2\000"
 8642      46473200 
 8643              	.LASF496:
 8644 067c 5649435F 		.ascii	"VIC_DummyGP_DMA\000"
 8644      44756D6D 
 8644      7947505F 
 8644      444D4100 
 8645              	.LASF380:
 8646 068c 52534944 		.ascii	"RSID\000"
 8646      00
 8647              	.LASF462:
 8648 0691 62617564 		.ascii	"baud\000"
 8648      00
 8649              	.LASF176:
 8650 0696 5F5F7061 		.ascii	"__pad_0B0\000"
 8650      645F3042 
 8650      3000
 8651              	.LASF177:
 8652 06a0 5F5F7061 		.ascii	"__pad_0B1\000"
 8652      645F3042 
 8652      3100
 8653              	.LASF178:
 8654 06aa 5F5F7061 		.ascii	"__pad_0B2\000"
 8654      645F3042 
 8654      3200
 8655              	.LASF179:
 8656 06b4 5F5F7061 		.ascii	"__pad_0B3\000"
 8656      645F3042 
 8656      3300
 8657              	.LASF180:
 8658 06be 5F5F7061 		.ascii	"__pad_0B4\000"
 8658      645F3042 
 8658      3400
 8659              	.LASF181:
 8660 06c8 5F5F7061 		.ascii	"__pad_0B5\000"
 8660      645F3042 
 8660      3500
 8661              	.LASF182:
 8662 06d2 5F5F7061 		.ascii	"__pad_0B6\000"
 8662      645F3042 
 8662      3600
 8663              	.LASF183:
 8664 06dc 5F5F7061 		.ascii	"__pad_0B7\000"
 8664      645F3042 
 8664      3700
 8665              	.LASF184:
 8666 06e6 5F5F7061 		.ascii	"__pad_0B8\000"
 8666      645F3042 
 8666      3800
 8667              	.LASF185:
ARM GAS  /tmp/ccjXaC2Q.s 			page 175


 8668 06f0 5F5F7061 		.ascii	"__pad_0B9\000"
 8668      645F3042 
 8668      3900
 8669              	.LASF431:
 8670 06fa 504C4C5F 		.ascii	"PLL_M_Mul\000"
 8670      4D5F4D75 
 8670      6C00
 8671              	.LASF54:
 8672 0704 5F5F7061 		.ascii	"__pad_030\000"
 8672      645F3033 
 8672      3000
 8673              	.LASF55:
 8674 070e 5F5F7061 		.ascii	"__pad_031\000"
 8674      645F3033 
 8674      3100
 8675              	.LASF56:
 8676 0718 5F5F7061 		.ascii	"__pad_032\000"
 8676      645F3033 
 8676      3200
 8677              	.LASF57:
 8678 0722 5F5F7061 		.ascii	"__pad_033\000"
 8678      645F3033 
 8678      3300
 8679              	.LASF58:
 8680 072c 5F5F7061 		.ascii	"__pad_034\000"
 8680      645F3033 
 8680      3400
 8681              	.LASF59:
 8682 0736 5F5F7061 		.ascii	"__pad_035\000"
 8682      645F3033 
 8682      3500
 8683              	.LASF60:
 8684 0740 5F5F7061 		.ascii	"__pad_036\000"
 8684      645F3033 
 8684      3600
 8685              	.LASF61:
 8686 074a 5F5F7061 		.ascii	"__pad_037\000"
 8686      645F3033 
 8686      3700
 8687              	.LASF62:
 8688 0754 5F5F7061 		.ascii	"__pad_038\000"
 8688      645F3033 
 8688      3800
 8689              	.LASF63:
 8690 075e 5F5F7061 		.ascii	"__pad_039\000"
 8690      645F3033 
 8690      3900
 8691              	.LASF186:
 8692 0768 5F5F7061 		.ascii	"__pad_0BA\000"
 8692      645F3042 
 8692      4100
 8693              	.LASF70:
 8694 0772 4D454D4D 		.ascii	"MEMMAP\000"
 8694      415000
 8695              	.LASF187:
 8696 0779 5F5F7061 		.ascii	"__pad_0BB\000"
 8696      645F3042 
ARM GAS  /tmp/ccjXaC2Q.s 			page 176


 8696      4200
 8697              	.LASF188:
 8698 0783 5F5F7061 		.ascii	"__pad_0BC\000"
 8698      645F3042 
 8698      4300
 8699              	.LASF189:
 8700 078d 5F5F7061 		.ascii	"__pad_0BD\000"
 8700      645F3042 
 8700      4400
 8701              	.LASF64:
 8702 0797 5F5F7061 		.ascii	"__pad_03A\000"
 8702      645F3033 
 8702      4100
 8703              	.LASF65:
 8704 07a1 5F5F7061 		.ascii	"__pad_03B\000"
 8704      645F3033 
 8704      4200
 8705              	.LASF66:
 8706 07ab 5F5F7061 		.ascii	"__pad_03C\000"
 8706      645F3033 
 8706      4300
 8707              	.LASF67:
 8708 07b5 5F5F7061 		.ascii	"__pad_03D\000"
 8708      645F3033 
 8708      4400
 8709              	.LASF68:
 8710 07bf 5F5F7061 		.ascii	"__pad_03E\000"
 8710      645F3033 
 8710      4500
 8711              	.LASF69:
 8712 07c9 5F5F7061 		.ascii	"__pad_03F\000"
 8712      645F3033 
 8712      4600
 8713              	.LASF191:
 8714 07d3 5F5F7061 		.ascii	"__pad_0BF\000"
 8714      645F3042 
 8714      4600
 8715              	.LASF190:
 8716 07dd 5F5F7061 		.ascii	"__pad_0BE\000"
 8716      645F3042 
 8716      4500
 8717              	.LASF437:
 8718 07e7 73636232 		.ascii	"scb2300_t\000"
 8718      3330305F 
 8718      7400
 8719              	.LASF432:
 8720 07f1 504C4C5F 		.ascii	"PLL_N_Div\000"
 8720      4E5F4469 
 8720      7600
 8721              	.LASF502:
 8722 07fb 5649435F 		.ascii	"VIC_DummyI2S\000"
 8722      44756D6D 
 8722      79493253 
 8722      00
 8723              	.LASF418:
 8724 0808 5F4C5043 		.ascii	"_LPC23XX_UART\000"
 8724      32335858 
ARM GAS  /tmp/ccjXaC2Q.s 			page 177


 8724      5F554152 
 8724      5400
 8725              	.LASF193:
 8726 0816 5F5F7061 		.ascii	"__pad_0C1\000"
 8726      645F3043 
 8726      3100
 8727              	.LASF194:
 8728 0820 5F5F7061 		.ascii	"__pad_0C2\000"
 8728      645F3043 
 8728      3200
 8729              	.LASF195:
 8730 082a 5F5F7061 		.ascii	"__pad_0C3\000"
 8730      645F3043 
 8730      3300
 8731              	.LASF197:
 8732 0834 5F5F7061 		.ascii	"__pad_0C8\000"
 8732      645F3043 
 8732      3800
 8733              	.LASF198:
 8734 083e 5F5F7061 		.ascii	"__pad_0C9\000"
 8734      645F3043 
 8734      3900
 8735              	.LASF297:
 8736 0848 5F5F7061 		.ascii	"__pad_12C\000"
 8736      645F3132 
 8736      4300
 8737              	.LASF333:
 8738 0852 5F5F7061 		.ascii	"__pad_151\000"
 8738      645F3135 
 8738      3100
 8739              	.LASF71:
 8740 085c 5F5F7061 		.ascii	"__pad_041\000"
 8740      645F3034 
 8740      3100
 8741              	.LASF72:
 8742 0866 5F5F7061 		.ascii	"__pad_042\000"
 8742      645F3034 
 8742      3200
 8743              	.LASF73:
 8744 0870 5F5F7061 		.ascii	"__pad_043\000"
 8744      645F3034 
 8744      3300
 8745              	.LASF74:
 8746 087a 5F5F7061 		.ascii	"__pad_044\000"
 8746      645F3034 
 8746      3400
 8747              	.LASF75:
 8748 0884 5F5F7061 		.ascii	"__pad_045\000"
 8748      645F3034 
 8748      3500
 8749              	.LASF76:
 8750 088e 5F5F7061 		.ascii	"__pad_046\000"
 8750      645F3034 
 8750      3600
 8751              	.LASF77:
 8752 0898 5F5F7061 		.ascii	"__pad_047\000"
 8752      645F3034 
ARM GAS  /tmp/ccjXaC2Q.s 			page 178


 8752      3700
 8753              	.LASF2:
 8754 08a2 75696E74 		.ascii	"uint8_t\000"
 8754      385F7400 
 8755              	.LASF79:
 8756 08aa 5F5F7061 		.ascii	"__pad_049\000"
 8756      645F3034 
 8756      3900
 8757              	.LASF339:
 8758 08b4 5F5F7061 		.ascii	"__pad_157\000"
 8758      645F3135 
 8758      3700
 8759              	.LASF480:
 8760 08be 5649435F 		.ascii	"VIC_DummyI2C0\000"
 8760      44756D6D 
 8760      79493243 
 8760      3000
 8761              	.LASF269:
 8762 08cc 5F5F7061 		.ascii	"__pad_110\000"
 8762      645F3131 
 8762      3000
 8763              	.LASF501:
 8764 08d6 5649435F 		.ascii	"VIC_DummyI2C2\000"
 8764      44756D6D 
 8764      79493243 
 8764      3200
 8765              	.LASF80:
 8766 08e4 5F5F7061 		.ascii	"__pad_04A\000"
 8766      645F3034 
 8766      4100
 8767              	.LASF81:
 8768 08ee 5F5F7061 		.ascii	"__pad_04B\000"
 8768      645F3034 
 8768      4200
 8769              	.LASF82:
 8770 08f8 5F5F7061 		.ascii	"__pad_04C\000"
 8770      645F3034 
 8770      4300
 8771              	.LASF83:
 8772 0902 5F5F7061 		.ascii	"__pad_04D\000"
 8772      645F3034 
 8772      4400
 8773              	.LASF84:
 8774 090c 5F5F7061 		.ascii	"__pad_04E\000"
 8774      645F3034 
 8774      4500
 8775              	.LASF85:
 8776 0916 5F5F7061 		.ascii	"__pad_04F\000"
 8776      645F3034 
 8776      4600
 8777              	.LASF384:
 8778 0920 43535052 		.ascii	"CSPR\000"
 8778      00
 8779              	.LASF342:
 8780 0925 5F5F7061 		.ascii	"__pad_15A\000"
 8780      645F3135 
 8780      4100
ARM GAS  /tmp/ccjXaC2Q.s 			page 179


 8781              	.LASF344:
 8782 092f 5F5F7061 		.ascii	"__pad_15C\000"
 8782      645F3135 
 8782      4300
 8783              	.LASF504:
 8784 0939 5649435F 		.ascii	"VIC_SpuriousInt\000"
 8784      53707572 
 8784      696F7573 
 8784      496E7400 
 8785              	.LASF346:
 8786 0949 5F5F7061 		.ascii	"__pad_15E\000"
 8786      645F3135 
 8786      4500
 8787              	.LASF467:
 8788 0953 75617274 		.ascii	"uart_divisor_latch\000"
 8788      5F646976 
 8788      69736F72 
 8788      5F6C6174 
 8788      636800
 8789              	.LASF439:
 8790 0966 70534342 		.ascii	"pSCBParams\000"
 8790      50617261 
 8790      6D7300
 8791              	.LASF452:
 8792 0971 706C6C73 		.ascii	"pllstat\000"
 8792      74617400 
 8793              	.LASF205:
 8794 0979 5F5F7061 		.ascii	"__pad_0D0\000"
 8794      645F3044 
 8794      3000
 8795              	.LASF206:
 8796 0983 5F5F7061 		.ascii	"__pad_0D1\000"
 8796      645F3044 
 8796      3100
 8797              	.LASF207:
 8798 098d 5F5F7061 		.ascii	"__pad_0D2\000"
 8798      645F3044 
 8798      3200
 8799              	.LASF208:
 8800 0997 5F5F7061 		.ascii	"__pad_0D3\000"
 8800      645F3044 
 8800      3300
 8801              	.LASF209:
 8802 09a1 5F5F7061 		.ascii	"__pad_0D4\000"
 8802      645F3044 
 8802      3400
 8803              	.LASF210:
 8804 09ab 5F5F7061 		.ascii	"__pad_0D5\000"
 8804      645F3044 
 8804      3500
 8805              	.LASF211:
 8806 09b5 5F5F7061 		.ascii	"__pad_0D6\000"
 8806      645F3044 
 8806      3600
 8807              	.LASF212:
 8808 09bf 5F5F7061 		.ascii	"__pad_0D7\000"
 8808      645F3044 
ARM GAS  /tmp/ccjXaC2Q.s 			page 180


 8808      3700
 8809              	.LASF213:
 8810 09c9 5F5F7061 		.ascii	"__pad_0D8\000"
 8810      645F3044 
 8810      3800
 8811              	.LASF214:
 8812 09d3 5F5F7061 		.ascii	"__pad_0D9\000"
 8812      645F3044 
 8812      3900
 8813              	.LASF86:
 8814 09dd 5F5F7061 		.ascii	"__pad_050\000"
 8814      645F3035 
 8814      3000
 8815              	.LASF87:
 8816 09e7 5F5F7061 		.ascii	"__pad_051\000"
 8816      645F3035 
 8816      3100
 8817              	.LASF88:
 8818 09f1 5F5F7061 		.ascii	"__pad_052\000"
 8818      645F3035 
 8818      3200
 8819              	.LASF89:
 8820 09fb 5F5F7061 		.ascii	"__pad_053\000"
 8820      645F3035 
 8820      3300
 8821              	.LASF90:
 8822 0a05 5F5F7061 		.ascii	"__pad_054\000"
 8822      645F3035 
 8822      3400
 8823              	.LASF91:
 8824 0a0f 5F5F7061 		.ascii	"__pad_055\000"
 8824      645F3035 
 8824      3500
 8825              	.LASF92:
 8826 0a19 5F5F7061 		.ascii	"__pad_056\000"
 8826      645F3035 
 8826      3600
 8827              	.LASF93:
 8828 0a23 5F5F7061 		.ascii	"__pad_057\000"
 8828      645F3035 
 8828      3700
 8829              	.LASF94:
 8830 0a2d 5F5F7061 		.ascii	"__pad_058\000"
 8830      645F3035 
 8830      3800
 8831              	.LASF95:
 8832 0a37 5F5F7061 		.ascii	"__pad_059\000"
 8832      645F3035 
 8832      3900
 8833              	.LASF203:
 8834 0a41 5F5F7061 		.ascii	"__pad_0CE\000"
 8834      645F3043 
 8834      4500
 8835              	.LASF204:
 8836 0a4b 5F5F7061 		.ascii	"__pad_0CF\000"
 8836      645F3043 
 8836      4600
ARM GAS  /tmp/ccjXaC2Q.s 			page 181


 8837              	.LASF78:
 8838 0a55 5F5F7061 		.ascii	"__pad_048\000"
 8838      645F3034 
 8838      3800
 8839              	.LASF492:
 8840 0a5f 5649435F 		.ascii	"VIC_DummyETHERNET\000"
 8840      44756D6D 
 8840      79455448 
 8840      45524E45 
 8840      5400
 8841              	.LASF96:
 8842 0a71 5F5F7061 		.ascii	"__pad_05A\000"
 8842      645F3035 
 8842      4100
 8843              	.LASF97:
 8844 0a7b 5F5F7061 		.ascii	"__pad_05B\000"
 8844      645F3035 
 8844      4200
 8845              	.LASF98:
 8846 0a85 5F5F7061 		.ascii	"__pad_05C\000"
 8846      645F3035 
 8846      4300
 8847              	.LASF99:
 8848 0a8f 5F5F7061 		.ascii	"__pad_05D\000"
 8848      645F3035 
 8848      4400
 8849              	.LASF100:
 8850 0a99 5F5F7061 		.ascii	"__pad_05E\000"
 8850      645F3035 
 8850      4500
 8851              	.LASF101:
 8852 0aa3 5F5F7061 		.ascii	"__pad_05F\000"
 8852      645F3035 
 8852      4600
 8853              	.LASF138:
 8854 0aad 504C4C43 		.ascii	"PLLCFG\000"
 8854      464700
 8855              	.LASF413:
 8856 0ab4 73697A65 		.ascii	"sizetype\000"
 8856      74797065 
 8856      00
 8857              	.LASF192:
 8858 0abd 50434F4E 		.ascii	"PCON\000"
 8858      00
 8859              	.LASF454:
 8860 0ac2 4E5F6469 		.ascii	"N_div\000"
 8860      7600
 8861              	.LASF466:
 8862 0ac8 70636C6B 		.ascii	"pclk_sel\000"
 8862      5F73656C 
 8862      00
 8863              	.LASF221:
 8864 0ad1 5F5F7061 		.ascii	"__pad_0E0\000"
 8864      645F3045 
 8864      3000
 8865              	.LASF222:
 8866 0adb 5F5F7061 		.ascii	"__pad_0E1\000"
ARM GAS  /tmp/ccjXaC2Q.s 			page 182


 8866      645F3045 
 8866      3100
 8867              	.LASF223:
 8868 0ae5 5F5F7061 		.ascii	"__pad_0E2\000"
 8868      645F3045 
 8868      3200
 8869              	.LASF224:
 8870 0aef 5F5F7061 		.ascii	"__pad_0E3\000"
 8870      645F3045 
 8870      3300
 8871              	.LASF225:
 8872 0af9 5F5F7061 		.ascii	"__pad_0E4\000"
 8872      645F3045 
 8872      3400
 8873              	.LASF226:
 8874 0b03 5F5F7061 		.ascii	"__pad_0E5\000"
 8874      645F3045 
 8874      3500
 8875              	.LASF227:
 8876 0b0d 5F5F7061 		.ascii	"__pad_0E6\000"
 8876      645F3045 
 8876      3600
 8877              	.LASF228:
 8878 0b17 5F5F7061 		.ascii	"__pad_0E7\000"
 8878      645F3045 
 8878      3700
 8879              	.LASF229:
 8880 0b21 5F5F7061 		.ascii	"__pad_0E8\000"
 8880      645F3045 
 8880      3800
 8881              	.LASF230:
 8882 0b2b 5F5F7061 		.ascii	"__pad_0E9\000"
 8882      645F3045 
 8882      3900
 8883              	.LASF265:
 8884 0b35 434C4B53 		.ascii	"CLKSRCSEL\000"
 8884      52435345 
 8884      4C00
 8885              	.LASF348:
 8886 0b3f 5F5F7061 		.ascii	"__pad_160\000"
 8886      645F3136 
 8886      3000
 8887              	.LASF102:
 8888 0b49 5F5F7061 		.ascii	"__pad_060\000"
 8888      645F3036 
 8888      3000
 8889              	.LASF103:
 8890 0b53 5F5F7061 		.ascii	"__pad_061\000"
 8890      645F3036 
 8890      3100
 8891              	.LASF104:
 8892 0b5d 5F5F7061 		.ascii	"__pad_062\000"
 8892      645F3036 
 8892      3200
 8893              	.LASF105:
 8894 0b67 5F5F7061 		.ascii	"__pad_063\000"
 8894      645F3036 
ARM GAS  /tmp/ccjXaC2Q.s 			page 183


 8894      3300
 8895              	.LASF106:
 8896 0b71 5F5F7061 		.ascii	"__pad_064\000"
 8896      645F3036 
 8896      3400
 8897              	.LASF107:
 8898 0b7b 5F5F7061 		.ascii	"__pad_065\000"
 8898      645F3036 
 8898      3500
 8899              	.LASF108:
 8900 0b85 5F5F7061 		.ascii	"__pad_066\000"
 8900      645F3036 
 8900      3600
 8901              	.LASF109:
 8902 0b8f 5F5F7061 		.ascii	"__pad_067\000"
 8902      645F3036 
 8902      3700
 8903              	.LASF110:
 8904 0b99 5F5F7061 		.ascii	"__pad_068\000"
 8904      645F3036 
 8904      3800
 8905              	.LASF111:
 8906 0ba3 5F5F7061 		.ascii	"__pad_069\000"
 8906      645F3036 
 8906      3900
 8907              	.LASF260:
 8908 0bad 5F5F7061 		.ascii	"__pad_107\000"
 8908      645F3130 
 8908      3700
 8909              	.LASF202:
 8910 0bb7 5F5F7061 		.ascii	"__pad_0CD\000"
 8910      645F3043 
 8910      4400
 8911              	.LASF470:
 8912 0bc1 5649435F 		.ascii	"VIC_Dummy\000"
 8912      44756D6D 
 8912      7900
 8913              	.LASF304:
 8914 0bcb 5F5F7061 		.ascii	"__pad_133\000"
 8914      645F3133 
 8914      3300
 8915              	.LASF112:
 8916 0bd5 5F5F7061 		.ascii	"__pad_06A\000"
 8916      645F3036 
 8916      4100
 8917              	.LASF113:
 8918 0bdf 5F5F7061 		.ascii	"__pad_06B\000"
 8918      645F3036 
 8918      4200
 8919              	.LASF114:
 8920 0be9 5F5F7061 		.ascii	"__pad_06C\000"
 8920      645F3036 
 8920      4300
 8921              	.LASF115:
 8922 0bf3 5F5F7061 		.ascii	"__pad_06D\000"
 8922      645F3036 
 8922      4400
ARM GAS  /tmp/ccjXaC2Q.s 			page 184


 8923              	.LASF116:
 8924 0bfd 5F5F7061 		.ascii	"__pad_06E\000"
 8924      645F3036 
 8924      4500
 8925              	.LASF117:
 8926 0c07 5F5F7061 		.ascii	"__pad_06F\000"
 8926      645F3036 
 8926      4600
 8927              	.LASF266:
 8928 0c11 5F5F7061 		.ascii	"__pad_10D\000"
 8928      645F3130 
 8928      4400
 8929              	.LASF267:
 8930 0c1b 5F5F7061 		.ascii	"__pad_10E\000"
 8930      645F3130 
 8930      4500
 8931              	.LASF268:
 8932 0c25 5F5F7061 		.ascii	"__pad_10F\000"
 8932      645F3130 
 8932      4600
 8933              	.LASF351:
 8934 0c2f 5F5F7061 		.ascii	"__pad_163\000"
 8934      645F3136 
 8934      3300
 8935              	.LASF358:
 8936 0c39 5F5F7061 		.ascii	"__pad_16A\000"
 8936      645F3136 
 8936      4100
 8937              	.LASF359:
 8938 0c43 5F5F7061 		.ascii	"__pad_16B\000"
 8938      645F3136 
 8938      4200
 8939              	.LASF354:
 8940 0c4d 5F5F7061 		.ascii	"__pad_166\000"
 8940      645F3136 
 8940      3600
 8941              	.LASF362:
 8942 0c57 5F5F7061 		.ascii	"__pad_16E\000"
 8942      645F3136 
 8942      4500
 8943              	.LASF494:
 8944 0c61 5649435F 		.ascii	"VIC_DummyCAN01\000"
 8944      44756D6D 
 8944      7943414E 
 8944      303100
 8945              	.LASF448:
 8946 0c70 466F7363 		.ascii	"Fosc\000"
 8946      00
 8947              	.LASF237:
 8948 0c75 5F5F7061 		.ascii	"__pad_0F0\000"
 8948      645F3046 
 8948      3000
 8949              	.LASF238:
 8950 0c7f 5F5F7061 		.ascii	"__pad_0F1\000"
 8950      645F3046 
 8950      3100
 8951              	.LASF3:
ARM GAS  /tmp/ccjXaC2Q.s 			page 185


 8952 0c89 75696E74 		.ascii	"uint16_t\000"
 8952      31365F74 
 8952      00
 8953              	.LASF240:
 8954 0c92 5F5F7061 		.ascii	"__pad_0F3\000"
 8954      645F3046 
 8954      3300
 8955              	.LASF241:
 8956 0c9c 5F5F7061 		.ascii	"__pad_0F4\000"
 8956      645F3046 
 8956      3400
 8957              	.LASF242:
 8958 0ca6 5F5F7061 		.ascii	"__pad_0F5\000"
 8958      645F3046 
 8958      3500
 8959              	.LASF243:
 8960 0cb0 5F5F7061 		.ascii	"__pad_0F6\000"
 8960      645F3046 
 8960      3600
 8961              	.LASF244:
 8962 0cba 5F5F7061 		.ascii	"__pad_0F7\000"
 8962      645F3046 
 8962      3700
 8963              	.LASF245:
 8964 0cc4 5F5F7061 		.ascii	"__pad_0F8\000"
 8964      645F3046 
 8964      3800
 8965              	.LASF246:
 8966 0cce 5F5F7061 		.ascii	"__pad_0F9\000"
 8966      645F3046 
 8966      3900
 8967              	.LASF493:
 8968 0cd8 5649435F 		.ascii	"VIC_DummyUSB\000"
 8968      44756D6D 
 8968      79555342 
 8968      00
 8969              	.LASF6:
 8970 0ce5 4D414D43 		.ascii	"MAMCR\000"
 8970      5200
 8971              	.LASF469:
 8972 0ceb 5649435F 		.ascii	"VIC_Init\000"
 8972      496E6974 
 8972      00
 8973              	.LASF118:
 8974 0cf4 5F5F7061 		.ascii	"__pad_070\000"
 8974      645F3037 
 8974      3000
 8975              	.LASF119:
 8976 0cfe 5F5F7061 		.ascii	"__pad_071\000"
 8976      645F3037 
 8976      3100
 8977              	.LASF120:
 8978 0d08 5F5F7061 		.ascii	"__pad_072\000"
 8978      645F3037 
 8978      3200
 8979              	.LASF121:
 8980 0d12 5F5F7061 		.ascii	"__pad_073\000"
ARM GAS  /tmp/ccjXaC2Q.s 			page 186


 8980      645F3037 
 8980      3300
 8981              	.LASF122:
 8982 0d1c 5F5F7061 		.ascii	"__pad_074\000"
 8982      645F3037 
 8982      3400
 8983              	.LASF123:
 8984 0d26 5F5F7061 		.ascii	"__pad_075\000"
 8984      645F3037 
 8984      3500
 8985              	.LASF124:
 8986 0d30 5F5F7061 		.ascii	"__pad_076\000"
 8986      645F3037 
 8986      3600
 8987              	.LASF125:
 8988 0d3a 5F5F7061 		.ascii	"__pad_077\000"
 8988      645F3037 
 8988      3700
 8989              	.LASF126:
 8990 0d44 5F5F7061 		.ascii	"__pad_078\000"
 8990      645F3037 
 8990      3800
 8991              	.LASF127:
 8992 0d4e 5F5F7061 		.ascii	"__pad_079\000"
 8992      645F3037 
 8992      3900
 8993              	.LASF219:
 8994 0d58 5F5F7061 		.ascii	"__pad_0DE\000"
 8994      645F3044 
 8994      4500
 8995              	.LASF277:
 8996 0d62 5F5F7061 		.ascii	"__pad_118\000"
 8996      645F3131 
 8996      3800
 8997              	.LASF201:
 8998 0d6c 5F5F7061 		.ascii	"__pad_0CC\000"
 8998      645F3043 
 8998      4300
 8999              	.LASF128:
 9000 0d76 5F5F7061 		.ascii	"__pad_07A\000"
 9000      645F3037 
 9000      4100
 9001              	.LASF129:
 9002 0d80 5F5F7061 		.ascii	"__pad_07B\000"
 9002      645F3037 
 9002      4200
 9003              	.LASF130:
 9004 0d8a 5F5F7061 		.ascii	"__pad_07C\000"
 9004      645F3037 
 9004      4300
 9005              	.LASF131:
 9006 0d94 5F5F7061 		.ascii	"__pad_07D\000"
 9006      645F3037 
 9006      4400
 9007              	.LASF132:
 9008 0d9e 5F5F7061 		.ascii	"__pad_07E\000"
 9008      645F3037 
ARM GAS  /tmp/ccjXaC2Q.s 			page 187


 9008      4500
 9009              	.LASF133:
 9010 0da8 5F5F7061 		.ascii	"__pad_07F\000"
 9010      645F3037 
 9010      4600
 9011              	.LASF282:
 9012 0db2 5F5F7061 		.ascii	"__pad_11D\000"
 9012      645F3131 
 9012      4400
 9013              	.LASF283:
 9014 0dbc 5F5F7061 		.ascii	"__pad_11E\000"
 9014      645F3131 
 9014      4500
 9015              	.LASF284:
 9016 0dc6 5F5F7061 		.ascii	"__pad_11F\000"
 9016      645F3131 
 9016      4600
 9017              	.LASF451:
 9018 0dd0 636C6B73 		.ascii	"clksrcsel\000"
 9018      72637365 
 9018      6C00
 9019              	.LASF503:
 9020 0dda 6D637550 		.ascii	"mcuPins\000"
 9020      696E7300 
 9021              	.LASF457:
 9022 0de2 70696E43 		.ascii	"pinConfigurator\000"
 9022      6F6E6669 
 9022      67757261 
 9022      746F7200 
 9023              	.LASF441:
 9024 0df2 706C6C63 		.ascii	"pllcfg\000"
 9024      666700
 9025              	.LASF404:
 9026 0df9 5F5F7061 		.ascii	"__pad_1A6\000"
 9026      645F3141 
 9026      3600
 9027              	.LASF405:
 9028 0e03 5F5F7061 		.ascii	"__pad_1A7\000"
 9028      645F3141 
 9028      3700
 9029              	.LASF328:
 9030 0e0d 45585450 		.ascii	"EXTPOLAR\000"
 9030      4F4C4152 
 9030      00
 9031              	.LASF135:
 9032 0e16 5F5F7061 		.ascii	"__pad_081\000"
 9032      645F3038 
 9032      3100
 9033              	.LASF136:
 9034 0e20 5F5F7061 		.ascii	"__pad_082\000"
 9034      645F3038 
 9034      3200
 9035              	.LASF137:
 9036 0e2a 5F5F7061 		.ascii	"__pad_083\000"
 9036      645F3038 
 9036      3300
 9037              	.LASF286:
ARM GAS  /tmp/ccjXaC2Q.s 			page 188


 9038 0e34 5F5F7061 		.ascii	"__pad_121\000"
 9038      645F3132 
 9038      3100
 9039              	.LASF199:
 9040 0e3e 5F5F7061 		.ascii	"__pad_0CA\000"
 9040      645F3043 
 9040      4100
 9041              	.LASF288:
 9042 0e48 5F5F7061 		.ascii	"__pad_123\000"
 9042      645F3132 
 9042      3300
 9043              	.LASF289:
 9044 0e52 5F5F7061 		.ascii	"__pad_124\000"
 9044      645F3132 
 9044      3400
 9045              	.LASF290:
 9046 0e5c 5F5F7061 		.ascii	"__pad_125\000"
 9046      645F3132 
 9046      3500
 9047              	.LASF291:
 9048 0e66 5F5F7061 		.ascii	"__pad_126\000"
 9048      645F3132 
 9048      3600
 9049              	.LASF200:
 9050 0e70 5F5F7061 		.ascii	"__pad_0CB\000"
 9050      645F3043 
 9050      4200
 9051              	.LASF293:
 9052 0e7a 5F5F7061 		.ascii	"__pad_128\000"
 9052      645F3132 
 9052      3800
 9053              	.LASF294:
 9054 0e84 5F5F7061 		.ascii	"__pad_129\000"
 9054      645F3132 
 9054      3900
 9055              	.LASF252:
 9056 0e8e 5F5F7061 		.ascii	"__pad_0FF\000"
 9056      645F3046 
 9056      4600
 9057              	.LASF141:
 9058 0e98 5F5F7061 		.ascii	"__pad_08D\000"
 9058      645F3038 
 9058      4400
 9059              	.LASF142:
 9060 0ea2 5F5F7061 		.ascii	"__pad_08E\000"
 9060      645F3038 
 9060      4500
 9061              	.LASF143:
 9062 0eac 5F5F7061 		.ascii	"__pad_08F\000"
 9062      645F3038 
 9062      4600
 9063              	.LASF298:
 9064 0eb6 5F5F7061 		.ascii	"__pad_12D\000"
 9064      645F3132 
 9064      4400
 9065              	.LASF299:
 9066 0ec0 5F5F7061 		.ascii	"__pad_12E\000"
ARM GAS  /tmp/ccjXaC2Q.s 			page 189


 9066      645F3132 
 9066      4500
 9067              	.LASF300:
 9068 0eca 5F5F7061 		.ascii	"__pad_12F\000"
 9068      645F3132 
 9068      4600
 9069              	.LASF479:
 9070 0ed4 5649435F 		.ascii	"VIC_DummyPWM01\000"
 9070      44756D6D 
 9070      7950574D 
 9070      303100
 9071              	.LASF376:
 9072 0ee3 5F5F7061 		.ascii	"__pad_17C\000"
 9072      645F3137 
 9072      4300
 9073              	.LASF449:
 9074 0eed 46706C6C 		.ascii	"Fpllclk\000"
 9074      636C6B00 
 9075              	.LASF442:
 9076 0ef5 696E6974 		.ascii	"initPLL\000"
 9076      504C4C00 
 9077              	.LASF403:
 9078 0efd 49524354 		.ascii	"IRCTRIM\000"
 9078      52494D00 
 9079              	.LASF507:
 9080 0f05 2F686F6D 		.ascii	"/home/jun/projects/critical_section\000"
 9080      652F6A75 
 9080      6E2F7072 
 9080      6F6A6563 
 9080      74732F63 
 9081              	.LASF444:
 9082 0f29 6D616D63 		.ascii	"mamcr\000"
 9082      7200
 9083              	.LASF505:
 9084 0f2f 474E5520 		.ascii	"GNU C 4.8.4 20140725 (release) [ARM/embedded-4_8-br"
 9084      4320342E 
 9084      382E3420 
 9084      32303134 
 9084      30373235 
 9085 0f62 616E6368 		.ascii	"anch revision 213147] -mcpu=arm7tdmi -marm -gdwarf-"
 9085      20726576 
 9085      6973696F 
 9085      6E203231 
 9085      33313437 
 9086 0f95 32202D4F 		.ascii	"2 -O0 -fomit-frame-pointer\000"
 9086      30202D66 
 9086      6F6D6974 
 9086      2D667261 
 9086      6D652D70 
 9087              	.LASF144:
 9088 0fb0 5F5F7061 		.ascii	"__pad_090\000"
 9088      645F3039 
 9088      3000
 9089              	.LASF145:
 9090 0fba 5F5F7061 		.ascii	"__pad_091\000"
 9090      645F3039 
 9090      3100
ARM GAS  /tmp/ccjXaC2Q.s 			page 190


 9091              	.LASF146:
 9092 0fc4 5F5F7061 		.ascii	"__pad_092\000"
 9092      645F3039 
 9092      3200
 9093              	.LASF147:
 9094 0fce 5F5F7061 		.ascii	"__pad_093\000"
 9094      645F3039 
 9094      3300
 9095              	.LASF148:
 9096 0fd8 5F5F7061 		.ascii	"__pad_094\000"
 9096      645F3039 
 9096      3400
 9097              	.LASF149:
 9098 0fe2 5F5F7061 		.ascii	"__pad_095\000"
 9098      645F3039 
 9098      3500
 9099              	.LASF150:
 9100 0fec 5F5F7061 		.ascii	"__pad_096\000"
 9100      645F3039 
 9100      3600
 9101              	.LASF151:
 9102 0ff6 5F5F7061 		.ascii	"__pad_097\000"
 9102      645F3039 
 9102      3700
 9103              	.LASF152:
 9104 1000 5F5F7061 		.ascii	"__pad_098\000"
 9104      645F3039 
 9104      3800
 9105              	.LASF153:
 9106 100a 5F5F7061 		.ascii	"__pad_099\000"
 9106      645F3039 
 9106      3900
 9107              	.LASF235:
 9108 1014 5F5F7061 		.ascii	"__pad_0EE\000"
 9108      645F3045 
 9108      4500
 9109              	.LASF309:
 9110 101e 5F5F7061 		.ascii	"__pad_138\000"
 9110      645F3133 
 9110      3800
 9111              	.LASF218:
 9112 1028 5F5F7061 		.ascii	"__pad_0DD\000"
 9112      645F3044 
 9112      4400
 9113              	.LASF395:
 9114 1032 5F5F7061 		.ascii	"__pad_198\000"
 9114      645F3139 
 9114      3800
 9115              	.LASF0:
 9116 103c 6C6F6E67 		.ascii	"long unsigned int\000"
 9116      20756E73 
 9116      69676E65 
 9116      6420696E 
 9116      7400
 9117              	.LASF255:
 9118 104e 5F5F7061 		.ascii	"__pad_102\000"
 9118      645F3130 
ARM GAS  /tmp/ccjXaC2Q.s 			page 191


 9118      3200
 9119              	.LASF154:
 9120 1058 5F5F7061 		.ascii	"__pad_09A\000"
 9120      645F3039 
 9120      4100
 9121              	.LASF155:
 9122 1062 5F5F7061 		.ascii	"__pad_09B\000"
 9122      645F3039 
 9122      4200
 9123              	.LASF156:
 9124 106c 5F5F7061 		.ascii	"__pad_09C\000"
 9124      645F3039 
 9124      4300
 9125              	.LASF157:
 9126 1076 5F5F7061 		.ascii	"__pad_09D\000"
 9126      645F3039 
 9126      4400
 9127              	.LASF158:
 9128 1080 5F5F7061 		.ascii	"__pad_09E\000"
 9128      645F3039 
 9128      4500
 9129              	.LASF159:
 9130 108a 5F5F7061 		.ascii	"__pad_09F\000"
 9130      645F3039 
 9130      4600
 9131              	.LASF314:
 9132 1094 5F5F7061 		.ascii	"__pad_13D\000"
 9132      645F3133 
 9132      4400
 9133              	.LASF259:
 9134 109e 5F5F7061 		.ascii	"__pad_106\000"
 9134      645F3130 
 9134      3600
 9135              	.LASF316:
 9136 10a8 5F5F7061 		.ascii	"__pad_13F\000"
 9136      645F3133 
 9136      4600
 9137              	.LASF262:
 9138 10b2 5F5F7061 		.ascii	"__pad_109\000"
 9138      645F3130 
 9138      3900
 9139              	.LASF427:
 9140 10bc 70616431 		.ascii	"pad10\000"
 9140      3000
 9141              	.LASF428:
 9142 10c2 70616431 		.ascii	"pad11\000"
 9142      3100
 9143              	.LASF397:
 9144 10c8 5F5F7061 		.ascii	"__pad_19A\000"
 9144      645F3139 
 9144      4100
 9145              	.LASF398:
 9146 10d2 5F5F7061 		.ascii	"__pad_19B\000"
 9146      645F3139 
 9146      4200
 9147              	.LASF263:
 9148 10dc 5F5F7061 		.ascii	"__pad_10A\000"
ARM GAS  /tmp/ccjXaC2Q.s 			page 192


 9148      645F3130 
 9148      4100
 9149              	.LASF264:
 9150 10e6 5F5F7061 		.ascii	"__pad_10B\000"
 9150      645F3130 
 9150      4200
 9151              	.LASF400:
 9152 10f0 5F5F7061 		.ascii	"__pad_19D\000"
 9152      645F3139 
 9152      4400
 9153              	.LASF411:
 9154 10fa 70696E53 		.ascii	"pinStr\000"
 9154      747200
 9155              	.LASF401:
 9156 1101 5F5F7061 		.ascii	"__pad_19E\000"
 9156      645F3139 
 9156      4500
 9157              	.LASF459:
 9158 110b 696E6974 		.ascii	"initPCLK\000"
 9158      50434C4B 
 9158      00
 9159              	.LASF402:
 9160 1114 5F5F7061 		.ascii	"__pad_19F\000"
 9160      645F3139 
 9160      4600
 9161              	.LASF1:
 9162 111e 756E7369 		.ascii	"unsigned char\000"
 9162      676E6564 
 9162      20636861 
 9162      7200
 9163              	.LASF443:
 9164 112c 696E6974 		.ascii	"initMAM\000"
 9164      4D414D00 
 9165              	.LASF458:
 9166 1134 70617474 		.ascii	"pattern\000"
 9166      65726E00 
 9167              	.LASF490:
 9168 113c 5649435F 		.ascii	"VIC_DummyI2C1\000"
 9168      44756D6D 
 9168      79493243 
 9168      3100
 9169              	.LASF474:
 9170 114a 5649435F 		.ascii	"VIC_DummyDEBUGTX\000"
 9170      44756D6D 
 9170      79444542 
 9170      55475458 
 9170      00
 9171              	.LASF257:
 9172 115b 43434C4B 		.ascii	"CCLKCFG\000"
 9172      43464700 
 9173              	.LASF319:
 9174 1163 5F5F7061 		.ascii	"__pad_142\000"
 9174      645F3134 
 9174      3200
 9175              	.LASF320:
 9176 116d 5F5F7061 		.ascii	"__pad_143\000"
 9176      645F3134 
ARM GAS  /tmp/ccjXaC2Q.s 			page 193


 9176      3300
 9177              	.LASF460:
 9178 1177 696E6974 		.ascii	"initGPIO\000"
 9178      4750494F 
 9178      00
 9179              	.LASF322:
 9180 1180 5F5F7061 		.ascii	"__pad_146\000"
 9180      645F3134 
 9180      3600
 9181              	.LASF323:
 9182 118a 5F5F7061 		.ascii	"__pad_147\000"
 9182      645F3134 
 9182      3700
 9183              	.LASF325:
 9184 1194 5F5F7061 		.ascii	"__pad_149\000"
 9184      645F3134 
 9184      3900
 9185              	.LASF412:
 9186 119e 70696E53 		.ascii	"pinSelect\000"
 9186      656C6563 
 9186      7400
 9187              	.LASF326:
 9188 11a8 5F5F7061 		.ascii	"__pad_14A\000"
 9188      645F3134 
 9188      4100
 9189              	.LASF327:
 9190 11b2 5F5F7061 		.ascii	"__pad_14B\000"
 9190      645F3134 
 9190      4200
 9191              	.LASF329:
 9192 11bc 5F5F7061 		.ascii	"__pad_14D\000"
 9192      645F3134 
 9192      4400
 9193              	.LASF330:
 9194 11c6 5F5F7061 		.ascii	"__pad_14E\000"
 9194      645F3134 
 9194      4500
 9195              	.LASF331:
 9196 11d0 5F5F7061 		.ascii	"__pad_14F\000"
 9196      645F3134 
 9196      4600
 9197              	.LASF407:
 9198 11da 50434C4B 		.ascii	"PCLKSEL1\000"
 9198      53454C31 
 9198      00
 9199              	.LASF239:
 9200 11e3 5F5F7061 		.ascii	"__pad_0F2\000"
 9200      645F3046 
 9200      3200
 9201              	.LASF471:
 9202 11ed 5649435F 		.ascii	"VIC_DummyWDT\000"
 9202      44756D6D 
 9202      79574454 
 9202      00
 9203              	.LASF434:
 9204 11fa 43434C4B 		.ascii	"CCLK_Div\000"
 9204      5F446976 
ARM GAS  /tmp/ccjXaC2Q.s 			page 194


 9204      00
 9205              	.LASF464:
 9206 1203 666D6F64 		.ascii	"fmode\000"
 9206      6500
 9207              	.LASF461:
 9208 1209 696E6974 		.ascii	"initUART0\000"
 9208      55415254 
 9208      3000
 9209              	.LASF499:
 9210 1213 5649435F 		.ascii	"VIC_DummyUART2\000"
 9210      44756D6D 
 9210      79554152 
 9210      543200
 9211              	.LASF485:
 9212 1222 5649435F 		.ascii	"VIC_DummyEINT0\000"
 9212      44756D6D 
 9212      7945494E 
 9212      543000
 9213              	.LASF486:
 9214 1231 5649435F 		.ascii	"VIC_DummyEINT1\000"
 9214      44756D6D 
 9214      7945494E 
 9214      543100
 9215              	.LASF487:
 9216 1240 5649435F 		.ascii	"VIC_DummyEINT2\000"
 9216      44756D6D 
 9216      7945494E 
 9216      543200
 9217              	.LASF488:
 9218 124f 5649435F 		.ascii	"VIC_DummyEINT3\000"
 9218      44756D6D 
 9218      7945494E 
 9218      543300
 9219              	.LASF445:
 9220 125e 6D616D74 		.ascii	"mamtim_override\000"
 9220      696D5F6F 
 9220      76657272 
 9220      69646500 
 9221              	.LASF247:
 9222 126e 5F5F7061 		.ascii	"__pad_0FA\000"
 9222      645F3046 
 9222      4100
 9223              	.LASF332:
 9224 1278 5F5F7061 		.ascii	"__pad_150\000"
 9224      645F3135 
 9224      3000
 9225              	.LASF215:
 9226 1282 5F5F7061 		.ascii	"__pad_0DA\000"
 9226      645F3044 
 9226      4100
 9227              	.LASF334:
 9228 128c 5F5F7061 		.ascii	"__pad_152\000"
 9228      645F3135 
 9228      3200
 9229              	.LASF249:
 9230 1296 5F5F7061 		.ascii	"__pad_0FC\000"
 9230      645F3046 
ARM GAS  /tmp/ccjXaC2Q.s 			page 195


 9230      4300
 9231              	.LASF336:
 9232 12a0 5F5F7061 		.ascii	"__pad_154\000"
 9232      645F3135 
 9232      3400
 9233              	.LASF216:
 9234 12aa 5F5F7061 		.ascii	"__pad_0DB\000"
 9234      645F3044 
 9234      4200
 9235              	.LASF338:
 9236 12b4 5F5F7061 		.ascii	"__pad_156\000"
 9236      645F3135 
 9236      3600
 9237              	.LASF251:
 9238 12be 5F5F7061 		.ascii	"__pad_0FE\000"
 9238      645F3046 
 9238      4500
 9239              	.LASF340:
 9240 12c8 5F5F7061 		.ascii	"__pad_158\000"
 9240      645F3135 
 9240      3800
 9241              	.LASF4:
 9242 12d2 73686F72 		.ascii	"short unsigned int\000"
 9242      7420756E 
 9242      7369676E 
 9242      65642069 
 9242      6E7400
 9243              	.LASF270:
 9244 12e5 5F5F7061 		.ascii	"__pad_111\000"
 9244      645F3131 
 9244      3100
 9245              	.LASF271:
 9246 12ef 5F5F7061 		.ascii	"__pad_112\000"
 9246      645F3131 
 9246      3200
 9247              	.LASF272:
 9248 12f9 5F5F7061 		.ascii	"__pad_113\000"
 9248      645F3131 
 9248      3300
 9249              	.LASF273:
 9250 1303 5F5F7061 		.ascii	"__pad_114\000"
 9250      645F3131 
 9250      3400
 9251              	.LASF343:
 9252 130d 5F5F7061 		.ascii	"__pad_15B\000"
 9252      645F3135 
 9252      4200
 9253              	.LASF274:
 9254 1317 5F5F7061 		.ascii	"__pad_115\000"
 9254      645F3131 
 9254      3500
 9255              	.LASF345:
 9256 1321 5F5F7061 		.ascii	"__pad_15D\000"
 9256      645F3135 
 9256      4400
 9257              	.LASF220:
 9258 132b 5F5F7061 		.ascii	"__pad_0DF\000"
ARM GAS  /tmp/ccjXaC2Q.s 			page 196


 9258      645F3044 
 9258      4600
 9259              	.LASF347:
 9260 1335 5F5F7061 		.ascii	"__pad_15F\000"
 9260      645F3135 
 9260      4600
 9261              	.LASF276:
 9262 133f 5F5F7061 		.ascii	"__pad_117\000"
 9262      645F3131 
 9262      3700
 9263              	.LASF278:
 9264 1349 5F5F7061 		.ascii	"__pad_119\000"
 9264      645F3131 
 9264      3900
 9265              	.LASF453:
 9266 1353 4D5F6D75 		.ascii	"M_mul\000"
 9266      6C00
 9267              	.LASF140:
 9268 1359 504C4C46 		.ascii	"PLLFEED\000"
 9268      45454400 
 9269              	.LASF508:
 9270 1361 67657446 		.ascii	"getFcclk\000"
 9270      63636C6B 
 9270      00
 9271              	.LASF279:
 9272 136a 5F5F7061 		.ascii	"__pad_11A\000"
 9272      645F3131 
 9272      4100
 9273              	.LASF280:
 9274 1374 5F5F7061 		.ascii	"__pad_11B\000"
 9274      645F3131 
 9274      4200
 9275              	.LASF281:
 9276 137e 5F5F7061 		.ascii	"__pad_11C\000"
 9276      645F3131 
 9276      4300
 9277              	.LASF489:
 9278 1388 5649435F 		.ascii	"VIC_DummyAD0\000"
 9278      44756D6D 
 9278      79414430 
 9278      00
 9279              	.LASF390:
 9280 1395 5F5F7061 		.ascii	"__pad_193\000"
 9280      645F3139 
 9280      3300
 9281              	.LASF231:
 9282 139f 5F5F7061 		.ascii	"__pad_0EA\000"
 9282      645F3045 
 9282      4100
 9283              	.LASF349:
 9284 13a9 5F5F7061 		.ascii	"__pad_161\000"
 9284      645F3136 
 9284      3100
 9285              	.LASF350:
 9286 13b3 5F5F7061 		.ascii	"__pad_162\000"
 9286      645F3136 
 9286      3200
ARM GAS  /tmp/ccjXaC2Q.s 			page 197


 9287              	.LASF232:
 9288 13bd 5F5F7061 		.ascii	"__pad_0EB\000"
 9288      645F3045 
 9288      4200
 9289              	.LASF352:
 9290 13c7 5F5F7061 		.ascii	"__pad_164\000"
 9290      645F3136 
 9290      3400
 9291              	.LASF353:
 9292 13d1 5F5F7061 		.ascii	"__pad_165\000"
 9292      645F3136 
 9292      3500
 9293              	.LASF233:
 9294 13db 5F5F7061 		.ascii	"__pad_0EC\000"
 9294      645F3045 
 9294      4300
 9295              	.LASF355:
 9296 13e5 5F5F7061 		.ascii	"__pad_167\000"
 9296      645F3136 
 9296      3700
 9297              	.LASF356:
 9298 13ef 5F5F7061 		.ascii	"__pad_168\000"
 9298      645F3136 
 9298      3800
 9299              	.LASF234:
 9300 13f9 5F5F7061 		.ascii	"__pad_0ED\000"
 9300      645F3045 
 9300      4400
 9301              	.LASF301:
 9302 1403 5F5F7061 		.ascii	"__pad_130\000"
 9302      645F3133 
 9302      3000
 9303              	.LASF409:
 9304 140d 706F7369 		.ascii	"position\000"
 9304      74696F6E 
 9304      00
 9305              	.LASF236:
 9306 1416 5F5F7061 		.ascii	"__pad_0EF\000"
 9306      645F3045 
 9306      4600
 9307              	.LASF337:
 9308 1420 5F5F7061 		.ascii	"__pad_155\000"
 9308      645F3135 
 9308      3500
 9309              	.LASF253:
 9310 142a 5F5F7061 		.ascii	"__pad_100\000"
 9310      645F3130 
 9310      3000
 9311              	.LASF360:
 9312 1434 5F5F7061 		.ascii	"__pad_16C\000"
 9312      645F3136 
 9312      4300
 9313              	.LASF361:
 9314 143e 5F5F7061 		.ascii	"__pad_16D\000"
 9314      645F3136 
 9314      4400
 9315              	.LASF254:
ARM GAS  /tmp/ccjXaC2Q.s 			page 198


 9316 1448 5F5F7061 		.ascii	"__pad_101\000"
 9316      645F3130 
 9316      3100
 9317              	.LASF363:
 9318 1452 5F5F7061 		.ascii	"__pad_16F\000"
 9318      645F3136 
 9318      4600
 9319              	.LASF476:
 9320 145c 5649435F 		.ascii	"VIC_DummyTIMER1\000"
 9320      44756D6D 
 9320      7954494D 
 9320      45523100 
 9321              	.LASF497:
 9322 146c 5649435F 		.ascii	"VIC_DummyTIMER2\000"
 9322      44756D6D 
 9322      7954494D 
 9322      45523200 
 9323              	.LASF498:
 9324 147c 5649435F 		.ascii	"VIC_DummyTIMER3\000"
 9324      44756D6D 
 9324      7954494D 
 9324      45523300 
 9325              		.ident	"GCC: (GNU Tools for ARM Embedded Processors) 4.8.4 20140725 (release) [ARM/embedded-4_8-br
ARM GAS  /tmp/ccjXaC2Q.s 			page 199


DEFINED SYMBOLS
                            *ABS*:00000000 init.c
     /tmp/ccjXaC2Q.s:53     .data:00000000 mcuPins
     /tmp/ccjXaC2Q.s:50     .data:00000000 $d
                            *COM*:00000004 VIC_SpuriousInt
     /tmp/ccjXaC2Q.s:794    .rodata:00000000 $d
     /tmp/ccjXaC2Q.s:811    .text:00000000 $a
     /tmp/ccjXaC2Q.s:814    .text:00000000 initHardware
     /tmp/ccjXaC2Q.s:1050   .text:0000025c initMAM
     /tmp/ccjXaC2Q.s:895    .text:000000bc initPLL
     /tmp/ccjXaC2Q.s:1300   .text:000004a8 initPCLK
     /tmp/ccjXaC2Q.s:1440   .text:000005fc initGPIO
     /tmp/ccjXaC2Q.s:1502   .text:00000684 initUART0
     /tmp/ccjXaC2Q.s:1654   .text:00000814 VIC_Init
     /tmp/ccjXaC2Q.s:888    .text:000000b4 $d
     /tmp/ccjXaC2Q.s:893    .text:000000bc $a
     /tmp/ccjXaC2Q.s:1044   .text:00000258 $d
     /tmp/ccjXaC2Q.s:1048   .text:0000025c $a
     /tmp/ccjXaC2Q.s:1106   .text:000002e0 $d
     /tmp/ccjXaC2Q.s:1112   .text:000002ec $a
     /tmp/ccjXaC2Q.s:1115   .text:000002ec initCCLK
     /tmp/ccjXaC2Q.s:1155   .text:0000033c $d
     /tmp/ccjXaC2Q.s:1159   .text:00000340 $a
     /tmp/ccjXaC2Q.s:1162   .text:00000340 getFcclk
     /tmp/ccjXaC2Q.s:1292   .text:0000049c $d
     /tmp/ccjXaC2Q.s:1298   .text:000004a8 $a
     /tmp/ccjXaC2Q.s:1321   .text:000004c4 $d
     /tmp/ccjXaC2Q.s:1325   .text:000004c8 $a
     /tmp/ccjXaC2Q.s:1328   .text:000004c8 pinConfigurator
     /tmp/ccjXaC2Q.s:1433   .text:000005f4 $d
     /tmp/ccjXaC2Q.s:1438   .text:000005fc $a
     /tmp/ccjXaC2Q.s:1491   .text:00000670 $d
     /tmp/ccjXaC2Q.s:1499   .text:00000684 $a
     /tmp/ccjXaC2Q.s:1647   .text:0000080c $d
     /tmp/ccjXaC2Q.s:1652   .text:00000814 $a
     /tmp/ccjXaC2Q.s:1807   .text:000009bc $d
     /tmp/ccjXaC2Q.s:1894   .text:00000ac8 VIC_DummyWDT
     /tmp/ccjXaC2Q.s:1924   .text:00000ae8 VIC_DummySW
     /tmp/ccjXaC2Q.s:1954   .text:00000b08 VIC_DummyDEBUGRX
     /tmp/ccjXaC2Q.s:1984   .text:00000b28 VIC_DummyDEBUGTX
     /tmp/ccjXaC2Q.s:2014   .text:00000b48 VIC_DummyTIMER0
     /tmp/ccjXaC2Q.s:2044   .text:00000b68 VIC_DummyTIMER1
     /tmp/ccjXaC2Q.s:2074   .text:00000b88 VIC_DummyUART0
     /tmp/ccjXaC2Q.s:2104   .text:00000ba8 VIC_DummyUART1
     /tmp/ccjXaC2Q.s:2134   .text:00000bc8 VIC_DummyPWM01
     /tmp/ccjXaC2Q.s:2164   .text:00000be8 VIC_DummyI2C0
     /tmp/ccjXaC2Q.s:2194   .text:00000c08 VIC_DummySPI
     /tmp/ccjXaC2Q.s:2224   .text:00000c28 VIC_DummySSP1
     /tmp/ccjXaC2Q.s:2254   .text:00000c48 VIC_DummyPLL
     /tmp/ccjXaC2Q.s:2284   .text:00000c68 VIC_DummyRTC
     /tmp/ccjXaC2Q.s:2314   .text:00000c88 VIC_DummyEINT0
     /tmp/ccjXaC2Q.s:2344   .text:00000ca8 VIC_DummyEINT1
     /tmp/ccjXaC2Q.s:2374   .text:00000cc8 VIC_DummyEINT2
     /tmp/ccjXaC2Q.s:2404   .text:00000ce8 VIC_DummyEINT3
     /tmp/ccjXaC2Q.s:2434   .text:00000d08 VIC_DummyAD0
     /tmp/ccjXaC2Q.s:2464   .text:00000d28 VIC_DummyI2C1
     /tmp/ccjXaC2Q.s:2494   .text:00000d48 VIC_DummyBOD
ARM GAS  /tmp/ccjXaC2Q.s 			page 200


     /tmp/ccjXaC2Q.s:2524   .text:00000d68 VIC_DummyETHERNET
     /tmp/ccjXaC2Q.s:2554   .text:00000d88 VIC_DummyUSB
     /tmp/ccjXaC2Q.s:2584   .text:00000da8 VIC_DummyCAN01
     /tmp/ccjXaC2Q.s:2614   .text:00000dc8 VIC_DummyMMC
     /tmp/ccjXaC2Q.s:2644   .text:00000de8 VIC_DummyGP_DMA
     /tmp/ccjXaC2Q.s:2674   .text:00000e08 VIC_DummyTIMER2
     /tmp/ccjXaC2Q.s:2704   .text:00000e28 VIC_DummyTIMER3
     /tmp/ccjXaC2Q.s:2734   .text:00000e48 VIC_DummyUART2
     /tmp/ccjXaC2Q.s:2764   .text:00000e68 VIC_DummyUART3
     /tmp/ccjXaC2Q.s:2794   .text:00000e88 VIC_DummyI2C2
     /tmp/ccjXaC2Q.s:2824   .text:00000ea8 VIC_DummyI2S
     /tmp/ccjXaC2Q.s:1876   .text:00000ac4 $a
     /tmp/ccjXaC2Q.s:1878   .text:00000ac4 VIC_Dummy
     /tmp/ccjXaC2Q.s:1918   .text:00000ae4 $d
     /tmp/ccjXaC2Q.s:1922   .text:00000ae8 $a
     /tmp/ccjXaC2Q.s:1948   .text:00000b04 $d
     /tmp/ccjXaC2Q.s:1952   .text:00000b08 $a
     /tmp/ccjXaC2Q.s:1978   .text:00000b24 $d
     /tmp/ccjXaC2Q.s:1982   .text:00000b28 $a
     /tmp/ccjXaC2Q.s:2008   .text:00000b44 $d
     /tmp/ccjXaC2Q.s:2012   .text:00000b48 $a
     /tmp/ccjXaC2Q.s:2038   .text:00000b64 $d
     /tmp/ccjXaC2Q.s:2042   .text:00000b68 $a
     /tmp/ccjXaC2Q.s:2068   .text:00000b84 $d
     /tmp/ccjXaC2Q.s:2072   .text:00000b88 $a
     /tmp/ccjXaC2Q.s:2098   .text:00000ba4 $d
     /tmp/ccjXaC2Q.s:2102   .text:00000ba8 $a
     /tmp/ccjXaC2Q.s:2128   .text:00000bc4 $d
     /tmp/ccjXaC2Q.s:2132   .text:00000bc8 $a
     /tmp/ccjXaC2Q.s:2158   .text:00000be4 $d
     /tmp/ccjXaC2Q.s:2162   .text:00000be8 $a
     /tmp/ccjXaC2Q.s:2188   .text:00000c04 $d
     /tmp/ccjXaC2Q.s:2192   .text:00000c08 $a
     /tmp/ccjXaC2Q.s:2218   .text:00000c24 $d
     /tmp/ccjXaC2Q.s:2222   .text:00000c28 $a
     /tmp/ccjXaC2Q.s:2248   .text:00000c44 $d
     /tmp/ccjXaC2Q.s:2252   .text:00000c48 $a
     /tmp/ccjXaC2Q.s:2278   .text:00000c64 $d
     /tmp/ccjXaC2Q.s:2282   .text:00000c68 $a
     /tmp/ccjXaC2Q.s:2308   .text:00000c84 $d
     /tmp/ccjXaC2Q.s:2312   .text:00000c88 $a
     /tmp/ccjXaC2Q.s:2338   .text:00000ca4 $d
     /tmp/ccjXaC2Q.s:2342   .text:00000ca8 $a
     /tmp/ccjXaC2Q.s:2368   .text:00000cc4 $d
     /tmp/ccjXaC2Q.s:2372   .text:00000cc8 $a
     /tmp/ccjXaC2Q.s:2398   .text:00000ce4 $d
     /tmp/ccjXaC2Q.s:2402   .text:00000ce8 $a
     /tmp/ccjXaC2Q.s:2428   .text:00000d04 $d
     /tmp/ccjXaC2Q.s:2432   .text:00000d08 $a
     /tmp/ccjXaC2Q.s:2458   .text:00000d24 $d
     /tmp/ccjXaC2Q.s:2462   .text:00000d28 $a
     /tmp/ccjXaC2Q.s:2488   .text:00000d44 $d
     /tmp/ccjXaC2Q.s:2492   .text:00000d48 $a
     /tmp/ccjXaC2Q.s:2518   .text:00000d64 $d
     /tmp/ccjXaC2Q.s:2522   .text:00000d68 $a
     /tmp/ccjXaC2Q.s:2548   .text:00000d84 $d
     /tmp/ccjXaC2Q.s:2552   .text:00000d88 $a
ARM GAS  /tmp/ccjXaC2Q.s 			page 201


     /tmp/ccjXaC2Q.s:2578   .text:00000da4 $d
     /tmp/ccjXaC2Q.s:2582   .text:00000da8 $a
     /tmp/ccjXaC2Q.s:2608   .text:00000dc4 $d
     /tmp/ccjXaC2Q.s:2612   .text:00000dc8 $a
     /tmp/ccjXaC2Q.s:2638   .text:00000de4 $d
     /tmp/ccjXaC2Q.s:2642   .text:00000de8 $a
     /tmp/ccjXaC2Q.s:2668   .text:00000e04 $d
     /tmp/ccjXaC2Q.s:2672   .text:00000e08 $a
     /tmp/ccjXaC2Q.s:2698   .text:00000e24 $d
     /tmp/ccjXaC2Q.s:2702   .text:00000e28 $a
     /tmp/ccjXaC2Q.s:2728   .text:00000e44 $d
     /tmp/ccjXaC2Q.s:2732   .text:00000e48 $a
     /tmp/ccjXaC2Q.s:2758   .text:00000e64 $d
     /tmp/ccjXaC2Q.s:2762   .text:00000e68 $a
     /tmp/ccjXaC2Q.s:2788   .text:00000e84 $d
     /tmp/ccjXaC2Q.s:2792   .text:00000e88 $a
     /tmp/ccjXaC2Q.s:2818   .text:00000ea4 $d
     /tmp/ccjXaC2Q.s:2822   .text:00000ea8 $a
     /tmp/ccjXaC2Q.s:2848   .text:00000ec4 $d
                     .debug_frame:00000010 $d

UNDEFINED SYMBOLS
__aeabi_uidiv
