ARM GAS  /tmp/cciAk5DZ.s 			page 1


   1              		.cpu arm7tdmi
   2              		.fpu softvfp
   3              		.eabi_attribute 20, 1	@ Tag_ABI_FP_denormal
   4              		.eabi_attribute 21, 1	@ Tag_ABI_FP_exceptions
   5              		.eabi_attribute 23, 3	@ Tag_ABI_FP_number_model
   6              		.eabi_attribute 24, 1	@ Tag_ABI_align8_needed
   7              		.eabi_attribute 25, 1	@ Tag_ABI_align8_preserved
   8              		.eabi_attribute 26, 1	@ Tag_ABI_enum_size
   9              		.eabi_attribute 30, 6	@ Tag_ABI_optimization_goals
  10              		.eabi_attribute 34, 0	@ Tag_CPU_unaligned_access
  11              		.eabi_attribute 18, 4	@ Tag_ABI_PCS_wchar_t
  12              		.file	"print.c"
  13              	@ GNU C (GNU Tools for ARM Embedded Processors) version 4.8.4 20140725 (release) [ARM/embedded-4_8-
  14              	@	compiled by GNU C version 4.7.4, GMP version 4.3.2, MPFR version 2.4.2, MPC version 0.8.1
  15              	@ GGC heuristics: --param ggc-min-expand=100 --param ggc-min-heapsize=131072
  16              	@ options passed:  -I . -I ./inc
  17              	@ -iprefix /opt/gcc-arm-none-eabi-4_8-2014q3/bin/../lib/gcc/arm-none-eabi/4.8.4/
  18              	@ -isysroot /opt/gcc-arm-none-eabi-4_8-2014q3/bin/../arm-none-eabi
  19              	@ -MD src/print.d -MF .dep/print.o.d -MP -MQ src/print.o
  20              	@ -D__USES_INITFINI__ -D DEBUG=1 src/print.c -mcpu=arm7tdmi -marm
  21              	@ -auxbase-strip src/print.o -gdwarf-2 -O0 -Wall -Wstrict-prototypes
  22              	@ -fomit-frame-pointer -fverbose-asm
  23              	@ options enabled:  -faggressive-loop-optimizations -fauto-inc-dec
  24              	@ -fbranch-count-reg -fcommon -fdelete-null-pointer-checks -fdwarf2-cfi-asm
  25              	@ -fearly-inlining -feliminate-unused-debug-types -ffunction-cse -fgcse-lm
  26              	@ -fgnu-runtime -fgnu-unique -fident -finline-atomics -fira-hoist-pressure
  27              	@ -fira-share-save-slots -fira-share-spill-slots -fivopts
  28              	@ -fkeep-static-consts -fleading-underscore -fmath-errno
  29              	@ -fmerge-debug-strings -fmove-loop-invariants -fomit-frame-pointer
  30              	@ -fpeephole -fprefetch-loop-arrays -freg-struct-return
  31              	@ -fsched-critical-path-heuristic -fsched-dep-count-heuristic
  32              	@ -fsched-group-heuristic -fsched-interblock -fsched-last-insn-heuristic
  33              	@ -fsched-rank-heuristic -fsched-spec -fsched-spec-insn-heuristic
  34              	@ -fsched-stalled-insns-dep -fshow-column -fsigned-zeros
  35              	@ -fsplit-ivs-in-unroller -fstrict-volatile-bitfields -fsync-libcalls
  36              	@ -ftrapping-math -ftree-coalesce-vars -ftree-cselim -ftree-forwprop
  37              	@ -ftree-loop-if-convert -ftree-loop-im -ftree-loop-ivcanon
  38              	@ -ftree-loop-optimize -ftree-parallelize-loops= -ftree-phiprop -ftree-pta
  39              	@ -ftree-reassoc -ftree-scev-cprop -ftree-slp-vectorize
  40              	@ -ftree-vect-loop-version -funit-at-a-time -fverbose-asm
  41              	@ -fzero-initialized-in-bss -marm -mlittle-endian
  42              	@ -mpic-data-is-text-relative -msched-prolog -mthumb-interwork
  43              	@ -mvectorize-with-neon-quad
  44              	
  45              		.text
  46              	.Ltext0:
  47              		.cfi_sections	.debug_frame
  48              		.align	2
  49              		.global	printHex
  50              		.type	printHex, %function
  51              	printHex:
  52              	.LFB0:
  53              		.file 1 "src/print.c"
   1:src/print.c   **** /*
   2:src/print.c   ****  * MODULE
   3:src/print.c   ****  *
   4:src/print.c   ****  *   print.c
ARM GAS  /tmp/cciAk5DZ.s 			page 2


   5:src/print.c   ****  *
   6:src/print.c   ****  * DESCRIPTION
   7:src/print.c   ****  *
   8:src/print.c   ****  * Very lightweight print functions.
   9:src/print.c   ****  *
  10:src/print.c   ****  * OS
  11:src/print.c   ****  *
  12:src/print.c   ****  *  n/a
  13:src/print.c   ****  *
  14:src/print.c   ****  * PLATFORM
  15:src/print.c   ****  *
  16:src/print.c   ****  * HISTORY
  17:src/print.c   ****  *   2007/10/30: Added Alan's uint32_t print
  18:src/print.c   ****  *               Added Stephane's printHex
  19:src/print.c   ****  *   2007/10/01: Mitch Ishihara
  20:src/print.c   **** ****************************************************************************/
  21:src/print.c   **** #define __PRINT_C__
  22:src/print.c   **** 
  23:src/print.c   **** #include "lpc2378.h"
  24:src/print.c   **** #include "uarts.h"
  25:src/print.c   **** #include "print.h"
  26:src/print.c   **** 
  27:src/print.c   **** 
  28:src/print.c   **** /*=========================================================================*/
  29:src/print.c   **** /*  DEFINE: All Structures and Common Constants                            */
  30:src/print.c   **** /*=========================================================================*/
  31:src/print.c   **** 
  32:src/print.c   **** /*=========================================================================*/
  33:src/print.c   **** /*  DEFINE: Prototypes                                                     */
  34:src/print.c   **** /*=========================================================================*/
  35:src/print.c   **** 
  36:src/print.c   **** /*=========================================================================*/
  37:src/print.c   **** /*  DEFINE: Definition of all local Data                                   */
  38:src/print.c   **** /*=========================================================================*/
  39:src/print.c   **** 
  40:src/print.c   **** /*=========================================================================*/
  41:src/print.c   **** /*  DEFINE: Definition of all local Procedures                             */
  42:src/print.c   **** /*=========================================================================*/
  43:src/print.c   **** 
  44:src/print.c   **** /*=========================================================================*/
  45:src/print.c   **** /*  DEFINE: All code exported                                              */
  46:src/print.c   **** /*=========================================================================*/
  47:src/print.c   **** void printHex(uint32_t u32)
  48:src/print.c   **** {
  54              		.loc 1 48 0
  55              		.cfi_startproc
  56              		@ Function supports interworking.
  57              		@ args = 0, pretend = 0, frame = 24
  58              		@ frame_needed = 0, uses_anonymous_args = 0
  59              		@ link register save eliminated.
  60 0000 18D04DE2 		sub	sp, sp, #24	@,,
  61              	.LCFI0:
  62              		.cfi_def_cfa_offset 24
  63 0004 04008DE5 		str	r0, [sp, #4]	@ u32, u32
  49:src/print.c   ****     uint32_t   u32Mask  = 0xF0000000;
  64              		.loc 1 49 0
  65 0008 0F32A0E3 		mov	r3, #-268435456	@ tmp122,
ARM GAS  /tmp/cciAk5DZ.s 			page 3


  66 000c 14308DE5 		str	r3, [sp, #20]	@ tmp122, u32Mask
  50:src/print.c   ****     uint8_t    u32Shift = 32;
  67              		.loc 1 50 0
  68 0010 2030A0E3 		mov	r3, #32	@ tmp123,
  69 0014 1330CDE5 		strb	r3, [sp, #19]	@ tmp124, u32Shift
  70              	.L8:
  51:src/print.c   ****     uint32_t   u32Char;
  52:src/print.c   **** 
  53:src/print.c   ****     do {
  54:src/print.c   ****         u32Shift -= 4;
  71              		.loc 1 54 0
  72 0018 1330DDE5 		ldrb	r3, [sp, #19]	@ tmp125, u32Shift
  73 001c 043043E2 		sub	r3, r3, #4	@ tmp126, tmp125,
  74 0020 1330CDE5 		strb	r3, [sp, #19]	@ tmp127, u32Shift
  55:src/print.c   ****         u32Char = (u32 & u32Mask) >> u32Shift;
  75              		.loc 1 55 0
  76 0024 04209DE5 		ldr	r2, [sp, #4]	@ tmp128, u32
  77 0028 14309DE5 		ldr	r3, [sp, #20]	@ tmp129, u32Mask
  78 002c 032002E0 		and	r2, r2, r3	@ D.4739, tmp128, tmp129
  79 0030 1330DDE5 		ldrb	r3, [sp, #19]	@ zero_extendqisi2	@ D.4740, u32Shift
  80 0034 3233A0E1 		mov	r3, r2, lsr r3	@ tmp130, D.4739,
  81 0038 0C308DE5 		str	r3, [sp, #12]	@ tmp130, u32Char
  56:src/print.c   ****         u32Mask >>= 4;
  82              		.loc 1 56 0
  83 003c 14309DE5 		ldr	r3, [sp, #20]	@ tmp132, u32Mask
  84 0040 2332A0E1 		mov	r3, r3, lsr #4	@ tmp131, tmp132,
  85 0044 14308DE5 		str	r3, [sp, #20]	@ tmp131, u32Mask
  57:src/print.c   ****         if (u32Char >= 0xA)
  86              		.loc 1 57 0
  87 0048 0C309DE5 		ldr	r3, [sp, #12]	@ tmp133, u32Char
  88 004c 090053E3 		cmp	r3, #9	@ tmp133,
  89 0050 0B00009A 		bls	.L2	@,
  58:src/print.c   ****         {
  59:src/print.c   ****             PUTC('A' + (u32Char - 10));
  90              		.loc 1 59 0
  91 0054 000000EA 		b	.L3	@
  92              	.L4:
  93              		.loc 1 59 0 is_stmt 0 discriminator 2
  94 0058 0000A0E1 		mov	r0, r0	@ nop
  95              	.L3:
  96              		.loc 1 59 0 discriminator 1
  97 005c 60309FE5 		ldr	r3, .L9	@ D.4741,
  98 0060 003093E5 		ldr	r3, [r3]	@ D.4739, *_11
  99 0064 203003E2 		and	r3, r3, #32	@ D.4739, D.4739,
 100 0068 000053E3 		cmp	r3, #0	@ D.4739,
 101 006c F9FFFF0A 		beq	.L4	@,
 102              		.loc 1 59 0 discriminator 3
 103 0070 50309FE5 		ldr	r3, .L9+4	@ D.4741,
 104 0074 0C209DE5 		ldr	r2, [sp, #12]	@ tmp134, u32Char
 105 0078 372082E2 		add	r2, r2, #55	@ D.4739, tmp134,
 106 007c 002083E5 		str	r2, [r3]	@ D.4739, *_14
 107 0080 0A0000EA 		b	.L5	@
 108              	.L2:
  60:src/print.c   ****         }
  61:src/print.c   ****         else
  62:src/print.c   ****         {
  63:src/print.c   ****             PUTC('0' + u32Char);
ARM GAS  /tmp/cciAk5DZ.s 			page 4


 109              		.loc 1 63 0 is_stmt 1
 110 0084 000000EA 		b	.L6	@
 111              	.L7:
 112              		.loc 1 63 0 is_stmt 0 discriminator 2
 113 0088 0000A0E1 		mov	r0, r0	@ nop
 114              	.L6:
 115              		.loc 1 63 0 discriminator 1
 116 008c 30309FE5 		ldr	r3, .L9	@ D.4741,
 117 0090 003093E5 		ldr	r3, [r3]	@ D.4739, *_16
 118 0094 203003E2 		and	r3, r3, #32	@ D.4739, D.4739,
 119 0098 000053E3 		cmp	r3, #0	@ D.4739,
 120 009c F9FFFF0A 		beq	.L7	@,
 121              		.loc 1 63 0 discriminator 3
 122 00a0 20309FE5 		ldr	r3, .L9+4	@ D.4741,
 123 00a4 0C209DE5 		ldr	r2, [sp, #12]	@ tmp135, u32Char
 124 00a8 302082E2 		add	r2, r2, #48	@ D.4739, tmp135,
 125 00ac 002083E5 		str	r2, [r3]	@ D.4739, *_19
 126              	.L5:
  64:src/print.c   ****         }
  65:src/print.c   ****     } while (u32Shift > 0);
 127              		.loc 1 65 0 is_stmt 1
 128 00b0 1330DDE5 		ldrb	r3, [sp, #19]	@ zero_extendqisi2	@ tmp136, u32Shift
 129 00b4 000053E3 		cmp	r3, #0	@ tmp136,
 130 00b8 D6FFFF1A 		bne	.L8	@,
  66:src/print.c   **** }
 131              		.loc 1 66 0
 132 00bc 18D08DE2 		add	sp, sp, #24	@,,
 133              		@ sp needed	@
 134 00c0 1EFF2FE1 		bx	lr	@
 135              	.L10:
 136              		.align	2
 137              	.L9:
 138 00c4 14C000E0 		.word	-536821740
 139 00c8 00C000E0 		.word	-536821760
 140              		.cfi_endproc
 141              	.LFE0:
 142              		.size	printHex, .-printHex
 143              		.align	2
 144              		.global	print_uint32
 145              		.type	print_uint32, %function
 146              	print_uint32:
 147              	.LFB1:
  67:src/print.c   **** 
  68:src/print.c   **** void print_uint32(uint32_t u)
  69:src/print.c   **** {
 148              		.loc 1 69 0
 149              		.cfi_startproc
 150              		@ Function supports interworking.
 151              		@ args = 0, pretend = 0, frame = 24
 152              		@ frame_needed = 1, uses_anonymous_args = 0
 153 00cc F0482DE9 		stmfd	sp!, {r4, r5, r6, r7, fp, lr}	@,
 154              	.LCFI1:
 155              		.cfi_def_cfa_offset 24
 156              		.cfi_offset 4, -24
 157              		.cfi_offset 5, -20
 158              		.cfi_offset 6, -16
 159              		.cfi_offset 7, -12
ARM GAS  /tmp/cciAk5DZ.s 			page 5


 160              		.cfi_offset 11, -8
 161              		.cfi_offset 14, -4
 162 00d0 14B08DE2 		add	fp, sp, #20	@,,
 163              	.LCFI2:
 164              		.cfi_def_cfa 11, 4
 165 00d4 18D04DE2 		sub	sp, sp, #24	@,,
 166 00d8 28000BE5 		str	r0, [fp, #-40]	@ u, u
 167 00dc 0D00A0E1 		mov	r0, sp	@ tmp122,
 168 00e0 0070A0E1 		mov	r7, r0	@ saved_stack.3, tmp122
  70:src/print.c   ****     uint32_t    buffer_length = 20;
 169              		.loc 1 70 0
 170 00e4 1400A0E3 		mov	r0, #20	@ tmp123,
 171 00e8 1C000BE5 		str	r0, [fp, #-28]	@ tmp123, buffer_length
  71:src/print.c   ****     char      buffer[buffer_length];
 172              		.loc 1 71 0
 173 00ec 1C001BE5 		ldr	r0, [fp, #-28]	@ buffer_length.0, buffer_length
 174 00f0 00C0A0E1 		mov	ip, r0	@ buffer_length.1, buffer_length.0
 175 00f4 01C04CE2 		sub	ip, ip, #1	@ D.4742, buffer_length.1,
 176 00f8 20C00BE5 		str	ip, [fp, #-32]	@ D.4742, D.4697
 177 00fc 0050A0E1 		mov	r5, r0	@ D.4743, buffer_length.0
 178 0100 0060A0E3 		mov	r6, #0	@ D.4743,
 179 0104 8621A0E1 		mov	r2, r6, asl #3	@ D.4743, D.4743,
 180 0108 A52E82E1 		orr	r2, r2, r5, lsr #29	@, D.4743, D.4743, D.4743,
 181 010c 8511A0E1 		mov	r1, r5, asl #3	@ D.4743, D.4743,
 182 0110 0010A0E1 		mov	r1, r0	@ D.4743, buffer_length.0
 183 0114 0020A0E3 		mov	r2, #0	@ D.4743,
 184 0118 8241A0E1 		mov	r4, r2, asl #3	@ D.4743, D.4743,
 185 011c A14E84E1 		orr	r4, r4, r1, lsr #29	@, D.4743, D.4743, D.4743,
 186 0120 8131A0E1 		mov	r3, r1, asl #3	@ D.4743, D.4743,
 187 0124 073080E2 		add	r3, r0, #7	@ tmp128, buffer_length.0,
 188 0128 A331A0E1 		mov	r3, r3, lsr #3	@ tmp129, tmp128,
 189 012c 8331A0E1 		mov	r3, r3, asl #3	@ tmp130, tmp129,
 190 0130 03D04DE0 		sub	sp, sp, r3	@,, tmp130
 191 0134 0D30A0E1 		mov	r3, sp	@ tmp131,
 192 0138 003083E2 		add	r3, r3, #0	@ tmp132, tmp131,
 193 013c 24300BE5 		str	r3, [fp, #-36]	@ tmp132, buffer.2
  72:src/print.c   ****     char      *p = &buffer[buffer_length - 1];
 194              		.loc 1 72 0
 195 0140 1C301BE5 		ldr	r3, [fp, #-28]	@ tmp133, buffer_length
 196 0144 013043E2 		sub	r3, r3, #1	@ D.4744, tmp133,
 197 0148 24201BE5 		ldr	r2, [fp, #-36]	@ tmp135, buffer.2
 198 014c 033082E0 		add	r3, r2, r3	@ tmp134, tmp135, D.4744
 199 0150 18300BE5 		str	r3, [fp, #-24]	@ tmp134, p
  73:src/print.c   **** 
  74:src/print.c   ****     *p = '\0';
 200              		.loc 1 74 0
 201 0154 18301BE5 		ldr	r3, [fp, #-24]	@ tmp136, p
 202 0158 0020A0E3 		mov	r2, #0	@ tmp137,
 203 015c 0020C3E5 		strb	r2, [r3]	@ tmp138, *p_15
 204              	.L12:
  75:src/print.c   ****     do {
  76:src/print.c   ****         p--;
 205              		.loc 1 76 0 discriminator 1
 206 0160 18301BE5 		ldr	r3, [fp, #-24]	@ tmp140, p
 207 0164 013043E2 		sub	r3, r3, #1	@ tmp139, tmp140,
 208 0168 18300BE5 		str	r3, [fp, #-24]	@ tmp139, p
  77:src/print.c   ****         *p = (u % 10) + '0';
ARM GAS  /tmp/cciAk5DZ.s 			page 6


 209              		.loc 1 77 0 discriminator 1
 210 016c 28101BE5 		ldr	r1, [fp, #-40]	@ tmp141, u
 211 0170 64309FE5 		ldr	r3, .L13	@ tmp143,
 212 0174 912383E0 		umull	r2, r3, r1, r3	@, tmp142, tmp141, tmp143
 213 0178 A321A0E1 		mov	r2, r3, lsr #3	@ D.4744, tmp142,
 214 017c 0230A0E1 		mov	r3, r2	@ tmp144, D.4744
 215 0180 0331A0E1 		mov	r3, r3, asl #2	@ tmp144, tmp144,
 216 0184 023083E0 		add	r3, r3, r2	@ tmp144, tmp144, D.4744
 217 0188 8330A0E1 		mov	r3, r3, asl #1	@ tmp145, tmp144,
 218 018c 012063E0 		rsb	r2, r3, r1	@ D.4744, tmp144, tmp141
 219 0190 FF3002E2 		and	r3, r2, #255	@ D.4745, D.4744,
 220 0194 303083E2 		add	r3, r3, #48	@ tmp146, D.4745,
 221 0198 FF2003E2 		and	r2, r3, #255	@ D.4745, tmp146,
 222 019c 18301BE5 		ldr	r3, [fp, #-24]	@ tmp147, p
 223 01a0 0020C3E5 		strb	r2, [r3]	@ tmp148, *p_17
  78:src/print.c   ****         u /= 10;
 224              		.loc 1 78 0 discriminator 1
 225 01a4 28201BE5 		ldr	r2, [fp, #-40]	@ tmp150, u
 226 01a8 2C309FE5 		ldr	r3, .L13	@ tmp152,
 227 01ac 921383E0 		umull	r1, r3, r2, r3	@, tmp151, tmp150, tmp152
 228 01b0 A331A0E1 		mov	r3, r3, lsr #3	@ tmp149, tmp151,
 229 01b4 28300BE5 		str	r3, [fp, #-40]	@ tmp149, u
  79:src/print.c   ****     } while (u > 0);
 230              		.loc 1 79 0 discriminator 1
 231 01b8 28301BE5 		ldr	r3, [fp, #-40]	@ tmp153, u
 232 01bc 000053E3 		cmp	r3, #0	@ tmp153,
 233 01c0 E6FFFF1A 		bne	.L12	@,
  80:src/print.c   **** 
  81:src/print.c   ****     printString(p);
 234              		.loc 1 81 0
 235 01c4 18001BE5 		ldr	r0, [fp, #-24]	@, p
 236 01c8 FEFFFFEB 		bl	printString	@
 237 01cc 07D0A0E1 		mov	sp, r7	@, saved_stack.3
  82:src/print.c   **** }
 238              		.loc 1 82 0
 239 01d0 14D04BE2 		sub	sp, fp, #20	@,,
 240              		@ sp needed	@
 241 01d4 F048BDE8 		ldmfd	sp!, {r4, r5, r6, r7, fp, lr}	@
 242 01d8 1EFF2FE1 		bx	lr	@
 243              	.L14:
 244              		.align	2
 245              	.L13:
 246 01dc CDCCCCCC 		.word	-858993459
 247              		.cfi_endproc
 248              	.LFE1:
 249              		.size	print_uint32, .-print_uint32
 250              		.align	2
 251              		.global	printString
 252              		.type	printString, %function
 253              	printString:
 254              	.LFB2:
  83:src/print.c   **** 
  84:src/print.c   **** 
  85:src/print.c   **** /*
  86:src/print.c   ****  * NAME
  87:src/print.c   ****  *
  88:src/print.c   ****  *  printString
ARM GAS  /tmp/cciAk5DZ.s 			page 7


  89:src/print.c   ****  *
  90:src/print.c   ****  * DESCRIPTION
  91:src/print.c   ****  *
  92:src/print.c   ****  *  Standard printString function
  93:src/print.c   ****  *
  94:src/print.c   ****  * PARAMETERS
  95:src/print.c   ****  *
  96:src/print.c   ****  *  none...
  97:src/print.c   ****  *
  98:src/print.c   ****  * EXAMPLE
  99:src/print.c   ****  *
 100:src/print.c   ****  *  printString("hello embedded world");
 101:src/print.c   ****  *
 102:src/print.c   ****  * NOTES
 103:src/print.c   ****  *
 104:src/print.c   ****  *  intercepts '\n' and adds '\r'  (LF+CR)
 105:src/print.c   ****  *
 106:src/print.c   ****  */
 107:src/print.c   **** 
 108:src/print.c   **** void printString(char *ptr)
 109:src/print.c   **** {
 255              		.loc 1 109 0
 256              		.cfi_startproc
 257              		@ Function supports interworking.
 258              		@ args = 0, pretend = 0, frame = 8
 259              		@ frame_needed = 0, uses_anonymous_args = 0
 260              		@ link register save eliminated.
 261 01e0 08D04DE2 		sub	sp, sp, #8	@,,
 262              	.LCFI3:
 263              		.cfi_def_cfa_offset 8
 264 01e4 04008DE5 		str	r0, [sp, #4]	@ ptr, ptr
 110:src/print.c   ****     if (ptr==0 || *ptr==0) return;
 265              		.loc 1 110 0
 266 01e8 04309DE5 		ldr	r3, [sp, #4]	@ tmp131, ptr
 267 01ec 000053E3 		cmp	r3, #0	@ tmp131,
 268 01f0 0300000A 		beq	.L16	@,
 269              		.loc 1 110 0 is_stmt 0 discriminator 2
 270 01f4 04309DE5 		ldr	r3, [sp, #4]	@ tmp132, ptr
 271 01f8 0030D3E5 		ldrb	r3, [r3]	@ zero_extendqisi2	@ D.4746, *ptr_3(D)
 272 01fc 000053E3 		cmp	r3, #0	@ D.4746,
 273 0200 0000001A 		bne	.L17	@,
 274              	.L16:
 275              		.loc 1 110 0 discriminator 1
 276 0204 2C0000EA 		b	.L15	@
 277              	.L17:
 111:src/print.c   **** 
 112:src/print.c   ****     do
 113:src/print.c   ****     {
 114:src/print.c   ****       if (*ptr=='\n')
 278              		.loc 1 114 0 is_stmt 1
 279 0208 04309DE5 		ldr	r3, [sp, #4]	@ tmp133, ptr
 280 020c 0030D3E5 		ldrb	r3, [r3]	@ zero_extendqisi2	@ D.4746, *ptr_1
 281 0210 0A0053E3 		cmp	r3, #10	@ D.4746,
 282 0214 1700001A 		bne	.L19	@,
 115:src/print.c   ****       {
 116:src/print.c   ****       PUTC(*ptr++);
 283              		.loc 1 116 0
ARM GAS  /tmp/cciAk5DZ.s 			page 8


 284 0218 000000EA 		b	.L20	@
 285              	.L21:
 286              		.loc 1 116 0 is_stmt 0 discriminator 2
 287 021c 0000A0E1 		mov	r0, r0	@ nop
 288              	.L20:
 289              		.loc 1 116 0 discriminator 1
 290 0220 9C309FE5 		ldr	r3, .L27	@ D.4747,
 291 0224 003093E5 		ldr	r3, [r3]	@ D.4748, *_6
 292 0228 203003E2 		and	r3, r3, #32	@ D.4748, D.4748,
 293 022c 000053E3 		cmp	r3, #0	@ D.4748,
 294 0230 F9FFFF0A 		beq	.L21	@,
 295              		.loc 1 116 0 discriminator 3
 296 0234 8C209FE5 		ldr	r2, .L27+4	@ D.4747,
 297 0238 04309DE5 		ldr	r3, [sp, #4]	@ ptr.4, ptr
 298 023c 011083E2 		add	r1, r3, #1	@ tmp134, ptr.4,
 299 0240 04108DE5 		str	r1, [sp, #4]	@ tmp134, ptr
 300 0244 0030D3E5 		ldrb	r3, [r3]	@ zero_extendqisi2	@ D.4746, *ptr.4_10
 301 0248 003082E5 		str	r3, [r2]	@ D.4748, *_9
 117:src/print.c   ****       PUTC('\r');
 302              		.loc 1 117 0 is_stmt 1 discriminator 3
 303 024c 000000EA 		b	.L22	@
 304              	.L23:
 305              		.loc 1 117 0 is_stmt 0 discriminator 2
 306 0250 0000A0E1 		mov	r0, r0	@ nop
 307              	.L22:
 308              		.loc 1 117 0 discriminator 1
 309 0254 68309FE5 		ldr	r3, .L27	@ D.4747,
 310 0258 003093E5 		ldr	r3, [r3]	@ D.4748, *_14
 311 025c 203003E2 		and	r3, r3, #32	@ D.4748, D.4748,
 312 0260 000053E3 		cmp	r3, #0	@ D.4748,
 313 0264 F9FFFF0A 		beq	.L23	@,
 314              		.loc 1 117 0 discriminator 3
 315 0268 58309FE5 		ldr	r3, .L27+4	@ D.4747,
 316 026c 0D20A0E3 		mov	r2, #13	@ tmp135,
 317 0270 002083E5 		str	r2, [r3]	@ tmp135, *_17
 318 0274 0C0000EA 		b	.L24	@
 319              	.L19:
 118:src/print.c   ****       }
 119:src/print.c   ****       else
 120:src/print.c   ****       {
 121:src/print.c   ****       PUTC(*ptr++);
 320              		.loc 1 121 0 is_stmt 1
 321 0278 000000EA 		b	.L25	@
 322              	.L26:
 323              		.loc 1 121 0 is_stmt 0 discriminator 2
 324 027c 0000A0E1 		mov	r0, r0	@ nop
 325              	.L25:
 326              		.loc 1 121 0 discriminator 1
 327 0280 3C309FE5 		ldr	r3, .L27	@ D.4747,
 328 0284 003093E5 		ldr	r3, [r3]	@ D.4748, *_18
 329 0288 203003E2 		and	r3, r3, #32	@ D.4748, D.4748,
 330 028c 000053E3 		cmp	r3, #0	@ D.4748,
 331 0290 F9FFFF0A 		beq	.L26	@,
 332              		.loc 1 121 0 discriminator 3
 333 0294 2C209FE5 		ldr	r2, .L27+4	@ D.4747,
 334 0298 04309DE5 		ldr	r3, [sp, #4]	@ ptr.5, ptr
 335 029c 011083E2 		add	r1, r3, #1	@ tmp136, ptr.5,
ARM GAS  /tmp/cciAk5DZ.s 			page 9


 336 02a0 04108DE5 		str	r1, [sp, #4]	@ tmp136, ptr
 337 02a4 0030D3E5 		ldrb	r3, [r3]	@ zero_extendqisi2	@ D.4746, *ptr.5_22
 338 02a8 003082E5 		str	r3, [r2]	@ D.4748, *_21
 339              	.L24:
 122:src/print.c   ****       }
 123:src/print.c   ****     }
 124:src/print.c   ****     while (*ptr!=0);
 340              		.loc 1 124 0 is_stmt 1
 341 02ac 04309DE5 		ldr	r3, [sp, #4]	@ tmp137, ptr
 342 02b0 0030D3E5 		ldrb	r3, [r3]	@ zero_extendqisi2	@ D.4746, *ptr_2
 343 02b4 000053E3 		cmp	r3, #0	@ D.4746,
 344 02b8 D2FFFF1A 		bne	.L17	@,
 345              	.L15:
 125:src/print.c   **** }
 346              		.loc 1 125 0
 347 02bc 08D08DE2 		add	sp, sp, #8	@,,
 348              		@ sp needed	@
 349 02c0 1EFF2FE1 		bx	lr	@
 350              	.L28:
 351              		.align	2
 352              	.L27:
 353 02c4 14C000E0 		.word	-536821740
 354 02c8 00C000E0 		.word	-536821760
 355              		.cfi_endproc
 356              	.LFE2:
 357              		.size	printString, .-printString
 358              	.Letext0:
 359              		.file 2 "./inc/lpc2378.h"