ARM GAS  /tmp/cciAk5DZ.s 			page 1


   1              		.cpu arm7tdmi
   2              		.fpu softvfp
   3              		.eabi_attribute 20, 1	@ Tag_ABI_FP_denormal
   4              		.eabi_attribute 21, 1	@ Tag_ABI_FP_exceptions
   5              		.eabi_attribute 23, 3	@ Tag_ABI_FP_number_model
   6              		.eabi_attribute 24, 1	@ Tag_ABI_align8_needed
   7              		.eabi_attribute 25, 1	@ Tag_ABI_align8_preserved
   8              		.eabi_attribute 26, 1	@ Tag_ABI_enum_size
   9              		.eabi_attribute 30, 6	@ Tag_ABI_optimization_goals
  10              		.eabi_attribute 34, 0	@ Tag_CPU_unaligned_access
  11              		.eabi_attribute 18, 4	@ Tag_ABI_PCS_wchar_t
  12              		.file	"print.c"
  13              	@ GNU C (GNU Tools for ARM Embedded Processors) version 4.8.4 20140725 (release) [ARM/embedded-4_8-
  14              	@	compiled by GNU C version 4.7.4, GMP version 4.3.2, MPFR version 2.4.2, MPC version 0.8.1
  15              	@ GGC heuristics: --param ggc-min-expand=100 --param ggc-min-heapsize=131072
  16              	@ options passed:  -I . -I ./inc
  17              	@ -iprefix /opt/gcc-arm-none-eabi-4_8-2014q3/bin/../lib/gcc/arm-none-eabi/4.8.4/
  18              	@ -isysroot /opt/gcc-arm-none-eabi-4_8-2014q3/bin/../arm-none-eabi
  19              	@ -MD src/print.d -MF .dep/print.o.d -MP -MQ src/print.o
  20              	@ -D__USES_INITFINI__ -D DEBUG=1 src/print.c -mcpu=arm7tdmi -marm
  21              	@ -auxbase-strip src/print.o -gdwarf-2 -O0 -Wall -Wstrict-prototypes
  22              	@ -fomit-frame-pointer -fverbose-asm
  23              	@ options enabled:  -faggressive-loop-optimizations -fauto-inc-dec
  24              	@ -fbranch-count-reg -fcommon -fdelete-null-pointer-checks -fdwarf2-cfi-asm
  25              	@ -fearly-inlining -feliminate-unused-debug-types -ffunction-cse -fgcse-lm
  26              	@ -fgnu-runtime -fgnu-unique -fident -finline-atomics -fira-hoist-pressure
  27              	@ -fira-share-save-slots -fira-share-spill-slots -fivopts
  28              	@ -fkeep-static-consts -fleading-underscore -fmath-errno
  29              	@ -fmerge-debug-strings -fmove-loop-invariants -fomit-frame-pointer
  30              	@ -fpeephole -fprefetch-loop-arrays -freg-struct-return
  31              	@ -fsched-critical-path-heuristic -fsched-dep-count-heuristic
  32              	@ -fsched-group-heuristic -fsched-interblock -fsched-last-insn-heuristic
  33              	@ -fsched-rank-heuristic -fsched-spec -fsched-spec-insn-heuristic
  34              	@ -fsched-stalled-insns-dep -fshow-column -fsigned-zeros
  35              	@ -fsplit-ivs-in-unroller -fstrict-volatile-bitfields -fsync-libcalls
  36              	@ -ftrapping-math -ftree-coalesce-vars -ftree-cselim -ftree-forwprop
  37              	@ -ftree-loop-if-convert -ftree-loop-im -ftree-loop-ivcanon
  38              	@ -ftree-loop-optimize -ftree-parallelize-loops= -ftree-phiprop -ftree-pta
  39              	@ -ftree-reassoc -ftree-scev-cprop -ftree-slp-vectorize
  40              	@ -ftree-vect-loop-version -funit-at-a-time -fverbose-asm
  41              	@ -fzero-initialized-in-bss -marm -mlittle-endian
  42              	@ -mpic-data-is-text-relative -msched-prolog -mthumb-interwork
  43              	@ -mvectorize-with-neon-quad
  44              	
  45              		.text
  46              	.Ltext0:
  47              		.cfi_sections	.debug_frame
  48              		.align	2
  49              		.global	printHex
  50              		.type	printHex, %function
  51              	printHex:
  52              	.LFB0:
  53              		.file 1 "src/print.c"
   1:src/print.c   **** /*
   2:src/print.c   ****  * MODULE
   3:src/print.c   ****  *
   4:src/print.c   ****  *   print.c
ARM GAS  /tmp/cciAk5DZ.s 			page 2


   5:src/print.c   ****  *
   6:src/print.c   ****  * DESCRIPTION
   7:src/print.c   ****  *
   8:src/print.c   ****  * Very lightweight print functions.
   9:src/print.c   ****  *
  10:src/print.c   ****  * OS
  11:src/print.c   ****  *
  12:src/print.c   ****  *  n/a
  13:src/print.c   ****  *
  14:src/print.c   ****  * PLATFORM
  15:src/print.c   ****  *
  16:src/print.c   ****  * HISTORY
  17:src/print.c   ****  *   2007/10/30: Added Alan's uint32_t print
  18:src/print.c   ****  *               Added Stephane's printHex
  19:src/print.c   ****  *   2007/10/01: Mitch Ishihara
  20:src/print.c   **** ****************************************************************************/
  21:src/print.c   **** #define __PRINT_C__
  22:src/print.c   **** 
  23:src/print.c   **** #include "lpc2378.h"
  24:src/print.c   **** #include "uarts.h"
  25:src/print.c   **** #include "print.h"
  26:src/print.c   **** 
  27:src/print.c   **** 
  28:src/print.c   **** /*=========================================================================*/
  29:src/print.c   **** /*  DEFINE: All Structures and Common Constants                            */
  30:src/print.c   **** /*=========================================================================*/
  31:src/print.c   **** 
  32:src/print.c   **** /*=========================================================================*/
  33:src/print.c   **** /*  DEFINE: Prototypes                                                     */
  34:src/print.c   **** /*=========================================================================*/
  35:src/print.c   **** 
  36:src/print.c   **** /*=========================================================================*/
  37:src/print.c   **** /*  DEFINE: Definition of all local Data                                   */
  38:src/print.c   **** /*=========================================================================*/
  39:src/print.c   **** 
  40:src/print.c   **** /*=========================================================================*/
  41:src/print.c   **** /*  DEFINE: Definition of all local Procedures                             */
  42:src/print.c   **** /*=========================================================================*/
  43:src/print.c   **** 
  44:src/print.c   **** /*=========================================================================*/
  45:src/print.c   **** /*  DEFINE: All code exported                                              */
  46:src/print.c   **** /*=========================================================================*/
  47:src/print.c   **** void printHex(uint32_t u32)
  48:src/print.c   **** {
  54              		.loc 1 48 0
  55              		.cfi_startproc
  56              		@ Function supports interworking.
  57              		@ args = 0, pretend = 0, frame = 24
  58              		@ frame_needed = 0, uses_anonymous_args = 0
  59              		@ link register save eliminated.
  60 0000 18D04DE2 		sub	sp, sp, #24	@,,
  61              	.LCFI0:
  62              		.cfi_def_cfa_offset 24
  63 0004 04008DE5 		str	r0, [sp, #4]	@ u32, u32
  49:src/print.c   ****     uint32_t   u32Mask  = 0xF0000000;
  64              		.loc 1 49 0
  65 0008 0F32A0E3 		mov	r3, #-268435456	@ tmp122,
ARM GAS  /tmp/cciAk5DZ.s 			page 3


  66 000c 14308DE5 		str	r3, [sp, #20]	@ tmp122, u32Mask
  50:src/print.c   ****     uint8_t    u32Shift = 32;
  67              		.loc 1 50 0
  68 0010 2030A0E3 		mov	r3, #32	@ tmp123,
  69 0014 1330CDE5 		strb	r3, [sp, #19]	@ tmp124, u32Shift
  70              	.L8:
  51:src/print.c   ****     uint32_t   u32Char;
  52:src/print.c   **** 
  53:src/print.c   ****     do {
  54:src/print.c   ****         u32Shift -= 4;
  71              		.loc 1 54 0
  72 0018 1330DDE5 		ldrb	r3, [sp, #19]	@ tmp125, u32Shift
  73 001c 043043E2 		sub	r3, r3, #4	@ tmp126, tmp125,
  74 0020 1330CDE5 		strb	r3, [sp, #19]	@ tmp127, u32Shift
  55:src/print.c   ****         u32Char = (u32 & u32Mask) >> u32Shift;
  75              		.loc 1 55 0
  76 0024 04209DE5 		ldr	r2, [sp, #4]	@ tmp128, u32
  77 0028 14309DE5 		ldr	r3, [sp, #20]	@ tmp129, u32Mask
  78 002c 032002E0 		and	r2, r2, r3	@ D.4739, tmp128, tmp129
  79 0030 1330DDE5 		ldrb	r3, [sp, #19]	@ zero_extendqisi2	@ D.4740, u32Shift
  80 0034 3233A0E1 		mov	r3, r2, lsr r3	@ tmp130, D.4739,
  81 0038 0C308DE5 		str	r3, [sp, #12]	@ tmp130, u32Char
  56:src/print.c   ****         u32Mask >>= 4;
  82              		.loc 1 56 0
  83 003c 14309DE5 		ldr	r3, [sp, #20]	@ tmp132, u32Mask
  84 0040 2332A0E1 		mov	r3, r3, lsr #4	@ tmp131, tmp132,
  85 0044 14308DE5 		str	r3, [sp, #20]	@ tmp131, u32Mask
  57:src/print.c   ****         if (u32Char >= 0xA)
  86              		.loc 1 57 0
  87 0048 0C309DE5 		ldr	r3, [sp, #12]	@ tmp133, u32Char
  88 004c 090053E3 		cmp	r3, #9	@ tmp133,
  89 0050 0B00009A 		bls	.L2	@,
  58:src/print.c   ****         {
  59:src/print.c   ****             PUTC('A' + (u32Char - 10));
  90              		.loc 1 59 0
  91 0054 000000EA 		b	.L3	@
  92              	.L4:
  93              		.loc 1 59 0 is_stmt 0 discriminator 2
  94 0058 0000A0E1 		mov	r0, r0	@ nop
  95              	.L3:
  96              		.loc 1 59 0 discriminator 1
  97 005c 60309FE5 		ldr	r3, .L9	@ D.4741,
  98 0060 003093E5 		ldr	r3, [r3]	@ D.4739, *_11
  99 0064 203003E2 		and	r3, r3, #32	@ D.4739, D.4739,
 100 0068 000053E3 		cmp	r3, #0	@ D.4739,
 101 006c F9FFFF0A 		beq	.L4	@,
 102              		.loc 1 59 0 discriminator 3
 103 0070 50309FE5 		ldr	r3, .L9+4	@ D.4741,
 104 0074 0C209DE5 		ldr	r2, [sp, #12]	@ tmp134, u32Char
 105 0078 372082E2 		add	r2, r2, #55	@ D.4739, tmp134,
 106 007c 002083E5 		str	r2, [r3]	@ D.4739, *_14
 107 0080 0A0000EA 		b	.L5	@
 108              	.L2:
  60:src/print.c   ****         }
  61:src/print.c   ****         else
  62:src/print.c   ****         {
  63:src/print.c   ****             PUTC('0' + u32Char);
ARM GAS  /tmp/cciAk5DZ.s 			page 4


 109              		.loc 1 63 0 is_stmt 1
 110 0084 000000EA 		b	.L6	@
 111              	.L7:
 112              		.loc 1 63 0 is_stmt 0 discriminator 2
 113 0088 0000A0E1 		mov	r0, r0	@ nop
 114              	.L6:
 115              		.loc 1 63 0 discriminator 1
 116 008c 30309FE5 		ldr	r3, .L9	@ D.4741,
 117 0090 003093E5 		ldr	r3, [r3]	@ D.4739, *_16
 118 0094 203003E2 		and	r3, r3, #32	@ D.4739, D.4739,
 119 0098 000053E3 		cmp	r3, #0	@ D.4739,
 120 009c F9FFFF0A 		beq	.L7	@,
 121              		.loc 1 63 0 discriminator 3
 122 00a0 20309FE5 		ldr	r3, .L9+4	@ D.4741,
 123 00a4 0C209DE5 		ldr	r2, [sp, #12]	@ tmp135, u32Char
 124 00a8 302082E2 		add	r2, r2, #48	@ D.4739, tmp135,
 125 00ac 002083E5 		str	r2, [r3]	@ D.4739, *_19
 126              	.L5:
  64:src/print.c   ****         }
  65:src/print.c   ****     } while (u32Shift > 0);
 127              		.loc 1 65 0 is_stmt 1
 128 00b0 1330DDE5 		ldrb	r3, [sp, #19]	@ zero_extendqisi2	@ tmp136, u32Shift
 129 00b4 000053E3 		cmp	r3, #0	@ tmp136,
 130 00b8 D6FFFF1A 		bne	.L8	@,
  66:src/print.c   **** }
 131              		.loc 1 66 0
 132 00bc 18D08DE2 		add	sp, sp, #24	@,,
 133              		@ sp needed	@
 134 00c0 1EFF2FE1 		bx	lr	@
 135              	.L10:
 136              		.align	2
 137              	.L9:
 138 00c4 14C000E0 		.word	-536821740
 139 00c8 00C000E0 		.word	-536821760
 140              		.cfi_endproc
 141              	.LFE0:
 142              		.size	printHex, .-printHex
 143              		.align	2
 144              		.global	print_uint32
 145              		.type	print_uint32, %function
 146              	print_uint32:
 147              	.LFB1:
  67:src/print.c   **** 
  68:src/print.c   **** void print_uint32(uint32_t u)
  69:src/print.c   **** {
 148              		.loc 1 69 0
 149              		.cfi_startproc
 150              		@ Function supports interworking.
 151              		@ args = 0, pretend = 0, frame = 24
 152              		@ frame_needed = 1, uses_anonymous_args = 0
 153 00cc F0482DE9 		stmfd	sp!, {r4, r5, r6, r7, fp, lr}	@,
 154              	.LCFI1:
 155              		.cfi_def_cfa_offset 24
 156              		.cfi_offset 4, -24
 157              		.cfi_offset 5, -20
 158              		.cfi_offset 6, -16
 159              		.cfi_offset 7, -12
ARM GAS  /tmp/cciAk5DZ.s 			page 5


 160              		.cfi_offset 11, -8
 161              		.cfi_offset 14, -4
 162 00d0 14B08DE2 		add	fp, sp, #20	@,,
 163              	.LCFI2:
 164              		.cfi_def_cfa 11, 4
 165 00d4 18D04DE2 		sub	sp, sp, #24	@,,
 166 00d8 28000BE5 		str	r0, [fp, #-40]	@ u, u
 167 00dc 0D00A0E1 		mov	r0, sp	@ tmp122,
 168 00e0 0070A0E1 		mov	r7, r0	@ saved_stack.3, tmp122
  70:src/print.c   ****     uint32_t    buffer_length = 20;
 169              		.loc 1 70 0
 170 00e4 1400A0E3 		mov	r0, #20	@ tmp123,
 171 00e8 1C000BE5 		str	r0, [fp, #-28]	@ tmp123, buffer_length
  71:src/print.c   ****     char      buffer[buffer_length];
 172              		.loc 1 71 0
 173 00ec 1C001BE5 		ldr	r0, [fp, #-28]	@ buffer_length.0, buffer_length
 174 00f0 00C0A0E1 		mov	ip, r0	@ buffer_length.1, buffer_length.0
 175 00f4 01C04CE2 		sub	ip, ip, #1	@ D.4742, buffer_length.1,
 176 00f8 20C00BE5 		str	ip, [fp, #-32]	@ D.4742, D.4697
 177 00fc 0050A0E1 		mov	r5, r0	@ D.4743, buffer_length.0
 178 0100 0060A0E3 		mov	r6, #0	@ D.4743,
 179 0104 8621A0E1 		mov	r2, r6, asl #3	@ D.4743, D.4743,
 180 0108 A52E82E1 		orr	r2, r2, r5, lsr #29	@, D.4743, D.4743, D.4743,
 181 010c 8511A0E1 		mov	r1, r5, asl #3	@ D.4743, D.4743,
 182 0110 0010A0E1 		mov	r1, r0	@ D.4743, buffer_length.0
 183 0114 0020A0E3 		mov	r2, #0	@ D.4743,
 184 0118 8241A0E1 		mov	r4, r2, asl #3	@ D.4743, D.4743,
 185 011c A14E84E1 		orr	r4, r4, r1, lsr #29	@, D.4743, D.4743, D.4743,
 186 0120 8131A0E1 		mov	r3, r1, asl #3	@ D.4743, D.4743,
 187 0124 073080E2 		add	r3, r0, #7	@ tmp128, buffer_length.0,
 188 0128 A331A0E1 		mov	r3, r3, lsr #3	@ tmp129, tmp128,
 189 012c 8331A0E1 		mov	r3, r3, asl #3	@ tmp130, tmp129,
 190 0130 03D04DE0 		sub	sp, sp, r3	@,, tmp130
 191 0134 0D30A0E1 		mov	r3, sp	@ tmp131,
 192 0138 003083E2 		add	r3, r3, #0	@ tmp132, tmp131,
 193 013c 24300BE5 		str	r3, [fp, #-36]	@ tmp132, buffer.2
  72:src/print.c   ****     char      *p = &buffer[buffer_length - 1];
 194              		.loc 1 72 0
 195 0140 1C301BE5 		ldr	r3, [fp, #-28]	@ tmp133, buffer_length
 196 0144 013043E2 		sub	r3, r3, #1	@ D.4744, tmp133,
 197 0148 24201BE5 		ldr	r2, [fp, #-36]	@ tmp135, buffer.2
 198 014c 033082E0 		add	r3, r2, r3	@ tmp134, tmp135, D.4744
 199 0150 18300BE5 		str	r3, [fp, #-24]	@ tmp134, p
  73:src/print.c   **** 
  74:src/print.c   ****     *p = '\0';
 200              		.loc 1 74 0
 201 0154 18301BE5 		ldr	r3, [fp, #-24]	@ tmp136, p
 202 0158 0020A0E3 		mov	r2, #0	@ tmp137,
 203 015c 0020C3E5 		strb	r2, [r3]	@ tmp138, *p_15
 204              	.L12:
  75:src/print.c   ****     do {
  76:src/print.c   ****         p--;
 205              		.loc 1 76 0 discriminator 1
 206 0160 18301BE5 		ldr	r3, [fp, #-24]	@ tmp140, p
 207 0164 013043E2 		sub	r3, r3, #1	@ tmp139, tmp140,
 208 0168 18300BE5 		str	r3, [fp, #-24]	@ tmp139, p
  77:src/print.c   ****         *p = (u % 10) + '0';
ARM GAS  /tmp/cciAk5DZ.s 			page 6


 209              		.loc 1 77 0 discriminator 1
 210 016c 28101BE5 		ldr	r1, [fp, #-40]	@ tmp141, u
 211 0170 64309FE5 		ldr	r3, .L13	@ tmp143,
 212 0174 912383E0 		umull	r2, r3, r1, r3	@, tmp142, tmp141, tmp143
 213 0178 A321A0E1 		mov	r2, r3, lsr #3	@ D.4744, tmp142,
 214 017c 0230A0E1 		mov	r3, r2	@ tmp144, D.4744
 215 0180 0331A0E1 		mov	r3, r3, asl #2	@ tmp144, tmp144,
 216 0184 023083E0 		add	r3, r3, r2	@ tmp144, tmp144, D.4744
 217 0188 8330A0E1 		mov	r3, r3, asl #1	@ tmp145, tmp144,
 218 018c 012063E0 		rsb	r2, r3, r1	@ D.4744, tmp144, tmp141
 219 0190 FF3002E2 		and	r3, r2, #255	@ D.4745, D.4744,
 220 0194 303083E2 		add	r3, r3, #48	@ tmp146, D.4745,
 221 0198 FF2003E2 		and	r2, r3, #255	@ D.4745, tmp146,
 222 019c 18301BE5 		ldr	r3, [fp, #-24]	@ tmp147, p
 223 01a0 0020C3E5 		strb	r2, [r3]	@ tmp148, *p_17
  78:src/print.c   ****         u /= 10;
 224              		.loc 1 78 0 discriminator 1
 225 01a4 28201BE5 		ldr	r2, [fp, #-40]	@ tmp150, u
 226 01a8 2C309FE5 		ldr	r3, .L13	@ tmp152,
 227 01ac 921383E0 		umull	r1, r3, r2, r3	@, tmp151, tmp150, tmp152
 228 01b0 A331A0E1 		mov	r3, r3, lsr #3	@ tmp149, tmp151,
 229 01b4 28300BE5 		str	r3, [fp, #-40]	@ tmp149, u
  79:src/print.c   ****     } while (u > 0);
 230              		.loc 1 79 0 discriminator 1
 231 01b8 28301BE5 		ldr	r3, [fp, #-40]	@ tmp153, u
 232 01bc 000053E3 		cmp	r3, #0	@ tmp153,
 233 01c0 E6FFFF1A 		bne	.L12	@,
  80:src/print.c   **** 
  81:src/print.c   ****     printString(p);
 234              		.loc 1 81 0
 235 01c4 18001BE5 		ldr	r0, [fp, #-24]	@, p
 236 01c8 FEFFFFEB 		bl	printString	@
 237 01cc 07D0A0E1 		mov	sp, r7	@, saved_stack.3
  82:src/print.c   **** }
 238              		.loc 1 82 0
 239 01d0 14D04BE2 		sub	sp, fp, #20	@,,
 240              		@ sp needed	@
 241 01d4 F048BDE8 		ldmfd	sp!, {r4, r5, r6, r7, fp, lr}	@
 242 01d8 1EFF2FE1 		bx	lr	@
 243              	.L14:
 244              		.align	2
 245              	.L13:
 246 01dc CDCCCCCC 		.word	-858993459
 247              		.cfi_endproc
 248              	.LFE1:
 249              		.size	print_uint32, .-print_uint32
 250              		.align	2
 251              		.global	printString
 252              		.type	printString, %function
 253              	printString:
 254              	.LFB2:
  83:src/print.c   **** 
  84:src/print.c   **** 
  85:src/print.c   **** /*
  86:src/print.c   ****  * NAME
  87:src/print.c   ****  *
  88:src/print.c   ****  *  printString
ARM GAS  /tmp/cciAk5DZ.s 			page 7


  89:src/print.c   ****  *
  90:src/print.c   ****  * DESCRIPTION
  91:src/print.c   ****  *
  92:src/print.c   ****  *  Standard printString function
  93:src/print.c   ****  *
  94:src/print.c   ****  * PARAMETERS
  95:src/print.c   ****  *
  96:src/print.c   ****  *  none...
  97:src/print.c   ****  *
  98:src/print.c   ****  * EXAMPLE
  99:src/print.c   ****  *
 100:src/print.c   ****  *  printString("hello embedded world");
 101:src/print.c   ****  *
 102:src/print.c   ****  * NOTES
 103:src/print.c   ****  *
 104:src/print.c   ****  *  intercepts '\n' and adds '\r'  (LF+CR)
 105:src/print.c   ****  *
 106:src/print.c   ****  */
 107:src/print.c   **** 
 108:src/print.c   **** void printString(char *ptr)
 109:src/print.c   **** {
 255              		.loc 1 109 0
 256              		.cfi_startproc
 257              		@ Function supports interworking.
 258              		@ args = 0, pretend = 0, frame = 8
 259              		@ frame_needed = 0, uses_anonymous_args = 0
 260              		@ link register save eliminated.
 261 01e0 08D04DE2 		sub	sp, sp, #8	@,,
 262              	.LCFI3:
 263              		.cfi_def_cfa_offset 8
 264 01e4 04008DE5 		str	r0, [sp, #4]	@ ptr, ptr
 110:src/print.c   ****     if (ptr==0 || *ptr==0) return;
 265              		.loc 1 110 0
 266 01e8 04309DE5 		ldr	r3, [sp, #4]	@ tmp131, ptr
 267 01ec 000053E3 		cmp	r3, #0	@ tmp131,
 268 01f0 0300000A 		beq	.L16	@,
 269              		.loc 1 110 0 is_stmt 0 discriminator 2
 270 01f4 04309DE5 		ldr	r3, [sp, #4]	@ tmp132, ptr
 271 01f8 0030D3E5 		ldrb	r3, [r3]	@ zero_extendqisi2	@ D.4746, *ptr_3(D)
 272 01fc 000053E3 		cmp	r3, #0	@ D.4746,
 273 0200 0000001A 		bne	.L17	@,
 274              	.L16:
 275              		.loc 1 110 0 discriminator 1
 276 0204 2C0000EA 		b	.L15	@
 277              	.L17:
 111:src/print.c   **** 
 112:src/print.c   ****     do
 113:src/print.c   ****     {
 114:src/print.c   ****       if (*ptr=='\n')
 278              		.loc 1 114 0 is_stmt 1
 279 0208 04309DE5 		ldr	r3, [sp, #4]	@ tmp133, ptr
 280 020c 0030D3E5 		ldrb	r3, [r3]	@ zero_extendqisi2	@ D.4746, *ptr_1
 281 0210 0A0053E3 		cmp	r3, #10	@ D.4746,
 282 0214 1700001A 		bne	.L19	@,
 115:src/print.c   ****       {
 116:src/print.c   ****       PUTC(*ptr++);
 283              		.loc 1 116 0
ARM GAS  /tmp/cciAk5DZ.s 			page 8


 284 0218 000000EA 		b	.L20	@
 285              	.L21:
 286              		.loc 1 116 0 is_stmt 0 discriminator 2
 287 021c 0000A0E1 		mov	r0, r0	@ nop
 288              	.L20:
 289              		.loc 1 116 0 discriminator 1
 290 0220 9C309FE5 		ldr	r3, .L27	@ D.4747,
 291 0224 003093E5 		ldr	r3, [r3]	@ D.4748, *_6
 292 0228 203003E2 		and	r3, r3, #32	@ D.4748, D.4748,
 293 022c 000053E3 		cmp	r3, #0	@ D.4748,
 294 0230 F9FFFF0A 		beq	.L21	@,
 295              		.loc 1 116 0 discriminator 3
 296 0234 8C209FE5 		ldr	r2, .L27+4	@ D.4747,
 297 0238 04309DE5 		ldr	r3, [sp, #4]	@ ptr.4, ptr
 298 023c 011083E2 		add	r1, r3, #1	@ tmp134, ptr.4,
 299 0240 04108DE5 		str	r1, [sp, #4]	@ tmp134, ptr
 300 0244 0030D3E5 		ldrb	r3, [r3]	@ zero_extendqisi2	@ D.4746, *ptr.4_10
 301 0248 003082E5 		str	r3, [r2]	@ D.4748, *_9
 117:src/print.c   ****       PUTC('\r');
 302              		.loc 1 117 0 is_stmt 1 discriminator 3
 303 024c 000000EA 		b	.L22	@
 304              	.L23:
 305              		.loc 1 117 0 is_stmt 0 discriminator 2
 306 0250 0000A0E1 		mov	r0, r0	@ nop
 307              	.L22:
 308              		.loc 1 117 0 discriminator 1
 309 0254 68309FE5 		ldr	r3, .L27	@ D.4747,
 310 0258 003093E5 		ldr	r3, [r3]	@ D.4748, *_14
 311 025c 203003E2 		and	r3, r3, #32	@ D.4748, D.4748,
 312 0260 000053E3 		cmp	r3, #0	@ D.4748,
 313 0264 F9FFFF0A 		beq	.L23	@,
 314              		.loc 1 117 0 discriminator 3
 315 0268 58309FE5 		ldr	r3, .L27+4	@ D.4747,
 316 026c 0D20A0E3 		mov	r2, #13	@ tmp135,
 317 0270 002083E5 		str	r2, [r3]	@ tmp135, *_17
 318 0274 0C0000EA 		b	.L24	@
 319              	.L19:
 118:src/print.c   ****       }
 119:src/print.c   ****       else
 120:src/print.c   ****       {
 121:src/print.c   ****       PUTC(*ptr++);
 320              		.loc 1 121 0 is_stmt 1
 321 0278 000000EA 		b	.L25	@
 322              	.L26:
 323              		.loc 1 121 0 is_stmt 0 discriminator 2
 324 027c 0000A0E1 		mov	r0, r0	@ nop
 325              	.L25:
 326              		.loc 1 121 0 discriminator 1
 327 0280 3C309FE5 		ldr	r3, .L27	@ D.4747,
 328 0284 003093E5 		ldr	r3, [r3]	@ D.4748, *_18
 329 0288 203003E2 		and	r3, r3, #32	@ D.4748, D.4748,
 330 028c 000053E3 		cmp	r3, #0	@ D.4748,
 331 0290 F9FFFF0A 		beq	.L26	@,
 332              		.loc 1 121 0 discriminator 3
 333 0294 2C209FE5 		ldr	r2, .L27+4	@ D.4747,
 334 0298 04309DE5 		ldr	r3, [sp, #4]	@ ptr.5, ptr
 335 029c 011083E2 		add	r1, r3, #1	@ tmp136, ptr.5,
ARM GAS  /tmp/cciAk5DZ.s 			page 9


 336 02a0 04108DE5 		str	r1, [sp, #4]	@ tmp136, ptr
 337 02a4 0030D3E5 		ldrb	r3, [r3]	@ zero_extendqisi2	@ D.4746, *ptr.5_22
 338 02a8 003082E5 		str	r3, [r2]	@ D.4748, *_21
 339              	.L24:
 122:src/print.c   ****       }
 123:src/print.c   ****     }
 124:src/print.c   ****     while (*ptr!=0);
 340              		.loc 1 124 0 is_stmt 1
 341 02ac 04309DE5 		ldr	r3, [sp, #4]	@ tmp137, ptr
 342 02b0 0030D3E5 		ldrb	r3, [r3]	@ zero_extendqisi2	@ D.4746, *ptr_2
 343 02b4 000053E3 		cmp	r3, #0	@ D.4746,
 344 02b8 D2FFFF1A 		bne	.L17	@,
 345              	.L15:
 125:src/print.c   **** }
 346              		.loc 1 125 0
 347 02bc 08D08DE2 		add	sp, sp, #8	@,,
 348              		@ sp needed	@
 349 02c0 1EFF2FE1 		bx	lr	@
 350              	.L28:
 351              		.align	2
 352              	.L27:
 353 02c4 14C000E0 		.word	-536821740
 354 02c8 00C000E0 		.word	-536821760
 355              		.cfi_endproc
 356              	.LFE2:
 357              		.size	printString, .-printString
 358              	.Letext0:
 359              		.file 2 "./inc/lpc2378.h"
 360              		.section	.debug_info,"",%progbits
 361              	.Ldebug_info0:
 362 0000 45010000 		.4byte	0x145
 363 0004 0200     		.2byte	0x2
 364 0006 00000000 		.4byte	.Ldebug_abbrev0
 365 000a 04       		.byte	0x4
 366 000b 01       		.uleb128 0x1
 367 000c BA000000 		.4byte	.LASF14
 368 0010 01       		.byte	0x1
 369 0011 0D000000 		.4byte	.LASF15
 370 0015 19000000 		.4byte	.LASF16
 371 0019 00000000 		.4byte	.Ltext0
 372 001d CC020000 		.4byte	.Letext0
 373 0021 00000000 		.4byte	.Ldebug_line0
 374 0025 02       		.uleb128 0x2
 375 0026 04       		.byte	0x4
 376 0027 07       		.byte	0x7
 377 0028 46000000 		.4byte	.LASF0
 378 002c 03       		.uleb128 0x3
 379 002d 04       		.byte	0x4
 380 002e 05       		.byte	0x5
 381 002f 696E7400 		.ascii	"int\000"
 382 0033 04       		.uleb128 0x4
 383 0034 66000000 		.4byte	.LASF3
 384 0038 02       		.byte	0x2
 385 0039 0102     		.2byte	0x201
 386 003b 3F000000 		.4byte	0x3f
 387 003f 02       		.uleb128 0x2
 388 0040 01       		.byte	0x1
ARM GAS  /tmp/cciAk5DZ.s 			page 10


 389 0041 08       		.byte	0x8
 390 0042 6E000000 		.4byte	.LASF1
 391 0046 02       		.uleb128 0x2
 392 0047 02       		.byte	0x2
 393 0048 07       		.byte	0x7
 394 0049 96000000 		.4byte	.LASF2
 395 004d 04       		.uleb128 0x4
 396 004e 81000000 		.4byte	.LASF4
 397 0052 02       		.byte	0x2
 398 0053 0302     		.2byte	0x203
 399 0055 25000000 		.4byte	0x25
 400 0059 02       		.uleb128 0x2
 401 005a 04       		.byte	0x4
 402 005b 07       		.byte	0x7
 403 005c 4A010000 		.4byte	.LASF5
 404 0060 05       		.uleb128 0x5
 405 0061 01       		.byte	0x1
 406 0062 3D000000 		.4byte	.LASF9
 407 0066 01       		.byte	0x1
 408 0067 2F       		.byte	0x2f
 409 0068 01       		.byte	0x1
 410 0069 00000000 		.4byte	.LFB0
 411 006d CC000000 		.4byte	.LFE0
 412 0071 00000000 		.4byte	.LLST0
 413 0075 01       		.byte	0x1
 414 0076 B3000000 		.4byte	0xb3
 415 007a 06       		.uleb128 0x6
 416 007b 75333200 		.ascii	"u32\000"
 417 007f 01       		.byte	0x1
 418 0080 2F       		.byte	0x2f
 419 0081 4D000000 		.4byte	0x4d
 420 0085 02       		.byte	0x2
 421 0086 91       		.byte	0x91
 422 0087 6C       		.sleb128 -20
 423 0088 07       		.uleb128 0x7
 424 0089 B2000000 		.4byte	.LASF6
 425 008d 01       		.byte	0x1
 426 008e 31       		.byte	0x31
 427 008f 4D000000 		.4byte	0x4d
 428 0093 02       		.byte	0x2
 429 0094 91       		.byte	0x91
 430 0095 7C       		.sleb128 -4
 431 0096 07       		.uleb128 0x7
 432 0097 A9000000 		.4byte	.LASF7
 433 009b 01       		.byte	0x1
 434 009c 32       		.byte	0x32
 435 009d 33000000 		.4byte	0x33
 436 00a1 02       		.byte	0x2
 437 00a2 91       		.byte	0x91
 438 00a3 7B       		.sleb128 -5
 439 00a4 07       		.uleb128 0x7
 440 00a5 3B010000 		.4byte	.LASF8
 441 00a9 01       		.byte	0x1
 442 00aa 33       		.byte	0x33
 443 00ab 4D000000 		.4byte	0x4d
 444 00af 02       		.byte	0x2
 445 00b0 91       		.byte	0x91
ARM GAS  /tmp/cciAk5DZ.s 			page 11


 446 00b1 74       		.sleb128 -12
 447 00b2 00       		.byte	0
 448 00b3 08       		.uleb128 0x8
 449 00b4 01       		.byte	0x1
 450 00b5 00000000 		.4byte	.LASF10
 451 00b9 01       		.byte	0x1
 452 00ba 44       		.byte	0x44
 453 00bb 01       		.byte	0x1
 454 00bc CC000000 		.4byte	.LFB1
 455 00c0 E0010000 		.4byte	.LFE1
 456 00c4 20000000 		.4byte	.LLST1
 457 00c8 01       		.byte	0x1
 458 00c9 03010000 		.4byte	0x103
 459 00cd 06       		.uleb128 0x6
 460 00ce 7500     		.ascii	"u\000"
 461 00d0 01       		.byte	0x1
 462 00d1 44       		.byte	0x44
 463 00d2 4D000000 		.4byte	0x4d
 464 00d6 02       		.byte	0x2
 465 00d7 91       		.byte	0x91
 466 00d8 54       		.sleb128 -44
 467 00d9 07       		.uleb128 0x7
 468 00da 58000000 		.4byte	.LASF11
 469 00de 01       		.byte	0x1
 470 00df 46       		.byte	0x46
 471 00e0 4D000000 		.4byte	0x4d
 472 00e4 02       		.byte	0x2
 473 00e5 91       		.byte	0x91
 474 00e6 60       		.sleb128 -32
 475 00e7 07       		.uleb128 0x7
 476 00e8 43010000 		.4byte	.LASF12
 477 00ec 01       		.byte	0x1
 478 00ed 47       		.byte	0x47
 479 00ee 03010000 		.4byte	0x103
 480 00f2 03       		.byte	0x3
 481 00f3 91       		.byte	0x91
 482 00f4 58       		.sleb128 -40
 483 00f5 06       		.byte	0x6
 484 00f6 09       		.uleb128 0x9
 485 00f7 7000     		.ascii	"p\000"
 486 00f9 01       		.byte	0x1
 487 00fa 48       		.byte	0x48
 488 00fb 1D010000 		.4byte	0x11d
 489 00ff 02       		.byte	0x2
 490 0100 91       		.byte	0x91
 491 0101 64       		.sleb128 -28
 492 0102 00       		.byte	0
 493 0103 0A       		.uleb128 0xa
 494 0104 16010000 		.4byte	0x116
 495 0108 16010000 		.4byte	0x116
 496 010c 0B       		.uleb128 0xb
 497 010d 59000000 		.4byte	0x59
 498 0111 03       		.byte	0x3
 499 0112 91       		.byte	0x91
 500 0113 5C       		.sleb128 -36
 501 0114 06       		.byte	0x6
 502 0115 00       		.byte	0
ARM GAS  /tmp/cciAk5DZ.s 			page 12


 503 0116 02       		.uleb128 0x2
 504 0117 01       		.byte	0x1
 505 0118 08       		.byte	0x8
 506 0119 7C000000 		.4byte	.LASF13
 507 011d 0C       		.uleb128 0xc
 508 011e 04       		.byte	0x4
 509 011f 16010000 		.4byte	0x116
 510 0123 0D       		.uleb128 0xd
 511 0124 01       		.byte	0x1
 512 0125 8A000000 		.4byte	.LASF17
 513 0129 01       		.byte	0x1
 514 012a 6C       		.byte	0x6c
 515 012b 01       		.byte	0x1
 516 012c E0010000 		.4byte	.LFB2
 517 0130 CC020000 		.4byte	.LFE2
 518 0134 4C000000 		.4byte	.LLST2
 519 0138 01       		.byte	0x1
 520 0139 06       		.uleb128 0x6
 521 013a 70747200 		.ascii	"ptr\000"
 522 013e 01       		.byte	0x1
 523 013f 6C       		.byte	0x6c
 524 0140 1D010000 		.4byte	0x11d
 525 0144 02       		.byte	0x2
 526 0145 91       		.byte	0x91
 527 0146 7C       		.sleb128 -4
 528 0147 00       		.byte	0
 529 0148 00       		.byte	0
 530              		.section	.debug_abbrev,"",%progbits
 531              	.Ldebug_abbrev0:
 532 0000 01       		.uleb128 0x1
 533 0001 11       		.uleb128 0x11
 534 0002 01       		.byte	0x1
 535 0003 25       		.uleb128 0x25
 536 0004 0E       		.uleb128 0xe
 537 0005 13       		.uleb128 0x13
 538 0006 0B       		.uleb128 0xb
 539 0007 03       		.uleb128 0x3
 540 0008 0E       		.uleb128 0xe
 541 0009 1B       		.uleb128 0x1b
 542 000a 0E       		.uleb128 0xe
 543 000b 11       		.uleb128 0x11
 544 000c 01       		.uleb128 0x1
 545 000d 12       		.uleb128 0x12
 546 000e 01       		.uleb128 0x1
 547 000f 10       		.uleb128 0x10
 548 0010 06       		.uleb128 0x6
 549 0011 00       		.byte	0
 550 0012 00       		.byte	0
 551 0013 02       		.uleb128 0x2
 552 0014 24       		.uleb128 0x24
 553 0015 00       		.byte	0
 554 0016 0B       		.uleb128 0xb
 555 0017 0B       		.uleb128 0xb
 556 0018 3E       		.uleb128 0x3e
 557 0019 0B       		.uleb128 0xb
 558 001a 03       		.uleb128 0x3
 559 001b 0E       		.uleb128 0xe
ARM GAS  /tmp/cciAk5DZ.s 			page 13


 560 001c 00       		.byte	0
 561 001d 00       		.byte	0
 562 001e 03       		.uleb128 0x3
 563 001f 24       		.uleb128 0x24
 564 0020 00       		.byte	0
 565 0021 0B       		.uleb128 0xb
 566 0022 0B       		.uleb128 0xb
 567 0023 3E       		.uleb128 0x3e
 568 0024 0B       		.uleb128 0xb
 569 0025 03       		.uleb128 0x3
 570 0026 08       		.uleb128 0x8
 571 0027 00       		.byte	0
 572 0028 00       		.byte	0
 573 0029 04       		.uleb128 0x4
 574 002a 16       		.uleb128 0x16
 575 002b 00       		.byte	0
 576 002c 03       		.uleb128 0x3
 577 002d 0E       		.uleb128 0xe
 578 002e 3A       		.uleb128 0x3a
 579 002f 0B       		.uleb128 0xb
 580 0030 3B       		.uleb128 0x3b
 581 0031 05       		.uleb128 0x5
 582 0032 49       		.uleb128 0x49
 583 0033 13       		.uleb128 0x13
 584 0034 00       		.byte	0
 585 0035 00       		.byte	0
 586 0036 05       		.uleb128 0x5
 587 0037 2E       		.uleb128 0x2e
 588 0038 01       		.byte	0x1
 589 0039 3F       		.uleb128 0x3f
 590 003a 0C       		.uleb128 0xc
 591 003b 03       		.uleb128 0x3
 592 003c 0E       		.uleb128 0xe
 593 003d 3A       		.uleb128 0x3a
 594 003e 0B       		.uleb128 0xb
 595 003f 3B       		.uleb128 0x3b
 596 0040 0B       		.uleb128 0xb
 597 0041 27       		.uleb128 0x27
 598 0042 0C       		.uleb128 0xc
 599 0043 11       		.uleb128 0x11
 600 0044 01       		.uleb128 0x1
 601 0045 12       		.uleb128 0x12
 602 0046 01       		.uleb128 0x1
 603 0047 40       		.uleb128 0x40
 604 0048 06       		.uleb128 0x6
 605 0049 9742     		.uleb128 0x2117
 606 004b 0C       		.uleb128 0xc
 607 004c 01       		.uleb128 0x1
 608 004d 13       		.uleb128 0x13
 609 004e 00       		.byte	0
 610 004f 00       		.byte	0
 611 0050 06       		.uleb128 0x6
 612 0051 05       		.uleb128 0x5
 613 0052 00       		.byte	0
 614 0053 03       		.uleb128 0x3
 615 0054 08       		.uleb128 0x8
 616 0055 3A       		.uleb128 0x3a
ARM GAS  /tmp/cciAk5DZ.s 			page 14


 617 0056 0B       		.uleb128 0xb
 618 0057 3B       		.uleb128 0x3b
 619 0058 0B       		.uleb128 0xb
 620 0059 49       		.uleb128 0x49
 621 005a 13       		.uleb128 0x13
 622 005b 02       		.uleb128 0x2
 623 005c 0A       		.uleb128 0xa
 624 005d 00       		.byte	0
 625 005e 00       		.byte	0
 626 005f 07       		.uleb128 0x7
 627 0060 34       		.uleb128 0x34
 628 0061 00       		.byte	0
 629 0062 03       		.uleb128 0x3
 630 0063 0E       		.uleb128 0xe
 631 0064 3A       		.uleb128 0x3a
 632 0065 0B       		.uleb128 0xb
 633 0066 3B       		.uleb128 0x3b
 634 0067 0B       		.uleb128 0xb
 635 0068 49       		.uleb128 0x49
 636 0069 13       		.uleb128 0x13
 637 006a 02       		.uleb128 0x2
 638 006b 0A       		.uleb128 0xa
 639 006c 00       		.byte	0
 640 006d 00       		.byte	0
 641 006e 08       		.uleb128 0x8
 642 006f 2E       		.uleb128 0x2e
 643 0070 01       		.byte	0x1
 644 0071 3F       		.uleb128 0x3f
 645 0072 0C       		.uleb128 0xc
 646 0073 03       		.uleb128 0x3
 647 0074 0E       		.uleb128 0xe
 648 0075 3A       		.uleb128 0x3a
 649 0076 0B       		.uleb128 0xb
 650 0077 3B       		.uleb128 0x3b
 651 0078 0B       		.uleb128 0xb
 652 0079 27       		.uleb128 0x27
 653 007a 0C       		.uleb128 0xc
 654 007b 11       		.uleb128 0x11
 655 007c 01       		.uleb128 0x1
 656 007d 12       		.uleb128 0x12
 657 007e 01       		.uleb128 0x1
 658 007f 40       		.uleb128 0x40
 659 0080 06       		.uleb128 0x6
 660 0081 9642     		.uleb128 0x2116
 661 0083 0C       		.uleb128 0xc
 662 0084 01       		.uleb128 0x1
 663 0085 13       		.uleb128 0x13
 664 0086 00       		.byte	0
 665 0087 00       		.byte	0
 666 0088 09       		.uleb128 0x9
 667 0089 34       		.uleb128 0x34
 668 008a 00       		.byte	0
 669 008b 03       		.uleb128 0x3
 670 008c 08       		.uleb128 0x8
 671 008d 3A       		.uleb128 0x3a
 672 008e 0B       		.uleb128 0xb
 673 008f 3B       		.uleb128 0x3b
ARM GAS  /tmp/cciAk5DZ.s 			page 15


 674 0090 0B       		.uleb128 0xb
 675 0091 49       		.uleb128 0x49
 676 0092 13       		.uleb128 0x13
 677 0093 02       		.uleb128 0x2
 678 0094 0A       		.uleb128 0xa
 679 0095 00       		.byte	0
 680 0096 00       		.byte	0
 681 0097 0A       		.uleb128 0xa
 682 0098 01       		.uleb128 0x1
 683 0099 01       		.byte	0x1
 684 009a 49       		.uleb128 0x49
 685 009b 13       		.uleb128 0x13
 686 009c 01       		.uleb128 0x1
 687 009d 13       		.uleb128 0x13
 688 009e 00       		.byte	0
 689 009f 00       		.byte	0
 690 00a0 0B       		.uleb128 0xb
 691 00a1 21       		.uleb128 0x21
 692 00a2 00       		.byte	0
 693 00a3 49       		.uleb128 0x49
 694 00a4 13       		.uleb128 0x13
 695 00a5 2F       		.uleb128 0x2f
 696 00a6 0A       		.uleb128 0xa
 697 00a7 00       		.byte	0
 698 00a8 00       		.byte	0
 699 00a9 0C       		.uleb128 0xc
 700 00aa 0F       		.uleb128 0xf
 701 00ab 00       		.byte	0
 702 00ac 0B       		.uleb128 0xb
 703 00ad 0B       		.uleb128 0xb
 704 00ae 49       		.uleb128 0x49
 705 00af 13       		.uleb128 0x13
 706 00b0 00       		.byte	0
 707 00b1 00       		.byte	0
 708 00b2 0D       		.uleb128 0xd
 709 00b3 2E       		.uleb128 0x2e
 710 00b4 01       		.byte	0x1
 711 00b5 3F       		.uleb128 0x3f
 712 00b6 0C       		.uleb128 0xc
 713 00b7 03       		.uleb128 0x3
 714 00b8 0E       		.uleb128 0xe
 715 00b9 3A       		.uleb128 0x3a
 716 00ba 0B       		.uleb128 0xb
 717 00bb 3B       		.uleb128 0x3b
 718 00bc 0B       		.uleb128 0xb
 719 00bd 27       		.uleb128 0x27
 720 00be 0C       		.uleb128 0xc
 721 00bf 11       		.uleb128 0x11
 722 00c0 01       		.uleb128 0x1
 723 00c1 12       		.uleb128 0x12
 724 00c2 01       		.uleb128 0x1
 725 00c3 40       		.uleb128 0x40
 726 00c4 06       		.uleb128 0x6
 727 00c5 9742     		.uleb128 0x2117
 728 00c7 0C       		.uleb128 0xc
 729 00c8 00       		.byte	0
 730 00c9 00       		.byte	0
ARM GAS  /tmp/cciAk5DZ.s 			page 16


 731 00ca 00       		.byte	0
 732              		.section	.debug_loc,"",%progbits
 733              	.Ldebug_loc0:
 734              	.LLST0:
 735 0000 00000000 		.4byte	.LFB0-.Ltext0
 736 0004 04000000 		.4byte	.LCFI0-.Ltext0
 737 0008 0200     		.2byte	0x2
 738 000a 7D       		.byte	0x7d
 739 000b 00       		.sleb128 0
 740 000c 04000000 		.4byte	.LCFI0-.Ltext0
 741 0010 CC000000 		.4byte	.LFE0-.Ltext0
 742 0014 0200     		.2byte	0x2
 743 0016 7D       		.byte	0x7d
 744 0017 18       		.sleb128 24
 745 0018 00000000 		.4byte	0
 746 001c 00000000 		.4byte	0
 747              	.LLST1:
 748 0020 CC000000 		.4byte	.LFB1-.Ltext0
 749 0024 D0000000 		.4byte	.LCFI1-.Ltext0
 750 0028 0200     		.2byte	0x2
 751 002a 7D       		.byte	0x7d
 752 002b 00       		.sleb128 0
 753 002c D0000000 		.4byte	.LCFI1-.Ltext0
 754 0030 D4000000 		.4byte	.LCFI2-.Ltext0
 755 0034 0200     		.2byte	0x2
 756 0036 7D       		.byte	0x7d
 757 0037 18       		.sleb128 24
 758 0038 D4000000 		.4byte	.LCFI2-.Ltext0
 759 003c E0010000 		.4byte	.LFE1-.Ltext0
 760 0040 0200     		.2byte	0x2
 761 0042 7B       		.byte	0x7b
 762 0043 04       		.sleb128 4
 763 0044 00000000 		.4byte	0
 764 0048 00000000 		.4byte	0
 765              	.LLST2:
 766 004c E0010000 		.4byte	.LFB2-.Ltext0
 767 0050 E4010000 		.4byte	.LCFI3-.Ltext0
 768 0054 0200     		.2byte	0x2
 769 0056 7D       		.byte	0x7d
 770 0057 00       		.sleb128 0
 771 0058 E4010000 		.4byte	.LCFI3-.Ltext0
 772 005c CC020000 		.4byte	.LFE2-.Ltext0
 773 0060 0200     		.2byte	0x2
 774 0062 7D       		.byte	0x7d
 775 0063 08       		.sleb128 8
 776 0064 00000000 		.4byte	0
 777 0068 00000000 		.4byte	0
 778              		.section	.debug_aranges,"",%progbits
 779 0000 1C000000 		.4byte	0x1c
 780 0004 0200     		.2byte	0x2
 781 0006 00000000 		.4byte	.Ldebug_info0
 782 000a 04       		.byte	0x4
 783 000b 00       		.byte	0
 784 000c 0000     		.2byte	0
 785 000e 0000     		.2byte	0
 786 0010 00000000 		.4byte	.Ltext0
 787 0014 CC020000 		.4byte	.Letext0-.Ltext0
ARM GAS  /tmp/cciAk5DZ.s 			page 17


 788 0018 00000000 		.4byte	0
 789 001c 00000000 		.4byte	0
 790              		.section	.debug_line,"",%progbits
 791              	.Ldebug_line0:
 792 0000 E1000000 		.section	.debug_str,"MS",%progbits,1
 792      02003500 
 792      00000201 
 792      FB0E0D00 
 792      01010101 
 793              	.LASF10:
 794 0000 7072696E 		.ascii	"print_uint32\000"
 794      745F7569 
 794      6E743332 
 794      00
 795              	.LASF15:
 796 000d 7372632F 		.ascii	"src/print.c\000"
 796      7072696E 
 796      742E6300 
 797              	.LASF16:
 798 0019 2F686F6D 		.ascii	"/home/jun/projects/critical_section\000"
 798      652F6A75 
 798      6E2F7072 
 798      6F6A6563 
 798      74732F63 
 799              	.LASF9:
 800 003d 7072696E 		.ascii	"printHex\000"
 800      74486578 
 800      00
 801              	.LASF0:
 802 0046 6C6F6E67 		.ascii	"long unsigned int\000"
 802      20756E73 
 802      69676E65 
 802      6420696E 
 802      7400
 803              	.LASF11:
 804 0058 62756666 		.ascii	"buffer_length\000"
 804      65725F6C 
 804      656E6774 
 804      6800
 805              	.LASF3:
 806 0066 75696E74 		.ascii	"uint8_t\000"
 806      385F7400 
 807              	.LASF1:
 808 006e 756E7369 		.ascii	"unsigned char\000"
 808      676E6564 
 808      20636861 
 808      7200
 809              	.LASF13:
 810 007c 63686172 		.ascii	"char\000"
 810      00
 811              	.LASF4:
 812 0081 75696E74 		.ascii	"uint32_t\000"
 812      33325F74 
 812      00
 813              	.LASF17:
 814 008a 7072696E 		.ascii	"printString\000"
 814      74537472 
ARM GAS  /tmp/cciAk5DZ.s 			page 18


 814      696E6700 
 815              	.LASF2:
 816 0096 73686F72 		.ascii	"short unsigned int\000"
 816      7420756E 
 816      7369676E 
 816      65642069 
 816      6E7400
 817              	.LASF7:
 818 00a9 75333253 		.ascii	"u32Shift\000"
 818      68696674 
 818      00
 819              	.LASF6:
 820 00b2 7533324D 		.ascii	"u32Mask\000"
 820      61736B00 
 821              	.LASF14:
 822 00ba 474E5520 		.ascii	"GNU C 4.8.4 20140725 (release) [ARM/embedded-4_8-br"
 822      4320342E 
 822      382E3420 
 822      32303134 
 822      30373235 
 823 00ed 616E6368 		.ascii	"anch revision 213147] -mcpu=arm7tdmi -marm -gdwarf-"
 823      20726576 
 823      6973696F 
 823      6E203231 
 823      33313437 
 824 0120 32202D4F 		.ascii	"2 -O0 -fomit-frame-pointer\000"
 824      30202D66 
 824      6F6D6974 
 824      2D667261 
 824      6D652D70 
 825              	.LASF8:
 826 013b 75333243 		.ascii	"u32Char\000"
 826      68617200 
 827              	.LASF12:
 828 0143 62756666 		.ascii	"buffer\000"
 828      657200
 829              	.LASF5:
 830 014a 73697A65 		.ascii	"sizetype\000"
 830      74797065 
 830      00
 831              		.ident	"GCC: (GNU Tools for ARM Embedded Processors) 4.8.4 20140725 (release) [ARM/embedded-4_8-br
ARM GAS  /tmp/cciAk5DZ.s 			page 19


DEFINED SYMBOLS
                            *ABS*:00000000 print.c
     /tmp/cciAk5DZ.s:48     .text:00000000 $a
     /tmp/cciAk5DZ.s:51     .text:00000000 printHex
     /tmp/cciAk5DZ.s:138    .text:000000c4 $d
     /tmp/cciAk5DZ.s:143    .text:000000cc $a
     /tmp/cciAk5DZ.s:146    .text:000000cc print_uint32
     /tmp/cciAk5DZ.s:253    .text:000001e0 printString
     /tmp/cciAk5DZ.s:246    .text:000001dc $d
     /tmp/cciAk5DZ.s:250    .text:000001e0 $a
     /tmp/cciAk5DZ.s:353    .text:000002c4 $d
                     .debug_frame:00000010 $d

NO UNDEFINED SYMBOLS
